 sauerbraten

 Timestamp is 64914db7 (Tue Jun 20 08:56:55 2023)

 Preferred load address is 0000000140000000

 Start         Length     Name                   Class
 0001:00000000 00006810H .text                   CODE
 0001:00006810 00016780H .text$di                CODE
 0001:0001cf90 001f90c0H .text$mn                CODE
 0001:00216050 00000040H .text$mn$00             CODE
 0001:00216090 00005e40H .text$x                 CODE
 0001:0021bed0 0000286dH .text$yd                CODE
 0002:00000000 00000a08H .idata$5                DATA
 0002:00000a08 00000038H .00cfg                  DATA
 0002:00000a40 00000008H .CRT$XCA                DATA
 0002:00000a48 00000008H .CRT$XCAA               DATA
 0002:00000a50 000029d0H .CRT$XCU                DATA
 0002:00003420 00000008H .CRT$XCZ                DATA
 0002:00003428 00000008H .CRT$XIA                DATA
 0002:00003430 00000008H .CRT$XIAA               DATA
 0002:00003438 00000008H .CRT$XIAC               DATA
 0002:00003440 00000030H .CRT$XIC                DATA
 0002:00003470 00000008H .CRT$XIZ                DATA
 0002:00003478 00000008H .CRT$XLA                DATA
 0002:00003480 00000008H .CRT$XLZ                DATA
 0002:00003488 00000008H .CRT$XPA                DATA
 0002:00003490 00000010H .CRT$XPX                DATA
 0002:000034a0 00000008H .CRT$XPXA               DATA
 0002:000034a8 00000008H .CRT$XPZ                DATA
 0002:000034b0 00000008H .CRT$XTA                DATA
 0002:000034b8 00000008H .CRT$XTZ                DATA
 0002:000034c0 00000000H .gehcont$y              DATA
 0002:000034c0 00000000H .gfids$y                DATA
 0002:000034c0 00024ac0H .rdata                  DATA
 0002:00027f80 00000000H .rdata$CastGuardVftablesA DATA
 0002:00027f80 00000000H .rdata$CastGuardVftablesC DATA
 0002:00027f80 00000028H .rdata$T                DATA
 0002:00027fa8 00002894H .rdata$r                DATA
 0002:0002a83c 00000144H .rdata$voltmd           DATA
 0002:0002a980 000000e0H .rdata$zzz              DATA
 0002:0002aa60 00000488H .rdata$zzzdbg           DATA
 0002:0002aee8 00000008H .rtc$IAA                DATA
 0002:0002aef0 00000008H .rtc$IZZ                DATA
 0002:0002aef8 00000008H .rtc$TAA                DATA
 0002:0002af00 00000008H .rtc$TZZ                DATA
 0002:0002af08 00000004H .tls                    DATA
 0002:0002af0c 00000004H .tls$                   DATA
 0002:0002af10 00000008H .tls$ZZZ                DATA
 0002:0002af18 00024978H .xdata                  DATA
 0002:0004f890 00000084H .xdata$x                DATA
 0002:0004f914 00000000H .edata                  DATA
 0002:0004f914 000000dcH .idata$2                DATA
 0002:0004f9f0 00000018H .idata$3                DATA
 0002:0004fa08 00000a08H .idata$4                DATA
 0002:00050410 000014c0H .idata$6                DATA
 0003:00000000 00006cd0H .data                   DATA
 0003:00006cd0 00000050H .data$r                 DATA
 0003:00006d20 00000d20H .data$rs                DATA
 0003:00007a40 000dab94H .bss                    DATA
 0004:00000000 00018228H .pdata                  DATA
 0005:00000000 00013c08H _RDATA                  DATA
 0006:00000000 000000f0H .rsrc$01                DATA
 0006:000000f0 00002868H .rsrc$02                DATA

  Address         Publics by Value              Rva+Base               Lib:Object

 0000:00000000       __AbsoluteZero             0000000000000000     <absolute>
 0000:00000000       __arm64x_extra_rfe_table   0000000000000000     <absolute>
 0000:00000000       __arm64x_extra_rfe_table_size 0000000000000000     <absolute>
 0000:00000000       __arm64x_native_entrypoint 0000000000000000     <absolute>
 0000:00000000       __arm64x_redirection_metadata 0000000000000000     <absolute>
 0000:00000000       __arm64x_redirection_metadata_count 0000000000000000     <absolute>
 0000:00000000       __dynamic_value_reloc_table 0000000000000000     <absolute>
 0000:00000000       __enclave_config           0000000000000000     <absolute>
 0000:00000000       __guard_check_icall_a64n_fptr 0000000000000000     <absolute>
 0000:00000000       __guard_eh_cont_count      0000000000000000     <absolute>
 0000:00000000       __guard_eh_cont_table      0000000000000000     <absolute>
 0000:00000000       __guard_fids_count         0000000000000000     <absolute>
 0000:00000000       __guard_fids_table         0000000000000000     <absolute>
 0000:00000000       __guard_iat_count          0000000000000000     <absolute>
 0000:00000000       __guard_iat_table          0000000000000000     <absolute>
 0000:00000000       __guard_longjmp_count      0000000000000000     <absolute>
 0000:00000000       __guard_longjmp_table      0000000000000000     <absolute>
 0000:00000000       __hybrid_auxiliary_delayload_iat 0000000000000000     <absolute>
 0000:00000000       __hybrid_auxiliary_delayload_iat_copy 0000000000000000     <absolute>
 0000:00000000       __hybrid_auxiliary_iat     0000000000000000     <absolute>
 0000:00000000       __hybrid_auxiliary_iat_copy 0000000000000000     <absolute>
 0000:00000000       __hybrid_code_map          0000000000000000     <absolute>
 0000:00000000       __hybrid_code_map_count    0000000000000000     <absolute>
 0000:00000000       __x64_code_ranges_to_entry_points 0000000000000000     <absolute>
 0000:00000000       __x64_code_ranges_to_entry_points_count 0000000000000000     <absolute>
 0000:00000100       __guard_flags              0000000000000100     <absolute>
 0000:00000000       __ImageBase                0000000140000000     <linker-defined>
 0001:00000000       enet_host_create           0000000140001000 f   enet:host.o
 0001:000003d0       enet_host_destroy          00000001400013d0 f   enet:host.o
 0001:00000470       enet_host_connect          0000000140001470 f   enet:host.o
 0001:000006b0       enet_host_broadcast        00000001400016b0 f   enet:host.o
 0001:00000740       enet_host_compress         0000000140001740 f   enet:host.o
 0001:000007c0       enet_host_channel_limit    00000001400017c0 f   enet:host.o
 0001:000007e0       enet_host_bandwidth_limit  00000001400017e0 f   enet:host.o
 0001:000007f0       enet_host_bandwidth_throttle 00000001400017f0 f   enet:host.o
 0001:00000b60       enet_peer_throttle_configure 0000000140001b60 f   enet:peer.o
 0001:00000d40       enet_peer_throttle         0000000140001d40 f   enet:peer.o
 0001:00000dd0       enet_peer_receive          0000000140001dd0 f   enet:peer.o
 0001:00000e50       enet_peer_reset_queues     0000000140001e50 f   enet:peer.o
 0001:00001190       enet_peer_on_connect       0000000140002190 f   enet:peer.o
 0001:000011c0       enet_peer_on_disconnect    00000001400021c0 f   enet:peer.o
 0001:000011f0       enet_peer_reset            00000001400021f0 f   enet:peer.o
 0001:00001400       enet_peer_ping_interval    0000000140002400 f   enet:peer.o
 0001:00001420       enet_peer_timeout          0000000140002420 f   enet:peer.o
 0001:00001460       enet_peer_queue_acknowledgement 0000000140002460 f   enet:peer.o
 0001:00001530       enet_peer_setup_outgoing_command 0000000140002530 f   enet:peer.o
 0001:000016a0       enet_peer_disconnect_later 00000001400026a0 f   enet:peer.o
 0001:000017d0       enet_peer_ping             00000001400027d0 f   enet:peer.o
 0001:00001820       enet_peer_disconnect       0000000140002820 f   enet:peer.o
 0001:000018f0       enet_peer_disconnect_now   00000001400028f0 f   enet:peer.o
 0001:00001b80       enet_peer_send             0000000140002b80 f   enet:peer.o
 0001:00001e80       enet_peer_queue_outgoing_command 0000000140002e80 f   enet:peer.o
 0001:00002090       enet_peer_dispatch_incoming_unreliable_commands 0000000140003090 f   enet:peer.o
 0001:000022e0       enet_peer_dispatch_incoming_reliable_commands 00000001400032e0 f   enet:peer.o
 0001:000023d0       enet_peer_queue_incoming_command 00000001400033d0 f   enet:peer.o
 0001:00002850       enet_initialize            0000000140003850 f   enet:win32.o
 0001:000028d0       enet_deinitialize          00000001400038d0 f   enet:win32.o
 0001:000028f0       enet_host_random_seed      00000001400038f0 f   enet:win32.o
 0001:00002900       enet_time_get              0000000140003900 f   enet:win32.o
 0001:00002920       enet_time_set              0000000140003920 f   enet:win32.o
 0001:00002940       enet_address_set_host      0000000140003940 f   enet:win32.o
 0001:00002990       enet_address_get_host_ip   0000000140003990 f   enet:win32.o
 0001:000029f0       enet_address_get_host      00000001400039f0 f   enet:win32.o
 0001:00002a70       enet_socket_bind           0000000140003a70 f   enet:win32.o
 0001:00002ae0       enet_socket_get_address    0000000140003ae0 f   enet:win32.o
 0001:00002b30       enet_socket_listen         0000000140003b30 f   enet:win32.o
 0001:00002b60       enet_socket_create         0000000140003b60 f   enet:win32.o
 0001:00002b80       enet_socket_set_option     0000000140003b80 f   enet:win32.o
 0001:00002ce0       enet_socket_get_option     0000000140003ce0 f   enet:win32.o
 0001:00002d30       enet_socket_connect        0000000140003d30 f   enet:win32.o
 0001:00002dc0       enet_socket_accept         0000000140003dc0 f   enet:win32.o
 0001:00002e30       enet_socket_shutdown       0000000140003e30 f   enet:win32.o
 0001:00002e50       enet_socket_destroy        0000000140003e50 f   enet:win32.o
 0001:00002e70       enet_socket_send           0000000140003e70 f   enet:win32.o
 0001:00002f50       enet_socket_receive        0000000140003f50 f   enet:win32.o
 0001:00003020       enet_socketset_select      0000000140004020 f   enet:win32.o
 0001:00003070       enet_socket_wait           0000000140004070 f   enet:win32.o
 0001:000041e0       enet_protocol_command_size 00000001400051e0 f   enet:protocol.o
 0001:000041f0       enet_host_flush            00000001400051f0 f   enet:protocol.o
 0001:00004670       enet_host_check_events     0000000140005670 f   enet:protocol.o
 0001:000047e0       enet_host_service          00000001400057e0 f   enet:protocol.o
 0001:00006320       enet_packet_create         0000000140007320 f   enet:packet.o
 0001:000063d0       enet_packet_destroy        00000001400073d0 f   enet:packet.o
 0001:00006420       enet_packet_resize         0000000140007420 f   enet:packet.o
 0001:00006490       enet_crc32                 0000000140007490 f   enet:packet.o
 0001:000066d0       enet_initialize_with_callbacks 00000001400076d0 f   enet:callbacks.o
 0001:00006720       enet_linked_version        0000000140007720 f   enet:callbacks.o
 0001:00006730       enet_malloc                0000000140007730 f   enet:callbacks.o
 0001:00006760       enet_free                  0000000140007760 f   enet:callbacks.o
 0001:00006770       enet_list_clear            0000000140007770 f   enet:list.o
 0001:00006780       enet_list_insert           0000000140007780 f   enet:list.o
 0001:000067a0       enet_list_remove           00000001400077a0 f   enet:list.o
 0001:000067c0       enet_list_move             00000001400077c0 f   enet:list.o
 0001:000067f0       enet_list_size             00000001400077f0 f   enet:list.o
 0001:0001cf90       ?gentex@BlendBrush@@QEAAXXZ 000000014001df90 f i blend.obj
 0001:0001d1d0       ??1ImageData@@QEAA@XZ      000000014001e1d0 f i blend.obj
 0001:0001d220       ??0ImageData@@QEAA@XZ      000000014001e220 f i blend.obj
 0001:0001d240       ?newstring@@YAPEADPEBD@Z   000000014001e240 f i blend.obj
 0001:0001d2b0       ?create_ent@cubeloader@@QEAAXAEAUc_persistent_entity@1@@Z 000000014001e2b0 f i cubeloader.obj
 0001:0001d4e0       ?preprocess_cubes@cubeloader@@QEAAXXZ 000000014001e4e0 f i cubeloader.obj
 0001:0001d600       ?boundingbox@cubeloader@@QEAAXXZ 000000014001e600 f i cubeloader.obj
 0001:0001d7b0       ?create_cubes@cubeloader@@QEAAXXZ 000000014001e7b0 f i cubeloader.obj
 0001:0001de60       ?load_cube_world@cubeloader@@QEAAXPEAD@Z 000000014001ee60 f i cubeloader.obj
 0001:0001e4a0       ?add@?$vector@PEAD@@QEAAAEAPEADAEBQEAD@Z 000000014001f4a0 f i server.obj
 0001:0001e4a0       ?add@?$vector@PEAUclientinfo@server@@@@QEAAAEAPEAUclientinfo@server@@AEBQEAU23@@Z 000000014001f4a0 f i server1.obj
 0001:0001e4a0       ?add@?$vector@PEAUextentity@@@@QEAAAEAPEAUextentity@@AEBQEAU2@@Z 000000014001f4a0 f i cubeloader.obj
 0001:0001e4a0       ?add@?$vector@PEAUfpsent@@@@QEAAAEAPEAUfpsent@@AEBQEAU2@@Z 000000014001f4a0 f i ai.obj
 0001:0001e4a0       ?add@?$vector@PEAUident@@@@QEAAAEAPEAUident@@AEBQEAU2@@Z 000000014001f4a0 f i command.obj
 0001:0001e4a0       ?add@?$vector@PEAUmaterialsurface@@@@QEAAAEAPEAUmaterialsurface@@AEBQEAU2@@Z 000000014001f4a0 f i pvs.obj
 0001:0001e4a0       ?add@?$vector@PEAUmesh@animmodel@@@@QEAAAEAPEAUmesh@animmodel@@AEBQEAU23@@Z 000000014001f4a0 f i rendermodel.obj
 0001:0001e4a0       ?add@?$vector@PEAUpart@animmodel@@@@QEAAAEAPEAUpart@animmodel@@AEBQEAU23@@Z 000000014001f4a0 f i rendermodel.obj
 0001:0001e4a0       ?add@?$vector@PEAUphysent@@@@QEAAAEAPEAUphysent@@AEBQEAU2@@Z 000000014001f4a0 f i physics.obj
 0001:0001e4a0       ?add@?$vector@PEAUskelmeshgroup@skelmodel@@@@QEAAAEAPEAUskelmeshgroup@skelmodel@@AEBQEAU23@@Z 000000014001f4a0 f i rendermodel.obj
 0001:0001e4a0       ?add@?$vector@PEAUvtxarray@@@@QEAAAEAPEAUvtxarray@@AEBQEAU2@@Z 000000014001f4a0 f i octarender.obj
 0001:0001e4a0       ?add@?$vector@PEBD@@QEAAAEAPEBDAEBQEBD@Z 000000014001f4a0 f i serverbrowser.obj
 0001:0001e590       ??$formatstring@$0BAE@@@YAXAEAY0BAE@DPEBDZZ 000000014001f590 f i cubeloader.obj
 0001:0001e5f0       __local_stdio_printf_options 000000014001f5f0 f i cubeloader.obj
 0001:0001e600       _vsnprintf                 000000014001f600 f i cubeloader.obj
 0001:0001e670       ?vformatstring@@YAXPEADPEBD0H@Z 000000014001f670 f i cubeloader.obj
 0001:0001e6e0       ??0<unnamed-type-waterplanes>@@QEAA@XZ 000000014001f6e0 f i pvs.obj
 0001:0001e6e0       ??0lightcacheentry@@QEAA@XZ 000000014001f6e0 f i lightmap.obj
 0001:0001e700       ??1<unnamed-type-waterplanes>@@QEAA@XZ 000000014001f700 f i pvs.obj
 0001:0001e700       ??1lightcacheentry@@QEAA@XZ 000000014001f700 f i lightmap.obj
 0001:0001e730       ?add@?$vector@ULightMapTexture@@@@QEAAAEAULightMapTexture@@XZ 000000014001f730 f i lightmap.obj
 0001:0001e840       ?clear@?$hashbase@U?$hashset@Ulayoutinfo@@@@Ulayoutinfo@@U2@U2@@@QEAAXXZ 000000014001f840 f i lightmap.obj
 0001:0001e8c0       ??1?$hashbase@U?$hashnameset@PEAUmeshgroup@animmodel@@@@PEAUmeshgroup@animmodel@@PEBDPEAU23@@@QEAA@XZ 000000014001f8c0 f i rendermodel.obj
 0001:0001e8c0       ??1?$hashbase@U?$hashnameset@PEAUmodel@@@@PEAUmodel@@PEBDPEAU2@@@QEAA@XZ 000000014001f8c0 f i rendermodel.obj
 0001:0001e8c0       ??1?$hashbase@U?$hashnameset@PEAUskeleton@skelmodel@@@@PEAUskeleton@skelmodel@@PEBDPEAU23@@@QEAA@XZ 000000014001f8c0 f i rendermodel.obj
 0001:0001e8c0       ??1?$hashbase@U?$hashset@H@@HHH@@QEAA@XZ 000000014001f8c0 f i rendermodel.obj
 0001:0001e8c0       ??1?$hashbase@U?$hashset@PEBD@@PEBDPEBDPEBD@@QEAA@XZ 000000014001f8c0 f i rendergl.obj
 0001:0001e8c0       ??1?$hashbase@U?$hashset@Ulayoutinfo@@@@Ulayoutinfo@@U2@U2@@@QEAA@XZ 000000014001f8c0 f i lightmap.obj
 0001:0001e8c0       ??1?$hashbase@U?$hashtable@IH@@U?$hashtableentry@IH@@IH@@QEAA@XZ 000000014001f8c0 f i rendermodel.obj
 0001:0001e8c0       ??1?$hashbase@U?$hashtable@IUvboinfo@@@@U?$hashtableentry@IUvboinfo@@@@IUvboinfo@@@@QEAA@XZ 000000014001f8c0 f i octarender.obj
 0001:0001e920       ?add@?$vector@ULightMap@@@@QEAAAEAULightMap@@XZ 000000014001f920 f i lightmap.obj
 0001:0001ea70       ??1?$vector@UAttribLoc@@@@QEAA@XZ 000000014001fa70 f i shader.obj
 0001:0001ea70       ??1?$vector@UGlobalShaderParamUse@@@@QEAA@XZ 000000014001fa70 f i shader.obj
 0001:0001ea70       ??1?$vector@ULocalShaderParamState@@@@QEAA@XZ 000000014001fa70 f i shader.obj
 0001:0001ea70       ??1?$vector@USlotShaderParam@@@@QEAA@XZ 000000014001fa70 f i octaedit.obj
 0001:0001ea70       ??1?$vector@USlotShaderParamState@@@@QEAA@XZ 000000014001fa70 f i shader.obj
 0001:0001ea70       ??1?$vector@UTex@Slot@@@@QEAA@XZ 000000014001fa70 f i texture.obj
 0001:0001ea70       ??1?$vector@UUniformLoc@@@@QEAA@XZ 000000014001fa70 f i shader.obj
 0001:0001ea70       ??1?$vector@Uaistate@ai@@@@QEAA@XZ 000000014001fa70 f i ai.obj
 0001:0001ea70       ??1?$vector@Uanimspec@animmodel@@@@QEAA@XZ 000000014001fa70 f i rendermodel.obj
 0001:0001ea70       ??1?$vector@Uantipode@skelmodel@@@@QEAA@XZ 000000014001fa70 f i rendermodel.obj
 0001:0001ea70       ??1?$vector@Uaviindexentry@@@@QEAA@XZ 000000014001fa70 f i movie.obj
 0001:0001ea70       ??1?$vector@Uavisegmentinfo@@@@QEAA@XZ 000000014001fa70 f i movie.obj
 0001:0001ea70       ??1?$vector@Ubase@collectclientmode@game@@@@QEAA@XZ 000000014001fa70 f i client1.obj
 0001:0001ea70       ??1?$vector@Ubase@collectservmode@server@@@@QEAA@XZ 000000014001fa70 f i server1.obj
 0001:0001ea70       ??1?$vector@Ubaseinfo@captureclientmode@game@@@@QEAA@XZ 000000014001fa70 f i client1.obj
 0001:0001ea70       ??1?$vector@Ubaseinfo@captureservmode@server@@@@QEAA@XZ 000000014001fa70 f i server1.obj
 0001:0001ea70       ??1?$vector@Ubatchedmodel@@@@QEAA@XZ 000000014001fa70 f i rendermodel.obj
 0001:0001ea70       ??1?$vector@Ublendcombo@skelmodel@@@@QEAA@XZ 000000014001fa70 f i rendermodel.obj
 0001:0001ea70       ??1?$vector@Ucharinfo@font@@@@QEAA@XZ 000000014001fa70 f i rendertext.obj
 0001:0001ea70       ??1?$vector@Ucrcinfo@server@@@@QEAA@XZ 000000014001fa70 f i server1.obj
 0001:0001ea70       ??1?$vector@Udistlimit@ragdollskel@@@@QEAA@XZ 000000014001fa70 f i rendermodel.obj
 0001:0001ea70       ??1?$vector@Udualquat@@@@QEAA@XZ 000000014001fa70 f i rendermodel.obj
 0001:0001ea70       ??1?$vector@Ueditline@@@@QEAA@XZ 000000014001fa70 f i 3dgui.obj
 0001:0001ea70       ??1?$vector@Ufacebounds@@@@QEAA@XZ 000000014001fa70 f i octarender.obj
 0001:0001ea70       ??1?$vector@Uflag@ctfclientmode@game@@@@QEAA@XZ 000000014001fa70 f i client1.obj
 0001:0001ea70       ??1?$vector@Uflag@ctfservmode@server@@@@QEAA@XZ 000000014001fa70 f i server1.obj
 0001:0001ea70       ??1?$vector@Ugrasstri@@@@QEAA@XZ 000000014001fa70 f i octarender.obj
 0001:0001ea70       ??1?$vector@Uhitinfo@server@@@@QEAA@XZ 000000014001fa70 f i server1.obj
 0001:0001ea70       ??1?$vector@Uholdspawn@ctfclientmode@game@@@@QEAA@XZ 000000014001fa70 f i client1.obj
 0001:0001ea70       ??1?$vector@Uholdspawn@ctfservmode@server@@@@QEAA@XZ 000000014001fa70 f i server1.obj
 0001:0001ea70       ??1?$vector@Uipmask@@@@QEAA@XZ 000000014001fa70 f i server1.obj
 0001:0001ea70       ??1?$vector@Uivec2@@@@QEAA@XZ 000000014001fa70 f i worldio.obj
 0001:0001ea70       ??1?$vector@Ujoint@ragdollskel@@@@QEAA@XZ 000000014001fa70 f i rendermodel.obj
 0001:0001ea70       ??1?$vector@Ulightmaptask@@@@QEAA@XZ 000000014001fa70 f i lightmap.obj
 0001:0001ea70       ??1?$vector@Ulinkedpart@animmodel@@@@QEAA@XZ 000000014001fa70 f i rendermodel.obj
 0001:0001ea70       ??1?$vector@Umaterialsurface@@@@QEAA@XZ 000000014001fa70 f i octarender.obj
 0001:0001ea70       ??1?$vector@Umd5hierarchy@@@@QEAA@XZ 000000014001fa70 f i rendermodel.obj
 0001:0001ea70       ??1?$vector@Umd5joint@@@@QEAA@XZ 000000014001fa70 f i rendermodel.obj
 0001:0001ea70       ??1?$vector@Umergedface@@@@QEAA@XZ 000000014001fa70 f i octarender.obj
 0001:0001ea70       ??1?$vector@Umesh@BIH@@@@QEAA@XZ 000000014001fa70 f i rendermodel.obj
 0001:0001ea70       ??1?$vector@Unode@wpcache@ai@@@@QEAA@XZ 000000014001fa70 f i waypoint.obj
 0001:0001ea70       ??1?$vector@Uobstacle@avoidset@ai@@@@QEAA@XZ 000000014001fa70 f i ai.obj
 0001:0001ea70       ??1?$vector@Upitchcorrect@skelmodel@@@@QEAA@XZ 000000014001fa70 f i rendermodel.obj
 0001:0001ea70       ??1?$vector@Upitchdep@skelmodel@@@@QEAA@XZ 000000014001fa70 f i rendermodel.obj
 0001:0001ea70       ??1?$vector@Upitchtarget@skelmodel@@@@QEAA@XZ 000000014001fa70 f i rendermodel.obj
 0001:0001ea70       ??1?$vector@Upoly@@@@QEAA@XZ 000000014001fa70 f i octa.obj
 0001:0001ea70       ??1?$vector@Ureljoint@ragdollskel@@@@QEAA@XZ 000000014001fa70 f i rendermodel.obj
 0001:0001ea70       ??1?$vector@Urotfriction@ragdollskel@@@@QEAA@XZ 000000014001fa70 f i rendermodel.obj
 0001:0001ea70       ??1?$vector@Urotlimit@ragdollskel@@@@QEAA@XZ 000000014001fa70 f i rendermodel.obj
 0001:0001ea70       ??1?$vector@Uscore@captureclientmode@game@@@@QEAA@XZ 000000014001fa70 f i client1.obj
 0001:0001ea70       ??1?$vector@Uscore@captureservmode@server@@@@QEAA@XZ 000000014001fa70 f i server1.obj
 0001:0001ea70       ??1?$vector@Uskelcacheentry@skelmodel@@@@QEAA@XZ 000000014001fa70 f i rendermodel.obj
 0001:0001ea70       ??1?$vector@Uskin@animmodel@@@@QEAA@XZ 000000014001fa70 f i rendermodel.obj
 0001:0001ea70       ??1?$vector@Usmdbone@@@@QEAA@XZ 000000014001fa70 f i rendermodel.obj
 0001:0001ea70       ??1?$vector@Usortitem@@@@QEAA@XZ 000000014001fa70 f i command.obj
 0001:0001ea70       ??1?$vector@Usortkey@@@@QEAA@XZ 000000014001fa70 f i octarender.obj
 0001:0001ea70       ??1?$vector@Usoundconfig@@@@QEAA@XZ 000000014001fa70 f i sound.obj
 0001:0001ea70       ??1?$vector@Usoundslot@@@@QEAA@XZ 000000014001fa70 f i sound.obj
 0001:0001ea70       ??1?$vector@Utcvert@vertmodel@@@@QEAA@XZ 000000014001fa70 f i rendermodel.obj
 0001:0001ea70       ??1?$vector@Uteamscore@@@@QEAA@XZ 000000014001fa70 f i scoreboard.obj
 0001:0001ea70       ??1?$vector@Utoken@collectclientmode@game@@@@QEAA@XZ 000000014001fa70 f i client1.obj
 0001:0001ea70       ??1?$vector@Utoken@collectservmode@server@@@@QEAA@XZ 000000014001fa70 f i server1.obj
 0001:0001ea70       ??1?$vector@Utransparentmodel@@@@QEAA@XZ 000000014001fa70 f i rendermodel.obj
 0001:0001ea70       ??1?$vector@Utri@ragdollskel@@@@QEAA@XZ 000000014001fa70 f i rendermodel.obj
 0001:0001ea70       ??1?$vector@Utri@skelmodel@@@@QEAA@XZ 000000014001fa70 f i rendermodel.obj
 0001:0001ea70       ??1?$vector@Utri@vertmodel@@@@QEAA@XZ 000000014001fa70 f i rendermodel.obj
 0001:0001ea70       ??1?$vector@Uufval@unionfind@@@@QEAA@XZ 000000014001fa70 f i material.obj
 0001:0001ea70       ??1?$vector@Uvec2@@@@QEAA@XZ 000000014001fa70 f i worldio.obj
 0001:0001ea70       ??1?$vector@Uvec@@@@QEAA@XZ 000000014001fa70 f i worldio.obj
 0001:0001ea70       ??1?$vector@Uvert@ragdollskel@@@@QEAA@XZ 000000014001fa70 f i rendermodel.obj
 0001:0001ea70       ??1?$vector@Uvert@skelmodel@@@@QEAA@XZ 000000014001fa70 f i rendermodel.obj
 0001:0001ea70       ??1?$vector@Uvert@vertmodel@@@@QEAA@XZ 000000014001fa70 f i rendermodel.obj
 0001:0001ea70       ??1?$vector@Uvertex@@@@QEAA@XZ 000000014001fa70 f i octarender.obj
 0001:0001ea70       ??1?$vector@Uvertex@prefabmesh@@@@QEAA@XZ 000000014001fa70 f i octaedit.obj
 0001:0001ea70       ??1?$vector@Uvotecount@server@@@@QEAA@XZ 000000014001fa70 f i server1.obj
 0001:0001ea70       ??1?$vector@Uvvertbump@skelmodel@@@@QEAA@XZ 000000014001fa70 f i rendermodel.obj
 0001:0001ea70       ??1?$vector@Uvvertbump@vertmodel@@@@QEAA@XZ 000000014001fa70 f i rendermodel.obj
 0001:0001ea70       ??1?$vector@Uvvertbumpw@skelmodel@@@@QEAA@XZ 000000014001fa70 f i rendermodel.obj
 0001:0001ea70       ??1?$vector@Uvvertn@skelmodel@@@@QEAA@XZ 000000014001fa70 f i rendermodel.obj
 0001:0001ea70       ??1?$vector@Uvvertn@vertmodel@@@@QEAA@XZ 000000014001fa70 f i rendermodel.obj
 0001:0001ea70       ??1?$vector@Uvvertnw@skelmodel@@@@QEAA@XZ 000000014001fa70 f i rendermodel.obj
 0001:0001ea70       ??1?$vector@Uwaterinfo@@@@QEAA@XZ 000000014001fa70 f i material.obj
 0001:0001eaa0       ??0?$vector@D@@QEAA@XZ     000000014001faa0 f i worldio.obj
 0001:0001eaa0       ??0?$vector@E@@QEAA@XZ     000000014001faa0 f i octaedit.obj
 0001:0001eaa0       ??0?$vector@G@@QEAA@XZ     000000014001faa0 f i octaedit.obj
 0001:0001eaa0       ??0?$vector@PEAD@@QEAA@XZ  000000014001faa0 f i server.obj
 0001:0001eaa0       ??0?$vector@PEAUclientinfo@server@@@@QEAA@XZ 000000014001faa0 f i server1.obj
 0001:0001eaa0       ??0?$vector@PEAUvtxarray@@@@QEAA@XZ 000000014001faa0 f i octarender.obj
 0001:0001eaa0       ??0?$vector@Uanimspec@animmodel@@@@QEAA@XZ 000000014001faa0 f i rendermodel.obj
 0001:0001eaa0       ??0?$vector@Ufacebounds@@@@QEAA@XZ 000000014001faa0 f i octarender.obj
 0001:0001eaa0       ??0?$vector@Ulightmaptask@@@@QEAA@XZ 000000014001faa0 f i lightmap.obj
 0001:0001eaa0       ??0?$vector@Umergedface@@@@QEAA@XZ 000000014001faa0 f i octarender.obj
 0001:0001eaa0       ??0?$vector@Uvec@@@@QEAA@XZ 000000014001faa0 f i worldio.obj
 0001:0001eab0       ?add@?$vector@PEAUlightmapworker@@@@QEAAAEAPEAUlightmapworker@@AEBQEAU2@@Z 000000014001fab0 f i lightmap.obj
 0001:0001ebc0       ??1?$vector@D@@QEAA@XZ     000000014001fbc0 f i worldio.obj
 0001:0001ebc0       ??1?$vector@E@@QEAA@XZ     000000014001fbc0 f i octaedit.obj
 0001:0001ebc0       ??1?$vector@G@@QEAA@XZ     000000014001fbc0 f i octaedit.obj
 0001:0001ebc0       ??1?$vector@H@@QEAA@XZ     000000014001fbc0 f i lightmap.obj
 0001:0001ebc0       ??1?$vector@I@@QEAA@XZ     000000014001fbc0 f i command.obj
 0001:0001ebc0       ??1?$vector@PEAD@@QEAA@XZ  000000014001fbc0 f i server.obj
 0001:0001ebc0       ??1?$vector@PEAUShader@@@@QEAA@XZ 000000014001fbc0 f i shader.obj
 0001:0001ebc0       ??1?$vector@PEAUTexture@@@@QEAA@XZ 000000014001fbc0 f i rendertext.obj
 0001:0001ebc0       ??1?$vector@PEAUclientinfo@server@@@@QEAA@XZ 000000014001fbc0 f i server1.obj
 0001:0001ebc0       ??1?$vector@PEAUextentity@@@@QEAA@XZ 000000014001fbc0 f i entities.obj
 0001:0001ebc0       ??1?$vector@PEAUfpsent@@@@QEAA@XZ 000000014001fbc0 f i ai.obj
 0001:0001ebc0       ??1?$vector@PEAUgameevent@server@@@@QEAA@XZ 000000014001fbc0 f i server1.obj
 0001:0001ebc0       ??1?$vector@PEAUident@@@@QEAA@XZ 000000014001fbc0 f i command.obj
 0001:0001ebc0       ??1?$vector@PEAUkeym@@@@QEAA@XZ 000000014001fbc0 f i console.obj
 0001:0001ebc0       ??1?$vector@PEAUmaterialsurface@@@@QEAA@XZ 000000014001fbc0 f i pvs.obj
 0001:0001ebc0       ??1?$vector@PEAUmesh@animmodel@@@@QEAA@XZ 000000014001fbc0 f i rendermodel.obj
 0001:0001ebc0       ??1?$vector@PEAUoctaentities@@@@QEAA@XZ 000000014001fbc0 f i octarender.obj
 0001:0001ebc0       ??1?$vector@PEAUpart@animmodel@@@@QEAA@XZ 000000014001fbc0 f i rendermodel.obj
 0001:0001ebc0       ??1?$vector@PEAUphysent@@@@QEAA@XZ 000000014001fbc0 f i physics.obj
 0001:0001ebc0       ??1?$vector@PEAUplink@@@@QEAA@XZ 000000014001fbc0 f i octa.obj
 0001:0001ebc0       ??1?$vector@PEAUskelmeshgroup@skelmodel@@@@QEAA@XZ 000000014001fbc0 f i rendermodel.obj
 0001:0001ebc0       ??1?$vector@PEAUvtxarray@@@@QEAA@XZ 000000014001fbc0 f i octarender.obj
 0001:0001ebc0       ??1?$vector@PEBUextentity@@@@QEAA@XZ 000000014001fbc0 f i lightmap.obj
 0001:0001ebe0       ?growbuf@?$vector@Ulightmaptask@@@@QEAAXH@Z 000000014001fbe0 f i lightmap.obj
 0001:0001ec90       ?growbuf@?$vector@H@@QEAAXH@Z 000000014001fc90 f i lightmap.obj
 0001:0001ec90       ?growbuf@?$vector@I@@QEAAXH@Z 000000014001fc90 f i command.obj
 0001:0001ed40       ??$access@Ulightmapinfo@@@?$hashbase@U?$hashset@Ulayoutinfo@@@@Ulayoutinfo@@U2@U2@@@QEAAPEAUlayoutinfo@@AEBUlightmapinfo@@@Z 000000014001fd40 f i lightmap.obj
 0001:0001ef70       ??$?AUlightmapinfo@@@?$hashbase@U?$hashset@Ulayoutinfo@@@@Ulayoutinfo@@U2@U2@@@QEAAAEAUlayoutinfo@@AEBUlightmapinfo@@@Z 000000014001ff70 f i lightmap.obj
 0001:0001f1c0       ?insert@?$hashbase@U?$hashset@Ulayoutinfo@@@@Ulayoutinfo@@U2@U2@@@QEAAPEAUchain@1@I@Z 00000001400201c0 f i lightmap.obj
 0001:0001f360       ?calcsize@ImageData@@QEBAHXZ 0000000140020360 f i lightmap.obj
 0001:0001f410       ?boundbox@model@@QEAAXAEAUvec@@0@Z 0000000140020410 f i lightmap.obj
 0001:0001f4c0       ?above@model@@QEAAMXZ      00000001400204c0 f i lightmap.obj
 0001:0001f530       ?toplane@plane@@QEAA_NAEBUvec@@00@Z 0000000140020530 f i lightmap.obj
 0001:0001f680       ??1PackNode@@QEAA@XZ       0000000140020680 f i lightmap.obj
 0001:0001f690       ?clear@PackNode@@QEAAXXZ   0000000140020690 f i lightmap.obj
 0001:0001f700       ??1?$hashbase@U?$hashset@Unormalgroup@@@@Unormalgroup@@U2@U2@@@QEAA@XZ 0000000140020700 f i normal.obj
 0001:0001f760       ??$access@Uvec@@U1@@?$hashbase@U?$hashset@Unormalgroup@@@@Unormalgroup@@U2@U2@@@QEAAAEAUnormalgroup@@AEBUvec@@0@Z 0000000140020760 f i normal.obj
 0001:0001f820       ??$access@Uvec@@@?$hashbase@U?$hashset@Unormalgroup@@@@Unormalgroup@@U2@U2@@@QEAAPEAUnormalgroup@@AEBUvec@@@Z 0000000140020820 f i normal.obj
 0001:0001f890       ?insert@?$hashbase@U?$hashset@Unormalgroup@@@@Unormalgroup@@U2@U2@@@QEAAPEAUchain@1@I@Z 0000000140020890 f i normal.obj
 0001:0001fa40       ??0chainchunk@?$hashbase@U?$hashset@Unormalgroup@@@@Unormalgroup@@U2@U2@@@QEAA@XZ 0000000140020a40 f i normal.obj
 0001:0001fe70       ?cross@vec@@QEAAAEAU1@AEBU1@00@Z 0000000140020e70 f i normal.obj
 0001:0001ff20       ??1?$hashset@Uplink@@@@QEAA@XZ 0000000140020f20 f i octa.obj
 0001:0001ff20       ??1?$hashtable@Uivec@@H@@QEAA@XZ 0000000140020f20 f i rendermodel.obj
 0001:0001ff20       ??1?$hashtable@Uvec2@@H@@QEAA@XZ 0000000140020f20 f i worldio.obj
 0001:0001ff20       ??1?$hashtable@Uvec@@H@@QEAA@XZ 0000000140020f20 f i worldio.obj
 0001:0001ff80       ??1?$hashbase@U?$hashtable@Ucfkey@@Ucfpolys@@@@U?$hashtableentry@Ucfkey@@Ucfpolys@@@@Ucfkey@@Ucfpolys@@@@QEAA@XZ 0000000140020f80 f i octa.obj
 0001:0001ffb0       ??1?$hashbase@U?$hashset@Uplink@@@@Uplink@@U2@U2@@@QEAA@XZ 0000000140020fb0 f i octa.obj
 0001:0001ffb0       ??1?$hashbase@U?$hashset@Uteaminfo@@@@Uteaminfo@@U2@U2@@@QEAA@XZ 0000000140020fb0 f i scoreboard.obj
 0001:0001ffb0       ??1?$hashbase@U?$hashtable@PEADPEAUfilesval@@@@U?$hashtableentry@PEADPEAUfilesval@@@@PEADPEAUfilesval@@@@QEAA@XZ 0000000140020fb0 f i console.obj
 0001:0001ffb0       ??1?$hashbase@U?$hashtable@PEBDH@@U?$hashtableentry@PEBDH@@PEBDH@@QEAA@XZ 0000000140020fb0 f i shader.obj
 0001:0001ffb0       ??1?$hashbase@U?$hashtable@Uivec@@H@@U?$hashtableentry@Uivec@@H@@Uivec@@H@@QEAA@XZ 0000000140020fb0 f i rendermodel.obj
 0001:0001ffb0       ??1?$hashbase@U?$hashtable@Upvsdata@@H@@U?$hashtableentry@Upvsdata@@H@@Upvsdata@@H@@QEAA@XZ 0000000140020fb0 f i pvs.obj
 0001:0001ffb0       ??1?$hashbase@U?$hashtable@Uvec2@@H@@U?$hashtableentry@Uvec2@@H@@Uvec2@@H@@QEAA@XZ 0000000140020fb0 f i worldio.obj
 0001:0001ffb0       ??1?$hashbase@U?$hashtable@Uvec@@H@@U?$hashtableentry@Uvec@@H@@Uvec@@H@@QEAA@XZ 0000000140020fb0 f i worldio.obj
 0001:00020010       ?deletechunks@?$hashbase@U?$hashtable@Ucfkey@@Ucfpolys@@@@U?$hashtableentry@Ucfkey@@Ucfpolys@@@@Ucfkey@@Ucfpolys@@@@QEAAXXZ 0000000140021010 f i octa.obj
 0001:00020080       ?growbuf@?$vector@PEAUTexture@@@@QEAAXH@Z 0000000140021080 f i rendertext.obj
 0001:00020080       ?growbuf@?$vector@PEAUoctaentities@@@@QEAAXH@Z 0000000140021080 f i octarender.obj
 0001:00020080       ?growbuf@?$vector@PEAUplink@@@@QEAAXH@Z 0000000140021080 f i octa.obj
 0001:00020130       ??1chain@?$hashbase@U?$hashtable@Ucfkey@@Ucfpolys@@@@U?$hashtableentry@Ucfkey@@Ucfpolys@@@@Ucfkey@@Ucfpolys@@@@QEAA@XZ 0000000140021130 f i octa.obj
 0001:00020170       ??1?$hashtableentry@Ucfkey@@Ucfpolys@@@@QEAA@XZ 0000000140021170 f i octa.obj
 0001:000201b0       ??1cfpolys@@QEAA@XZ        00000001400211b0 f i octa.obj
 0001:000201b0       ??1unionfind@@QEAA@XZ      00000001400211b0 f i material.obj
 0001:000201b0       ??1wpcache@ai@@QEAA@XZ     00000001400211b0 f i waypoint.obj
 0001:000201e0       ?insert@?$hashbase@U?$hashtable@Ucfkey@@Ucfpolys@@@@U?$hashtableentry@Ucfkey@@Ucfpolys@@@@Ucfkey@@Ucfpolys@@@@QEAAPEAUchain@1@I@Z 00000001400211e0 f i octa.obj
 0001:00020550       ?insert@?$hashbase@U?$hashset@Uplink@@@@Uplink@@U2@U2@@@QEAAPEAUchain@1@I@Z 0000000140021550 f i octa.obj
 0001:00020890       ??0chainchunk@?$hashbase@U?$hashset@Uplink@@@@Uplink@@U2@U2@@@QEAA@XZ 0000000140021890 f i octa.obj
 0001:00020b50       ??0chain@?$hashbase@U?$hashtable@Ucfkey@@Ucfpolys@@@@U?$hashtableentry@Ucfkey@@Ucfpolys@@@@Ucfkey@@Ucfpolys@@@@QEAA@XZ 0000000140021b50 f i octa.obj
 0001:00020b70       ??1prefab@@QEAA@XZ         0000000140021b70 f i octaedit.obj
 0001:00020bb0       ?cleanup@prefab@@QEAAXXZ   0000000140021bb0 f i octaedit.obj
 0001:00020c20       ?addvert@prefabmesh@@QEAAHAEBUvertex@1@@Z 0000000140021c20 f i octaedit.obj
 0001:00020de0       ??1prefabmesh@@QEAA@XZ     0000000140021de0 f i octaedit.obj
 0001:00020e60       ??0vslotref@@QEAA@AEAH@Z   0000000140021e60 f i octaedit.obj
 0001:00020f70       ??1vslotref@@QEAA@XZ       0000000140021f70 f i octaedit.obj
 0001:00020f80       ?gui@texturegui@@UEAAXAEAUg3d_gui@@_N@Z 0000000140021f80 f i octaedit.obj
 0001:00021270       ??_Escoreboardgui@game@@UEAAPEAXI@Z 0000000140022270 f i * CIL library *:* CIL module *
 0001:00021270       ??_Etexturegui@@UEAAPEAXI@Z 0000000140022270 f i * CIL library *:* CIL module *
 0001:00021270       ??_Gscoreboardgui@game@@UEAAPEAXI@Z 0000000140022270 f i scoreboard.obj
 0001:00021270       ??_Gtexturegui@@UEAAPEAXI@Z 0000000140022270 f i octaedit.obj
 0001:000212a0       ??1?$hashbase@U?$hashnameset@Uprefab@@@@Uprefab@@PEBDU2@@@QEAA@XZ 00000001400222a0 f i octaedit.obj
 0001:00021320       ?add@?$vector@Uvslotmap@@@@QEAAAEAUvslotmap@@AEBU2@@Z 0000000140022320 f i octaedit.obj
 0001:00021410       ?add@?$vector@G@@QEAAAEAGAEBG@Z 0000000140022410 f i octaedit.obj
 0001:00021500       ?add@?$vector@PEAUeditinfo@@@@QEAAAEAPEAUeditinfo@@AEBQEAU2@@Z 0000000140022500 f i octaedit.obj
 0001:00021600       ?growbuf@?$vector@USlotShaderParam@@@@QEAAXH@Z 0000000140022600 f i octaedit.obj
 0001:00021600       ?growbuf@?$vector@Umergedface@@@@QEAAXH@Z 0000000140022600 f i octarender.obj
 0001:000216b0       ?growbuf@?$vector@D@@QEAAXH@Z 00000001400226b0 f i worldio.obj
 0001:000216b0       ?growbuf@?$vector@E@@QEAAXH@Z 00000001400226b0 f i octaedit.obj
 0001:00021750       ??1chain@?$hashbase@U?$hashnameset@Uprefab@@@@Uprefab@@PEBDU2@@@QEAA@XZ 0000000140022750 f i octaedit.obj
 0001:00021790       ??$access@PEAD@?$hashbase@U?$hashnameset@Uprefab@@@@Uprefab@@PEBDU2@@@QEAAPEAUprefab@@AEBQEAD@Z 0000000140022790 f i octaedit.obj
 0001:00021820       ?get@?$databuf@E@@QEAAHPEAEH@Z 0000000140022820 f i octaedit.obj
 0001:00021870       ?insert@?$hashbase@U?$hashnameset@Uprefab@@@@Uprefab@@PEBDU2@@@QEAAPEAUchain@1@I@Z 0000000140022870 f i octaedit.obj
 0001:00021bf0       ??0chain@?$hashbase@U?$hashnameset@Uprefab@@@@Uprefab@@PEBDU2@@@QEAA@XZ 0000000140022bf0 f i octaedit.obj
 0001:00021c10       ??_Eg3d_callback@@UEAAPEAXI@Z 0000000140022c10 f i * CIL library *:* CIL module *
 0001:00021c10       ??_Gg3d_callback@@UEAAPEAXI@Z 0000000140022c10 f i octaedit.obj
 0001:00021c40       ??1g3d_callback@@UEAA@XZ   0000000140022c40 f i octaedit.obj
 0001:00021c50       ?resolve@GlobalShaderParam@@QEAAPEAUGlobalShaderParamState@@XZ 0000000140022c50 f i octaedit.obj
 0001:00021f20       ??$mult@Uvec4@@@matrix4@@QEAAXAEBU0@0@Z 0000000140022f20 f i octaedit.obj
 0001:00022440       ?translate@matrix4@@QEAAXAEBUvec@@@Z 0000000140023440 f i octaedit.obj
 0001:00022560       ?rotate_around_y@matrix4@@QEAAXM@Z 0000000140023560 f i octaedit.obj
 0001:000226d0       ?rotate_around_x@matrix4@@QEAAXM@Z 00000001400236d0 f i octaedit.obj
 0001:00022840       ?rotate_around_z@matrix4@@QEAAXM@Z 0000000140023840 f i octaedit.obj
 0001:000229b0       ??1VSlot@@QEAA@XZ          00000001400239b0 f i octaedit.obj
 0001:000229e0       ?reset@VSlot@@QEAAXXZ      00000001400239e0 f i octaedit.obj
 0001:00022a50       ??0VSlot@@QEAA@PEAUSlot@@H@Z 0000000140023a50 f i octaedit.obj
 0001:00022b20       ?set_@Shader@@QEAAXXZ      0000000140023b20 f i octaedit.obj
 0001:00022b60       ?flushparams@Shader@@QEAAXPEAUSlot@@@Z 0000000140023b60 f i octaedit.obj
 0001:00022d70       ?addvert@verthash@@QEAAHAEBUvertex@@@Z 0000000140023d70 f i octarender.obj
 0001:00022f80       ?remapunlit@vacollect@@QEAAXAEAU?$vector@Usortkey@@@@@Z 0000000140023f80 f i octarender.obj
 0001:00023b10       ?optimize@vacollect@@QEAAXXZ 0000000140024b10 f i octarender.obj
 0001:00024110       ?texsort@vacollect@@SA_NAEBUsortkey@@0@Z 0000000140025110 f i octarender.obj
 0001:00024230       ?setupdata@vacollect@@QEAAXPEAUvtxarray@@@Z 0000000140025230 f i octarender.obj
 0001:00024a20       ??1vacollect@@QEAA@XZ      0000000140025a20 f i octarender.obj
 0001:00024b90       ??1verthash@@QEAA@XZ       0000000140025b90 f i octarender.obj
 0001:00024bf0       ??1?$hashtable@Usortkey@@Usortval@@@@QEAA@XZ 0000000140025bf0 f i octarender.obj
 0001:00024c20       ??1?$hashbase@U?$hashtable@Uedgegroup@@H@@U?$hashtableentry@Uedgegroup@@H@@Uedgegroup@@H@@QEAA@XZ 0000000140025c20 f i octarender.obj
 0001:00024c20       ??1?$hashbase@U?$hashtable@Ufileskey@@PEAUfilesval@@@@U?$hashtableentry@Ufileskey@@PEAUfilesval@@@@Ufileskey@@PEAUfilesval@@@@QEAA@XZ 0000000140025c20 f i console.obj
 0001:00024c80       ??1?$hashbase@U?$hashtable@Usortkey@@Usortval@@@@U?$hashtableentry@Usortkey@@Usortval@@@@Usortkey@@Usortval@@@@QEAA@XZ 0000000140025c80 f i octarender.obj
 0001:00024cb0       ?removeobj@?$vector@PEAUclientinfo@server@@@@QEAAXAEBQEAUclientinfo@server@@@Z 0000000140025cb0 f i server1.obj
 0001:00024cb0       ?removeobj@?$vector@PEAUvtxarray@@@@QEAAXAEBQEAUvtxarray@@@Z 0000000140025cb0 f i octarender.obj
 0001:00024d40       ?deletechunks@?$hashbase@U?$hashtable@Usortkey@@Usortval@@@@U?$hashtableentry@Usortkey@@Usortval@@@@Usortkey@@Usortval@@@@QEAAXXZ 0000000140025d40 f i octarender.obj
 0001:00024db0       ?growbuf@?$vector@Ugrasstri@@@@QEAAXH@Z 0000000140025db0 f i octarender.obj
 0001:00024e60       ??1chain@?$hashbase@U?$hashtable@Usortkey@@Usortval@@@@U?$hashtableentry@Usortkey@@Usortval@@@@Usortkey@@Usortval@@@@QEAA@XZ 0000000140025e60 f i octarender.obj
 0001:00024ea0       ??1?$hashtableentry@Usortkey@@Usortval@@@@QEAA@XZ 0000000140025ea0 f i octarender.obj
 0001:00024ee0       ??1sortval@@QEAA@XZ        0000000140025ee0 f i octarender.obj
 0001:00024f10       ??$?AUsortkey@@@?$hashbase@U?$hashtable@Usortkey@@Usortval@@@@U?$hashtableentry@Usortkey@@Usortval@@@@Usortkey@@Usortval@@@@QEAAAEAUsortval@@AEBUsortkey@@@Z 0000000140025f10 f i octarender.obj
 0001:00024fb0       ?insert@?$hashbase@U?$hashtable@Uedgegroup@@H@@U?$hashtableentry@Uedgegroup@@H@@Uedgegroup@@H@@QEAAPEAUchain@1@I@Z 0000000140025fb0 f i octarender.obj
 0001:00025300       ?insert@?$hashbase@U?$hashtable@Usortkey@@Usortval@@@@U?$hashtableentry@Usortkey@@Usortval@@@@Usortkey@@Usortval@@@@QEAAPEAUchain@1@I@Z 0000000140026300 f i octarender.obj
 0001:000254d0       ?insert@?$hashbase@U?$hashtable@IUvboinfo@@@@U?$hashtableentry@IUvboinfo@@@@IUvboinfo@@@@QEAAPEAUchain@1@I@Z 00000001400264d0 f i octarender.obj
 0001:00025670       ??0chain@?$hashbase@U?$hashtable@Usortkey@@Usortval@@@@U?$hashtableentry@Usortkey@@Usortval@@@@Usortkey@@Usortval@@@@QEAA@XZ 0000000140026670 f i octarender.obj
 0001:000256c0       ?supportpoint@CubePlanes@mpr@@QEBA?AUvec@@AEBU3@@Z 00000001400266c0 f i physics.obj
 0001:000258a0       ?contactface@EntOBB@mpr@@QEBA?AUvec@@AEBU3@0@Z 00000001400268a0 f i physics.obj
 0001:00025b80       ?supportpoint@EntOBB@mpr@@QEBA?AUvec@@AEBU3@@Z 0000000140026b80 f i physics.obj
 0001:00025cf0       ?supportpoint@EntCapsule@mpr@@QEBA?AUvec@@AEBU3@@Z 0000000140026cf0 f i physics.obj
 0001:00025db0       ??0Model@mpr@@QEAA@AEBUvec@@00H@Z 0000000140026db0 f i physics.obj
 0001:00025f30       ?contactface@ModelOBB@mpr@@QEBA?AUvec@@AEBU3@0@Z 0000000140026f30 f i physics.obj
 0001:00026200       ?supportpoint@ModelOBB@mpr@@QEBA?AUvec@@AEBU3@@Z 0000000140027200 f i physics.obj
 0001:00026380       ?contactface@ModelEllipse@mpr@@QEBA?AUvec@@AEBU3@0@Z 0000000140027380 f i physics.obj
 0001:00026640       ?supportpoint@ModelEllipse@mpr@@QEBA?AUvec@@AEBU3@@Z 0000000140027640 f i physics.obj
 0001:00026800       ??0dynentcacheentry@@QEAA@XZ 0000000140027800 f i physics.obj
 0001:00026820       ??1dynentcacheentry@@QEAA@XZ 0000000140027820 f i physics.obj
 0001:00026850       ??$collide@UEntOBB@mpr@@U12@@mpr@@YA_NAEBUEntOBB@0@0PEAUvec@@11@Z 0000000140027850 f i physics.obj
 0001:00027780       ??$collide@UEntOBB@mpr@@UEntCylinder@2@@mpr@@YA_NAEBUEntOBB@0@AEBUEntCylinder@0@PEAUvec@@22@Z 0000000140028780 f i physics.obj
 0001:00028870       ??$collide@UEntOBB@mpr@@UModelEllipse@2@@mpr@@YA_NAEBUEntOBB@0@AEBUModelEllipse@0@PEAUvec@@22@Z 0000000140029870 f i physics.obj
 0001:000297b0       ??$collide@UEntOBB@mpr@@UModelOBB@2@@mpr@@YA_NAEBUEntOBB@0@AEBUModelOBB@0@PEAUvec@@22@Z 000000014002a7b0 f i physics.obj
 0001:0002a6f0       ??$collide@USolidCube@mpr@@UEntOBB@2@@mpr@@YA_NAEBUSolidCube@0@AEBUEntOBB@0@@Z 000000014002b6f0 f i physics.obj
 0001:0002b2f0       ??$collide@UCubePlanes@mpr@@UEntOBB@2@@mpr@@YA_NAEBUCubePlanes@0@AEBUEntOBB@0@@Z 000000014002c2f0 f i physics.obj
 0001:0002bd70       ??$collide@USolidCube@mpr@@UEntCapsule@2@@mpr@@YA_NAEBUSolidCube@0@AEBUEntCapsule@0@@Z 000000014002cd70 f i physics.obj
 0001:0002ca00       ??$collide@UCubePlanes@mpr@@UEntCapsule@2@@mpr@@YA_NAEBUCubePlanes@0@AEBUEntCapsule@0@@Z 000000014002da00 f i physics.obj
 0001:0002d5d0       printf                     000000014002e5d0 f i physics.obj
 0001:0002d630       ?rescale@vec@@QEAAAEAU1@M@Z 000000014002e630 f i physics.obj
 0001:0002d6a0       ?collisionbox@model@@QEAAMAEAUvec@@0@Z 000000014002e6a0 f i physics.obj
 0001:0002d7a0       ?calcshaft@shaft@@QEAAXAEBUshaftbb@@0@Z 000000014002e7a0 f i pvs.obj
 0001:0002da90       ?inside@shaft@@QEBA_NAEBUshaftbb@@@Z 000000014002ea90 f i pvs.obj
 0001:0002db50       ??0pvsworker@@QEAA@XZ      000000014002eb50 f i pvs.obj
 0001:0002dbd0       ??1pvsworker@@QEAA@XZ      000000014002ebd0 f i pvs.obj
 0001:0002dc10       ?hidepvs@pvsworker@@QEAAXAEAUpvsnode@@@Z 000000014002ec10 f i pvs.obj
 0001:0002dc90       ?shaftcullpvs@pvsworker@@QEAAXAEAUshaft@@AEAUpvsnode@@AEBUivec@@H@Z 000000014002ec90 f i pvs.obj
 0001:0002df90       ?cullpvs@pvsworker@@QEAAXAEAUpvsnode@@AEBUivec@@H@Z 000000014002ef90 f i pvs.obj
 0001:00030730       ?compresspvs@pvsworker@@QEAA_NAEAUpvsnode@@HH@Z 0000000140031730 f i pvs.obj
 0001:000308d0       ?serializepvs@pvsworker@@QEAA_NAEAUpvsnode@@H@Z 00000001400318d0 f i pvs.obj
 0001:00030b30       ?materialoccluded@pvsworker@@QEAA_NAEAUpvsnode@@AEBUivec@@H11@Z 0000000140031b30 f i pvs.obj
 0001:00030ca0       ?calcpvs@pvsworker@@QEAAXAEBUivec@@H@Z 0000000140031ca0 f i pvs.obj
 0001:00031230       ?genviewcell@pvsworker@@QEAAHAEBUivec@@H@Z 0000000140032230 f i pvs.obj
 0001:00031480       ?run@pvsworker@@SAHPEAX@Z  0000000140032480 f i pvs.obj
 0001:00031530       ??_Gviewcellnode@@QEAAPEAXI@Z 0000000140032530 f i pvs.obj
 0001:000315a0       ?add@?$vector@PEAUpvsworker@@@@QEAAAEAPEAUpvsworker@@AEBQEAU2@@Z 00000001400325a0 f i pvs.obj
 0001:000316b0       ?add@?$vector@Upvsdata@@@@QEAAAEAUpvsdata@@AEBU2@@Z 00000001400326b0 f i pvs.obj
 0001:000317c0       ?add@?$vector@Upvsnode@@@@QEAAAEAUpvsnode@@XZ 00000001400327c0 f i pvs.obj
 0001:000318b0       ??$getlil@G@stream@@QEAAGXZ 00000001400328b0 f i pvs.obj
 0001:000318e0       ?insert@?$hashbase@U?$hashtable@Upvsdata@@H@@U?$hashtableentry@Upvsdata@@H@@Upvsdata@@H@@QEAAPEAUchain@1@I@Z 00000001400328e0 f i pvs.obj
 0001:00031c30       ?growbuf@?$vector@Uentity@@@@QEAAXH@Z 0000000140032c30 f i world.obj
 0001:00031ce0       ?concatstring@@YAPEADPEADPEBD_K@Z 0000000140032ce0 f i world.obj
 0001:00031d50       ?nformatstring@@YAXPEADHPEBDZZ 0000000140032d50 f i world.obj
 0001:00031db0       ?rotate@vec@@QEAAAEAU1@MAEBU1@@Z 0000000140032db0 f i world.obj
 0001:00031f60       ??1?$hashtable@HU?$vector@Uivec2@@@@@@QEAA@XZ 0000000140032f60 f i worldio.obj
 0001:00031f80       ??1?$hashbase@U?$hashtable@HU?$vector@Uivec2@@@@@@U?$hashtableentry@HU?$vector@Uivec2@@@@@@HU?$vector@Uivec2@@@@@@QEAA@XZ 0000000140032f80 f i worldio.obj
 0001:00032000       ?add@?$vector@Uvec@@@@QEAAAEAUvec@@AEBU2@@Z 0000000140033000 f i worldio.obj
 0001:00032100       ?add@?$vector@PEAUVSlot@@@@QEAAAEAPEAUVSlot@@AEBQEAU2@@Z 0000000140033100 f i worldio.obj
 0001:00032200       ??1chain@?$hashbase@U?$hashtable@HU?$vector@Uivec2@@@@@@U?$hashtableentry@HU?$vector@Uivec2@@@@@@HU?$vector@Uivec2@@@@@@QEAA@XZ 0000000140033200 f i worldio.obj
 0001:00032240       ??1?$hashtableentry@HU?$vector@Uivec2@@@@@@QEAA@XZ 0000000140033240 f i worldio.obj
 0001:00032270       ?insert@?$hashbase@U?$hashtable@HU?$vector@Uivec2@@@@@@U?$hashtableentry@HU?$vector@Uivec2@@@@@@HU?$vector@Uivec2@@@@@@QEAAPEAUchain@1@I@Z 0000000140033270 f i worldio.obj
 0001:00032440       ?insert@?$hashbase@U?$hashtable@Uivec@@H@@U?$hashtableentry@Uivec@@H@@Uivec@@H@@QEAAPEAUchain@1@I@Z 0000000140033440 f i rendermodel.obj
 0001:00032440       ?insert@?$hashbase@U?$hashtable@Uvec2@@H@@U?$hashtableentry@Uvec2@@H@@Uvec2@@H@@QEAAPEAUchain@1@I@Z 0000000140033440 f i worldio.obj
 0001:00032440       ?insert@?$hashbase@U?$hashtable@Uvec@@H@@U?$hashtableentry@Uvec@@H@@Uvec@@H@@QEAAPEAUchain@1@I@Z 0000000140033440 f i worldio.obj
 0001:00032780       ??0chain@?$hashbase@U?$hashtable@HU?$vector@Uivec2@@@@@@U?$hashtableentry@HU?$vector@Uivec2@@@@@@HU?$vector@Uivec2@@@@@@QEAA@XZ 0000000140033780 f i worldio.obj
 0001:000327a0       ??1packetbuf@@QEAA@XZ      00000001400337a0 f i client.obj
 0001:000327e0       ?getbuf@?$vector@PEAD@@QEAAPEAPEADXZ 00000001400337e0 f i server.obj
 0001:000327f0       ?length@?$vector@PEAD@@QEBAHXZ 00000001400337f0 f i server.obj
 0001:00032800       ?put@?$vector@D@@QEAAXPEBDH@Z 0000000140033800 f i server.obj
 0001:00032860       ??$vformatstring@$0BAE@@@YAXAEAY0BAE@DPEBDPEAD@Z 0000000140033860 f i server.obj
 0001:000328c0       ?subbuf@packetbuf@@QEAA?AU?$databuf@E@@H@Z 00000001400338c0 f i server.obj
 0001:00032970       ?put@packetbuf@@QEAAXPEBEH@Z 0000000140033970 f i server.obj
 0001:00032a20       ?compare@serverinfo@@SA_NPEAU1@0@Z 0000000140033a20 f i serverbrowser.obj
 0001:00032ae0       ??_Gserverinfo@@QEAAPEAXI@Z 0000000140033ae0 f i serverbrowser.obj
 0001:00032b40       ?grow@editline@@QEAA_NHPEBDZZ 0000000140033b40 f i 3dgui.obj
 0001:00032be0       ?append@editline@@QEAAXPEBD@Z 0000000140033be0 f i 3dgui.obj
 0001:00032c60       ?insert@editline@@QEAAXPEADHH@Z 0000000140033c60 f i 3dgui.obj
 0001:00032d30       ?combinelines@editline@@QEAAXAEAU?$vector@Ueditline@@@@@Z 0000000140033d30 f i 3dgui.obj
 0001:00032f70       ??0editor@@QEAA@PEBDH0@Z   0000000140033f70 f i 3dgui.obj
 0001:000330f0       ?clear@editor@@QEAAXPEBD@Z 00000001400340f0 f i 3dgui.obj
 0001:00033280       ?region@editor@@QEAA_NXZ   0000000140034280 f i 3dgui.obj
 0001:00033380       ?currentline@editor@@QEAAAEAUeditline@@XZ 0000000140034380 f i 3dgui.obj
 0001:000333f0       ?copyselectionto@editor@@QEAAXPEAU1@@Z 00000001400343f0 f i 3dgui.obj
 0001:00033770       ?selectiontostring@editor@@QEAAPEADXZ 0000000140034770 f i 3dgui.obj
 0001:000339f0       ?removelines@editor@@QEAAXHH@Z 00000001400349f0 f i 3dgui.obj
 0001:00033ac0       ?del@editor@@QEAA_NXZ      0000000140034ac0 f i 3dgui.obj
 0001:00033e70       ?insert@editor@@QEAAXD@Z   0000000140034e70 f i 3dgui.obj
 0001:00034030       ?insert@editor@@QEAAXPEBD@Z 0000000140035030 f i 3dgui.obj
 0001:00034210       ?insertallfrom@editor@@QEAAXPEAU1@@Z 0000000140035210 f i 3dgui.obj
 0001:00034500       ?key@editor@@QEAAXH@Z      0000000140035500 f i 3dgui.obj
 0001:00034a00       ?input@editor@@QEAAXPEBDH@Z 0000000140035a00 f i 3dgui.obj
 0001:00034c00       ?draw@editor@@QEAAXHHH_N@Z 0000000140035c00 f i 3dgui.obj
 0001:00035930       ?allowautotab@gui@@UEAA_N_N@Z 0000000140036930 f i 3dgui.obj
 0001:00035940       ?autotab@gui@@QEAAXXZ      0000000140036940 f i 3dgui.obj
 0001:000359c0       ?shouldtab@gui@@UEAA_NXZ   00000001400369c0 f i 3dgui.obj
 0001:00035a70       ?tab@gui@@UEAAXPEBDH@Z     0000000140036a70 f i 3dgui.obj
 0001:00035ce0       ?pushlist@gui@@UEAAXXZ     0000000140036ce0 f i 3dgui.obj
 0001:00035e10       ?poplist@gui@@UEAAXXZ      0000000140036e10 f i 3dgui.obj
 0001:00035f40       ?text@gui@@UEAAHPEBDH0@Z   0000000140036f40 f i 3dgui.obj
 0001:000360c0       ?button@gui@@UEAAHPEBDH0@Z 00000001400370c0 f i 3dgui.obj
 0001:000362a0       ?title@gui@@UEAAHPEBDH0@Z  00000001400372a0 f i 3dgui.obj
 0001:00036440       ?separator@gui@@UEAAXXZ    0000000140037440 f i 3dgui.obj
 0001:00036480       ?progress@gui@@UEAAXM@Z    0000000140037480 f i 3dgui.obj
 0001:000364d0       ?strut@gui@@UEAAXM@Z       00000001400374d0 f i 3dgui.obj
 0001:00036520       ?space@gui@@UEAAXM@Z       0000000140037520 f i 3dgui.obj
 0001:00036570       ?spring@gui@@UEAAXH@Z      0000000140037570 f i 3dgui.obj
 0001:00036660       ?column@gui@@UEAAXH@Z      0000000140037660 f i 3dgui.obj
 0001:00036690       ?layout@gui@@QEAAHHH@Z     0000000140037690 f i 3dgui.obj
 0001:00036760       ?mergehits@gui@@UEAA_N_N@Z 0000000140037760 f i 3dgui.obj
 0001:00036770       ?ishit@gui@@QEAA_NHHHH@Z   0000000140037770 f i 3dgui.obj
 0001:00036870       ?image@gui@@UEAAHPEAUTexture@@M_N@Z 0000000140037870 f i 3dgui.obj
 0001:00036960       ?texture@gui@@UEAAHAEAUVSlot@@M_N@Z 0000000140037960 f i 3dgui.obj
 0001:00036a50       ?playerpreview@gui@@UEAAHHHHM_N@Z 0000000140037a50 f i 3dgui.obj
 0001:00037060       ?modelpreview@gui@@UEAAHPEBDHM_N@Z 0000000140038060 f i 3dgui.obj
 0001:00037850       ?prefabpreview@gui@@UEAAHPEBDAEBUvec@@M_N@Z 0000000140038850 f i 3dgui.obj
 0001:00037fa0       ?slider@gui@@UEAAXAEAHHHHPEBD@Z 0000000140038fa0 f i 3dgui.obj
 0001:00038280       ?field@gui@@UEAAPEADPEBDHHH0H@Z 0000000140039280 f i 3dgui.obj
 0001:000382c0       ?keyfield@gui@@UEAAPEADPEBDHHH0H@Z 00000001400392c0 f i 3dgui.obj
 0001:00038300       ?field_@gui@@QEAAPEADPEBDHHH0HH@Z 0000000140039300 f i 3dgui.obj
 0001:00038aa0       ?rect_@gui@@QEAAXMMMM_N@Z  0000000140039aa0 f i 3dgui.obj
 0001:00038c30       ?rect_@gui@@QEAAXMMMMH@Z   0000000140039c30 f i 3dgui.obj
 0001:00038f30       ?text_@gui@@QEAAXPEBDHHH_N1@Z 0000000140039f30 f i 3dgui.obj
 0001:00038ff0       ?background@gui@@UEAAXHHH@Z 0000000140039ff0 f i 3dgui.obj
 0001:000391c0       ?icon_@gui@@QEAAXPEAUTexture@@_NHHH1@Z 000000014003a1c0 f i 3dgui.obj
 0001:00039440       ?previewslot@gui@@QEAAXAEAUVSlot@@_NHHH1@Z 000000014003a440 f i 3dgui.obj
 0001:0003a3a0       ?line_@gui@@QEAAXHM@Z      000000014003b3a0 f i 3dgui.obj
 0001:0003a5e0       ?textbox@gui@@UEAAXPEBDHHH@Z 000000014003b5e0 f i 3dgui.obj
 0001:0003a710       ?drawskin@gui@@SAXHHHHHHHAEBUvec@@M@Z 000000014003b710 f i 3dgui.obj
 0001:0003adc0       ?start@gui@@UEAAXHMPEAH_N@Z 000000014003bdc0 f i 3dgui.obj
 0001:0003b2f0       ?adjustcolumns@gui@@QEAAXXZ 000000014003c2f0 f i 3dgui.obj
 0001:0003b4a0       ?end@gui@@UEAAXXZ          000000014003c4a0 f i 3dgui.obj
 0001:0003b9c0       ?add@?$vector@Ulist@gui@@@@QEAAAEAUlist@gui@@XZ 000000014003c9c0 f i 3dgui.obj
 0001:0003bab0       ?remove@?$vector@PEAUeditor@@@@QEAAPEAUeditor@@H@Z 000000014003cab0 f i 3dgui.obj
 0001:0003bb10       ?add@?$vector@PEAUeditor@@@@QEAAAEAPEAUeditor@@AEBQEAU2@@Z 000000014003cb10 f i 3dgui.obj
 0001:0003bc20       ?insert@?$vector@Ueditline@@@@QEAAAEAUeditline@@HAEBU2@@Z 000000014003cc20 f i 3dgui.obj
 0001:0003bcc0       ??_Egui@@UEAAPEAXI@Z       000000014003ccc0 f i * CIL library *:* CIL module *
 0001:0003bcc0       ??_Ggui@@UEAAPEAXI@Z       000000014003ccc0 f i 3dgui.obj
 0001:0003bcf0       ??1gui@@UEAA@XZ            000000014003ccf0 f i 3dgui.obj
 0001:0003bd00       ?growbuf@?$vector@UAttribLoc@@@@QEAAXH@Z 000000014003cd00 f i shader.obj
 0001:0003bd00       ?growbuf@?$vector@Ucharinfo@font@@@@QEAAXH@Z 000000014003cd00 f i rendertext.obj
 0001:0003bd00       ?growbuf@?$vector@Ueditline@@@@QEAAXH@Z 000000014003cd00 f i 3dgui.obj
 0001:0003bd00       ?growbuf@?$vector@Unode@wpcache@ai@@@@QEAAXH@Z 000000014003cd00 f i waypoint.obj
 0001:0003bdb0       ??4gui@@QEAAAEAU0@AEBU0@@Z 000000014003cdb0 f i 3dgui.obj
 0001:0003be70       ??1g3d_gui@@UEAA@XZ        000000014003ce70 f i 3dgui.obj
 0001:0003be80       ??_Eg3d_gui@@UEAAPEAXI@Z   000000014003ce80 f i * CIL library *:* CIL module *
 0001:0003be80       ??_Gg3d_gui@@UEAAPEAXI@Z   000000014003ce80 f i 3dgui.obj
 0001:0003beb0       ?aifind@clientmode@game@@UEAAXPEAUfpsent@@AEAUaistate@ai@@AEAU?$vector@Uinterest@ai@@@@@Z 000000014003ceb0 f i client1.obj
 0001:0003beb0       ?calcbb@mesh@animmodel@@UEAAXAEAUvec@@0AEBUmatrix4x3@@@Z 000000014003ceb0 f i rendermodel.obj
 0001:0003beb0       ?changeteam@collectservmode@server@@UEAAXPEAUclientinfo@2@PEBD1@Z 000000014003ceb0 f i server1.obj
 0001:0003beb0       ?changeteam@servmode@server@@UEAAXPEAUclientinfo@2@PEBD1@Z 000000014003ceb0 f i server1.obj
 0001:0003beb0       ?checkitems@clientmode@game@@UEAAXPEAUfpsent@@@Z 000000014003ceb0 f i client1.obj
 0001:0003beb0       ?cleanup@meshgroup@animmodel@@UEAAXXZ 000000014003ceb0 f i rendermodel.obj
 0001:0003beb0       ?cleanup@model@@UEAAXXZ    000000014003ceb0 f i rendermodel.obj
 0001:0003beb0       ?cleanup@partrenderer@@UEAAXXZ 000000014003ceb0 f i renderparticles.obj
 0001:0003beb0       ?cleanup@servmode@server@@UEAAXXZ 000000014003ceb0 f i server1.obj
 0001:0003beb0       ?concattagtransform@meshgroup@animmodel@@UEAAXPEAUpart@2@HAEBUmatrix4x3@@AEAU4@@Z 000000014003ceb0 f i rendermodel.obj
 0001:0003beb0       ?died@servmode@server@@UEAAXPEAUclientinfo@2@0@Z 000000014003ceb0 f i server1.obj
 0001:0003beb0       ?doclear@rendertarget@@UEAAXXZ 000000014003ceb0 f i glare.obj
 0001:0003beb0       ?dodebug@rendertarget@@UEAAXHH@Z 000000014003ceb0 f i glare.obj
 0001:0003beb0       ?drawhud@clientmode@game@@UEAAXPEAUfpsent@@HH@Z 000000014003ceb0 f i client1.obj
 0001:0003beb0       ?endload@animmodel@@UEAAXXZ 000000014003ceb0 f i rendermodel.obj
 0001:0003beb0       ?endrender@model@@UEAAXXZ  000000014003ceb0 f i rendermodel.obj
 0001:0003beb0       ?endrender@textrenderer@@UEAAXXZ 000000014003ceb0 f i renderparticles.obj
 0001:0003beb0       ?entergame@servmode@server@@UEAAXPEAUclientinfo@2@@Z 000000014003ceb0 f i server1.obj
 0001:0003beb0       ?flushpart@animmodel@@UEAAXXZ 000000014003ceb0 f i rendermodel.obj
 0001:0003beb0       ?gameover@clientmode@game@@UEAAXXZ 000000014003ceb0 f i client1.obj
 0001:0003beb0       ?genBIH@mesh@animmodel@@UEAAXAEAU1BIH@@@Z 000000014003ceb0 f i rendermodel.obj
 0001:0003beb0       ?getteamscores@clientmode@game@@UEAAXAEAU?$vector@Uteamscore@@@@@Z 000000014003ceb0 f i client1.obj
 0001:0003beb0       ?getteamscores@servmode@server@@UEAAXAEAU?$vector@Uteamscore@@@@@Z 000000014003ceb0 f i server1.obj
 0001:0003beb0       ?init@partrenderer@@UEAAXH@Z 000000014003ceb0 f i renderparticles.obj
 0001:0003beb0       ?initclient@servmode@server@@UEAAXPEAUclientinfo@2@AEAUpacketbuf@@_N@Z 000000014003ceb0 f i server1.obj
 0001:0003beb0       ?intermission@servmode@server@@UEAAXXZ 000000014003ceb0 f i server1.obj
 0001:0003beb0       ?killpart@listrenderer@@UEAAXPEAUlistparticle@@@Z 000000014003ceb0 f i renderparticles.obj
 0001:0003beb0       ?leavegame@servmode@server@@UEAAXPEAUclientinfo@2@_N@Z 000000014003ceb0 f i server1.obj
 0001:0003beb0       ?moved@servmode@server@@UEAAXPEAUclientinfo@2@AEBUvec@@_N12@Z 000000014003ceb0 f i server1.obj
 0001:0003beb0       ?newmap@servmode@server@@UEAAXXZ 000000014003ceb0 f i server1.obj
 0001:0003beb0       ?poplist@g3d_gui@@UEAAXXZ  000000014003ceb0 f i 3dgui.obj
 0001:0003beb0       ?preload@clientmode@game@@UEAAXXZ 000000014003ceb0 f i client1.obj
 0001:0003beb0       ?preload@meshgroup@animmodel@@UEAAXPEAUpart@2@@Z 000000014003ceb0 f i rendermodel.obj
 0001:0003beb0       ?preloadmeshes@model@@UEAAXXZ 000000014003ceb0 f i rendermodel.obj
 0001:0003beb0       ?preloadshaders@model@@UEAAX_N@Z 000000014003ceb0 f i rendermodel.obj
 0001:0003beb0       ?process@gameevent@server@@UEAAXPEAUclientinfo@2@@Z 000000014003ceb0 f i server1.obj
 0001:0003beb0       ?pushlist@g3d_gui@@UEAAXXZ 000000014003ceb0 f i 3dgui.obj
 0001:0003beb0       ?removeplayer@clientmode@game@@UEAAXPEAUfpsent@@@Z 000000014003ceb0 f i client1.obj
 0001:0003beb0       ?render@meshgroup@animmodel@@UEAAXPEBUanimstate@2@MAEBUvec@@1PEAUdynent@@PEAUpart@2@@Z 000000014003ceb0 f i rendermodel.obj
 0001:0003beb0       ?rendergame@clientmode@game@@UEAAXXZ 000000014003ceb0 f i client1.obj
 0001:0003beb0       ?resettracked@partrenderer@@UEAAXPEAUphysent@@@Z 000000014003ceb0 f i renderparticles.obj
 0001:0003beb0       ?respawned@captureclientmode@game@@UEAAXPEAUfpsent@@@Z 000000014003ceb0 f i client1.obj
 0001:0003beb0       ?respawned@clientmode@game@@UEAAXPEAUfpsent@@@Z 000000014003ceb0 f i client1.obj
 0001:0003beb0       ?seedemitter@partrenderer@@UEAAXAEAUparticleemitter@@AEBUvec@@1HMH@Z 000000014003ceb0 f i renderparticles.obj
 0001:0003beb0       ?senditems@clientmode@game@@UEAAXAEAUpacketbuf@@@Z 000000014003ceb0 f i client1.obj
 0001:0003beb0       ?setalphablend@model@@UEAAX_N@Z 000000014003ceb0 f i rendermodel.obj
 0001:0003beb0       ?setalphatest@model@@UEAAXM@Z 000000014003ceb0 f i rendermodel.obj
 0001:0003beb0       ?setambient@model@@UEAAXM@Z 000000014003ceb0 f i rendermodel.obj
 0001:0003beb0       ?setcullface@model@@UEAAX_N@Z 000000014003ceb0 f i rendermodel.obj
 0001:0003beb0       ?setenvmap@model@@UEAAXMMPEAUTexture@@@Z 000000014003ceb0 f i rendermodel.obj
 0001:0003beb0       ?setfullbright@model@@UEAAXM@Z 000000014003ceb0 f i rendermodel.obj
 0001:0003beb0       ?setglare@model@@UEAAXMM@Z 000000014003ceb0 f i rendermodel.obj
 0001:0003beb0       ?setglow@model@@UEAAXMMM@Z 000000014003ceb0 f i rendermodel.obj
 0001:0003beb0       ?setshader@model@@UEAAXPEAUShader@@@Z 000000014003ceb0 f i rendermodel.obj
 0001:0003beb0       ?setspec@model@@UEAAXM@Z   000000014003ceb0 f i rendermodel.obj
 0001:0003beb0       ?setup@clientmode@game@@UEAAXXZ 000000014003ceb0 f i client1.obj
 0001:0003beb0       ?setup@servmode@server@@UEAAXXZ 000000014003ceb0 f i server1.obj
 0001:0003beb0       ?spawned@servmode@server@@UEAAXPEAUclientinfo@2@@Z 000000014003ceb0 f i server1.obj
 0001:0003beb0       ?startload@animmodel@@UEAAXXZ 000000014003ceb0 f i rendermodel.obj
 0001:0003beb0       ?startrender@model@@UEAAXXZ 000000014003ceb0 f i rendermodel.obj
 0001:0003beb0       ?startrender@textrenderer@@UEAAXXZ 000000014003ceb0 f i renderparticles.obj
 0001:0003beb0       ?update@partrenderer@@UEAAXXZ 000000014003ceb0 f i renderparticles.obj
 0001:0003beb0       ?update@servmode@server@@UEAAXXZ 000000014003ceb0 f i server1.obj
 0001:0003beb0       _guard_check_icall_nop     000000014003ceb0 f i LIBCMT:guard_support.obj
 0001:0003beb0       _initialize_denormal_control 000000014003ceb0 f i LIBCMT:denormal_control.obj
 0001:0003beb0       _initialize_invalid_parameter_handler 000000014003ceb0 f i LIBCMT:invalid_parameter_handler.obj
 0001:0003bec0       ?aicheck@captureclientmode@game@@UEAA_NPEAUfpsent@@AEAUaistate@ai@@@Z 000000014003cec0 f i client1.obj
 0001:0003bec0       ?aicheck@clientmode@game@@UEAA_NPEAUfpsent@@AEAUaistate@ai@@@Z 000000014003cec0 f i client1.obj
 0001:0003bec0       ?aidefend@clientmode@game@@UEAA_NPEAUfpsent@@AEAUaistate@ai@@@Z 000000014003cec0 f i client1.obj
 0001:0003bec0       ?aipursue@clientmode@game@@UEAA_NPEAUfpsent@@AEAUaistate@ai@@@Z 000000014003cec0 f i client1.obj
 0001:0003bec0       ?envmapped@model@@UEAA_NXZ 000000014003cec0 f i rendermodel.obj
 0001:0003bec0       ?extinfoteam@servmode@server@@UEAA_NPEBDAEAU?$databuf@E@@@Z 000000014003cec0 f i server1.obj
 0001:0003bec0       ?flipdebug@shadowmaptexture@@UEBA_NXZ 000000014003cec0 f i shadowmap.obj
 0001:0003bec0       ?flipy@animmodel@@UEBA_NXZ 000000014003cec0 f i rendermodel.obj
 0001:0003bec0       ?hidefrags@clientmode@game@@UEAA_NXZ 000000014003cec0 f i client1.obj
 0001:0003bec0       ?hidefrags@servmode@server@@UEAA_NXZ 000000014003cec0 f i server1.obj
 0001:0003bec0       ?keepable@gameevent@server@@UEBA_NXZ 000000014003cec0 f i server1.obj
 0001:0003bec0       ?loadconfig@animmodel@@UEAA_NXZ 000000014003cec0 f i rendermodel.obj
 0001:0003bec0       ?loadconfig@md2@@UEAA_NXZ  000000014003cec0 f i rendermodel.obj
 0001:0003bec0       ?loaddefaultparts@animmodel@@UEAA_NXZ 000000014003cec0 f i rendermodel.obj
 0001:0003bec0       ?screenrect@rendertarget@@UEBA_NXZ 000000014003cec0 f i glare.obj
 0001:0003bec0       ?seek@stream@@UEAA_N_JH@Z  000000014003cec0 f i stream.obj
 0001:0003bec0       ?shouldtab@g3d_gui@@UEAA_NXZ 000000014003cec0 f i 3dgui.obj
 0001:0003bec0       ?skeletal@model@@UEBA_NXZ  000000014003cec0 f i rendermodel.obj
 0001:0003bec0       ?swaptexs@rendertarget@@UEBA_NXZ 000000014003cec0 f i glare.obj
 0001:0003bed0       ?adddepthfx@partrenderer@@UEAAHAEAUvec@@0@Z 000000014003ced0 f i renderparticles.obj
 0001:0003bed0       ?addpart@flarerenderer@@UEAAPEAUparticle@@AEBUvec@@0HHMH@Z 000000014003ced0 f i renderparticles.obj
 0001:0003bed0       ?clipconsole@clientmode@game@@UEAAHHH@Z 000000014003ced0 f i client1.obj
 0001:0003bed0       ?getcrc@stream@@UEAAIXZ    000000014003ced0 f i stream.obj
 0001:0003bed0       ?getteamscore@clientmode@game@@UEAAHPEBD@Z 000000014003ced0 f i client1.obj
 0001:0003bed0       ?getteamscore@servmode@server@@UEAAHPEBD@Z 000000014003ced0 f i server1.obj
 0001:0003bed0       ?linktype@animmodel@@UEBAHPEAU1@@Z 000000014003ced0 f i rendermodel.obj
 0001:0003bed0       ?loadanim@skelmeshgroup@skelmodel@@UEAAPEAUskelanimspec@2@PEBD@Z 000000014003ced0 f i rendermodel.obj
 0001:0003bed0       ?loadmeshes@animmodel@@UEAAPEAUmeshgroup@1@PEBDPEAD@Z 000000014003ced0 f i rendermodel.obj
 0001:0003bed0       ?modelpreview@g3d_gui@@UEAAHPEBDHM_N@Z 000000014003ced0 f i 3dgui.obj
 0001:0003bed0       ?playerpreview@g3d_gui@@UEAAHHHHM_N@Z 000000014003ced0 f i 3dgui.obj
 0001:0003bed0       ?prefabpreview@g3d_gui@@UEAAHPEBDAEBUvec@@M_N@Z 000000014003ced0 f i 3dgui.obj
 0001:0003bed0       ?read@stream@@UEAA_KPEAX_K@Z 000000014003ced0 f i stream.obj
 0001:0003bed0       ?respawnwait@clientmode@game@@UEAAHPEAUfpsent@@@Z 000000014003ced0 f i client1.obj
 0001:0003bed0       ?setBIH@model@@UEAAPEAUBIH@@XZ 000000014003ced0 f i rendermodel.obj
 0001:0003bed0       ?type@md2@@UEBAHXZ         000000014003ced0 f i rendermodel.obj
 0001:0003bed0       ?write@stream@@UEAA_KPEBX_K@Z 000000014003ced0 f i stream.obj
 0001:0003bed0       __scrt_exe_initialize_mta  000000014003ced0 f i LIBCMT:utility_desktop.obj
 0001:0003bed0       __scrt_initialize_winrt    000000014003ced0 f i LIBCMT:utility_desktop.obj
 0001:0003bed0       __scrt_stub_for_initialize_mta 000000014003ced0 f i LIBCMT:utility_desktop.obj
 0001:0003bed0       _get_startup_commit_mode   000000014003ced0 f i LIBCMT:commit_mode.obj
 0001:0003bed0       _get_startup_new_mode      000000014003ced0 f i LIBCMT:new_mode.obj
 0001:0003bed0       _get_startup_thread_locale_mode 000000014003ced0 f i LIBCMT:thread_locale.obj
 0001:0003bed0       _matherr                   000000014003ced0 f i LIBCMT:matherr.obj
 0001:0003bee0       ?ortho@matrix4@@QEAAXMMMMMM@Z 000000014003cee0 f i 3dgui.obj
 0001:0003c050       ?newstring@@YAPEADPEBD_K@Z 000000014003d050 f i 3dgui.obj
 0001:0003c0c0       ?traverse@BIH@@QEAA_NAEBUmesh@1@AEBUvec@@11MAEAMHPEAUnode@1@MM@Z 000000014003d0c0 f i bih.obj
 0001:0003c590       ?traverse@BIH@@QEAA_NAEBUvec@@0MAEAMH@Z 000000014003d590 f i bih.obj
 0001:0003c830       ?invert@matrix4x3@@QEAAXAEBU1@@Z 000000014003d830 f i bih.obj
 0001:0003caa0       ?transform@matrix4x3@@QEBA?AUvec@@AEBU2@@Z 000000014003daa0 f i bih.obj
 0001:0003cba0       ??1blobrenderer@@QEAA@XZ   000000014003dba0 f i blob.obj
 0001:0003cc10       ?cleanup@blobrenderer@@QEAAXXZ 000000014003dc10 f i blob.obj
 0001:0003cca0       ?init@blobrenderer@@QEAAXH@Z 000000014003dca0 f i blob.obj
 0001:0003ce70       ?freeblob@blobrenderer@@QEAA_NXZ 000000014003de70 f i blob.obj
 0001:0003cf10       ?newblob@blobrenderer@@QEAAAEAUblobinfo@@AEBUvec@@M@Z 000000014003df10 f i blob.obj
 0001:0003cfd0       ?dupblob@blobrenderer@@QEAAXXZ 000000014003dfd0 f i blob.obj
 0001:0003d040       ?addtris@blobrenderer@@QEAAXPEBUvec@@H@Z 000000014003e040 f i blob.obj
 0001:0003d7b0       ?gentris@blobrenderer@@QEAAXAEAUcube@@HAEBUivec@@HPEAUmaterialsurface@@H@Z 000000014003e7b0 f i blob.obj
 0001:0003e3d0       ?findescaped@blobrenderer@@QEAAXPEAUcube@@AEBUivec@@HH@Z 000000014003f3d0 f i blob.obj
 0001:0003e520       ?gentris@blobrenderer@@QEAAXPEAUcube@@AEBUivec@@HH@Z 000000014003f520 f i blob.obj
 0001:0003e9c0       ?setuprenderstate@blobrenderer@@SAXXZ 000000014003f9c0 f i blob.obj
 0001:0003ea70       ?fadeblob@blobrenderer@@QEAAXPEAUblobinfo@@M@Z 000000014003fa70 f i blob.obj
 0001:0003edb0       ?renderblob@blobrenderer@@QEAAXAEBUvec@@MM@Z 000000014003fdb0 f i blob.obj
 0001:0003f320       ?flushblobs@blobrenderer@@QEAAXXZ 0000000140040320 f i blob.obj
 0001:0003f750       ??$clip@$0A@@blobrenderer@@SAHPEBUvec@@HMMPEAU1@@Z 0000000140040750 f i blob.obj
 0001:0003fa20       ??$clip@$00@blobrenderer@@SAHPEBUvec@@HMMPEAU1@@Z 0000000140040a20 f i blob.obj
 0001:0003fd60       ??$clip@$01@blobrenderer@@SAHPEBUvec@@HMMPEAU1@@Z 0000000140040d60 f i blob.obj
 0001:000400a0       ??$split@$01@blobrenderer@@SAHPEBUvec@@HMMPEAU1@@Z 00000001400410a0 f i blob.obj
 0001:000403a0       ??1decalrenderer@@QEAA@XZ  00000001400413a0 f i decal.obj
 0001:000403e0       ?freedecal@decalrenderer@@QEAAHXZ 00000001400413e0 f i decal.obj
 0001:00040440       ?fadeindecals@decalrenderer@@QEAAXXZ 0000000140041440 f i decal.obj
 0001:00040750       ?fadeoutdecals@decalrenderer@@QEAAXXZ 0000000140041750 f i decal.obj
 0001:00040a50       ?adddecal@decalrenderer@@QEAAXAEBUvec@@0MAEBUbvec@@H@Z 0000000140041a50 f i decal.obj
 0001:00040e60       ?clip@decalrenderer@@SAHPEBUvec@@HAEBU2@MMPEAU2@@Z 0000000140041e60 f i decal.obj
 0001:00041250       ?gentris@decalrenderer@@QEAAXAEAUcube@@HAEBUivec@@HPEAUmaterialsurface@@H@Z 0000000140042250 f i decal.obj
 0001:00042a80       ?findmaterials@decalrenderer@@QEAAXPEAUvtxarray@@@Z 0000000140043a80 f i decal.obj
 0001:00042c30       ?findescaped@decalrenderer@@QEAAXPEAUcube@@AEBUivec@@HH@Z 0000000140043c30 f i decal.obj
 0001:00042d80       ?gentris@decalrenderer@@QEAAXPEAUcube@@AEBUivec@@HH@Z 0000000140043d80 f i decal.obj
 0001:00043050       ??$dist_to_bb@Uivec@@@vec@@QEBAMAEBUivec@@0@Z 0000000140044050 f i dynlight.obj
 0001:00043100       ??1rendertarget@@UEAA@XZ   0000000140044100 f i glare.obj
 0001:00043110       ?attachment@rendertarget@@UEBAIXZ 0000000140044110 f i glare.obj
 0001:00043120       ?colorformats@rendertarget@@UEBAPEBIXZ 0000000140044120 f i glare.obj
 0001:00043130       ?depthformats@rendertarget@@UEBAPEBIXZ 0000000140044130 f i glare.obj
 0001:00043140       ?canchangeteam@servmode@server@@UEAA_NPEAUclientinfo@2@PEBD1@Z 0000000140044140 f i server1.obj
 0001:00043140       ?canspawn@servmode@server@@UEAA_NPEAUclientinfo@2@_N@Z 0000000140044140 f i server1.obj
 0001:00043140       ?depthtest@rendertarget@@UEBA_NXZ 0000000140044140 f i glare.obj
 0001:00043140       ?dorender@rendertarget@@UEAA_NXZ 0000000140044140 f i glare.obj
 0001:00043140       ?filter@rendertarget@@UEBA_NXZ 0000000140044140 f i glare.obj
 0001:00043140       ?flipdebug@rendertarget@@UEBA_NXZ 0000000140044140 f i glare.obj
 0001:00043140       ?flipy@md2@@UEBA_NXZ       0000000140044140 f i rendermodel.obj
 0001:00043140       ?flipy@md3@@UEBA_NXZ       0000000140044140 f i rendermodel.obj
 0001:00043140       ?flipy@obj@@UEBA_NXZ       0000000140044140 f i rendermodel.obj
 0001:00043140       ?flush@stream@@UEAA_NXZ    0000000140044140 f i stream.obj
 0001:00043140       ?hidefrags@captureclientmode@game@@UEAA_NXZ 0000000140044140 f i client1.obj
 0001:00043140       ?hidefrags@captureservmode@server@@UEAA_NXZ 0000000140044140 f i server1.obj
 0001:00043140       ?hidefrags@collectclientmode@game@@UEAA_NXZ 0000000140044140 f i client1.obj
 0001:00043140       ?hidefrags@collectservmode@server@@UEAA_NXZ 0000000140044140 f i server1.obj
 0001:00043140       ?hidefrags@ctfclientmode@game@@UEAA_NXZ 0000000140044140 f i client1.obj
 0001:00043140       ?hidefrags@ctfservmode@server@@UEAA_NXZ 0000000140044140 f i server1.obj
 0001:00043140       ?keepable@explodeevent@server@@UEBA_NXZ 0000000140044140 f i server1.obj
 0001:00043140       ?screenrect@depthfxtexture@@UEBA_NXZ 0000000140044140 f i renderparticles.obj
 0001:00043140       ?shouldrender@rendertarget@@UEAA_NXZ 0000000140044140 f i glare.obj
 0001:00043140       ?skeletal@skelmodel@@UEBA_NXZ 0000000140044140 f i rendermodel.obj
 0001:00043140       ?swaptexs@shadowmaptexture@@UEBA_NXZ 0000000140044140 f i shadowmap.obj
 0001:00043140       __acrt_uninitialize_command_line 0000000140044140 f i libucrt:argv_data.obj
 0001:00043140       _should_initialize_environment 0000000140044140 f i LIBCMT:env_mode.obj
 0001:00043150       ?cleanupblur@rendertarget@@QEAAXXZ 0000000140044150 f i glare.obj
 0001:000431d0       ?setupblur@rendertarget@@QEAAXXZ 00000001400441d0 f i glare.obj
 0001:00043340       ?setup@rendertarget@@QEAAXHH@Z 0000000140044340 f i glare.obj
 0001:00043580       ?rendertiles@rendertarget@@QEAAXXZ 0000000140044580 f i glare.obj
 0001:00043aa0       ?blur@rendertarget@@QEAAXHMHHHH_N@Z 0000000140044aa0 f i glare.obj
 0001:00043c60       ?doblur@rendertarget@@UEAAXHM@Z 0000000140044c60 f i glare.obj
 0001:00043d20       ?scissorrender@rendertarget@@UEAA_NAEAH000@Z 0000000140044d20 f i glare.obj
 0001:00043f60       ?scissorblur@rendertarget@@UEAA_NAEAH000@Z 0000000140044f60 f i glare.obj
 0001:00044180       ?render@rendertarget@@QEAAXHHHM@Z 0000000140045180 f i glare.obj
 0001:00044500       ?debug@rendertarget@@QEAAXXZ 0000000140045500 f i glare.obj
 0001:00044670       ??_Erendertarget@@UEAAPEAXI@Z 0000000140045670 f i * CIL library *:* CIL module *
 0001:00044670       ??_Grendertarget@@UEAAPEAXI@Z 0000000140045670 f i glare.obj
 0001:000446a0       ?dorender@glaretexture@@UEAA_NXZ 00000001400456a0 f i glare.obj
 0001:000447d0       ??_Edepthfxtexture@@UEAAPEAXI@Z 00000001400457d0 f i * CIL library *:* CIL module *
 0001:000447d0       ??_Eglaretexture@@UEAAPEAXI@Z 00000001400457d0 f i * CIL library *:* CIL module *
 0001:000447d0       ??_Eshadowmaptexture@@UEAAPEAXI@Z 00000001400457d0 f i * CIL library *:* CIL module *
 0001:000447d0       ??_Gdepthfxtexture@@UEAAPEAXI@Z 00000001400457d0 f i renderparticles.obj
 0001:000447d0       ??_Gglaretexture@@UEAAPEAXI@Z 00000001400457d0 f i glare.obj
 0001:000447d0       ??_Gshadowmaptexture@@UEAAPEAXI@Z 00000001400457d0 f i shadowmap.obj
 0001:00044800       ?resolve@LocalShaderParam@@QEAAPEAULocalShaderParamState@@XZ 0000000140045800 f i glare.obj
 0001:00044890       ?setf@LocalShaderParam@@QEAAXMMMM@Z 0000000140045890 f i glare.obj
 0001:00044a00       ?add@?$vector@Ugrassvert@@@@QEAAAEAUgrassvert@@XZ 0000000140045a00 f i grass.obj
 0001:00044af0       ??1QuadNode@@QEAA@XZ       0000000140045af0 f i material.obj
 0001:00044af0       ?clear@QuadNode@@QEAAXXZ   0000000140045af0 f i material.obj
 0001:00044b50       ?insert@QuadNode@@QEAAXHHH@Z 0000000140045b50 f i material.obj
 0001:00044cb0       ?genmatsurfs@QuadNode@@QEAAXGEEHAEAPEAUmaterialsurface@@@Z 0000000140045cb0 f i material.obj
 0001:00044f30       ?set@GlobalShaderParam@@QEAAXAEBUvec@@M@Z 0000000140045f30 f i material.obj
 0001:00044f90       ?compressfind@unionfind@@QEAAHH@Z 0000000140045f90 f i material.obj
 0001:00044fe0       ?unite@unionfind@@QEAAXHH@Z 0000000140045fe0 f i material.obj
 0001:00045170       ?insert@?$hashbase@U?$hashset@H@@HHH@@QEAAPEAUchain@1@I@Z 0000000140046170 f i rendermodel.obj
 0001:00045170       ?insert@?$hashbase@U?$hashset@PEBD@@PEBDPEBDPEBD@@QEAAPEAUchain@1@I@Z 0000000140046170 f i rendergl.obj
 0001:00045170       ?insert@?$hashbase@U?$hashtable@IH@@U?$hashtableentry@IH@@IH@@QEAAPEAUchain@1@I@Z 0000000140046170 f i rendermodel.obj
 0001:00045310       ?rotate_around_z@matrix4x3@@QEAAXM@Z 0000000140046310 f i rendergl.obj
 0001:00045430       ?clip@matrix4@@QEAAXAEBUplane@@AEBU1@@Z 0000000140046430 f i rendergl.obj
 0001:000455c0       ?transposedtransform@matrix4@@QEBAXAEBUplane@@AEAU2@@Z 00000001400465c0 f i rendergl.obj
 0001:000456e0       ?perspective@matrix4@@QEAAXMMMM@Z 00000001400466e0 f i rendergl.obj
 0001:00045800       ??$mult@Udvec4@@@matrix4@@QEAAXAEBU0@0@Z 0000000140046800 f i rendergl.obj
 0001:00045e20       __local_stdio_scanf_options 0000000140046e20 f i rendergl.obj
 0001:00045e30       sscanf                     0000000140046e30 f i rendergl.obj
 0001:00045e90       ?setupjoints@ragdollskel@@QEAAXXZ 0000000140046e90 f i rendermodel.obj
 0001:000463e0       ?setuprotfrictions@ragdollskel@@QEAAXXZ 00000001400473e0 f i rendermodel.obj
 0001:00046580       ??0ragdolldata@@QEAA@PEAUragdollskel@@M@Z 0000000140047580 f i rendermodel.obj
 0001:00046700       ?calcanimjoint@ragdolldata@@QEAAXHAEBUmatrix4x3@@@Z 0000000140047700 f i rendermodel.obj
 0001:00046a50       ?calctris@ragdolldata@@QEAAXXZ 0000000140047a50 f i rendermodel.obj
 0001:00046cb0       ?calcboundsphere@ragdolldata@@QEAAXXZ 0000000140047cb0 f i rendermodel.obj
 0001:00046dd0       ?applyrotlimit@ragdolldata@@QEAAXAEAUtri@ragdollskel@@0MAEBUvec@@@Z 0000000140047dd0 f i rendermodel.obj
 0001:000478c0       ??_Gragdolldata@@QEAAPEAXI@Z 00000001400488c0 f i rendermodel.obj
 0001:00047920       ?setframes@animpos@animmodel@@QEAAXAEBUaniminfo@@@Z 0000000140048920 f i rendermodel.obj
 0001:00047a20       ??9animstate@animmodel@@QEBA_NAEBU01@@Z 0000000140048a20 f i rendermodel.obj
 0001:00047aa0       ?setshaderparams@skin@animmodel@@QEAAXPEAUmesh@2@PEBUanimstate@2@@Z 0000000140048aa0 f i rendermodel.obj
 0001:00048640       ?loadshader@skin@animmodel@@QEAAPEAUShader@@XZ 0000000140049640 f i rendermodel.obj
 0001:00048770       ?bind@skin@animmodel@@QEAAXPEAUmesh@2@PEBUanimstate@2@@Z 0000000140049770 f i rendermodel.obj
 0001:00048a90       ??1mesh@animmodel@@UEAA@XZ 0000000140049a90 f i rendermodel.obj
 0001:00048ac0       ?setshader@mesh@animmodel@@UEAAXPEAUShader@@@Z 0000000140049ac0 f i rendermodel.obj
 0001:00048b40       ?fixqtangent@mesh@animmodel@@SAXAEAUquat@@M@Z 0000000140049b40 f i rendermodel.obj
 0001:00048c30       ??1meshgroup@animmodel@@UEAA@XZ 0000000140049c30 f i rendermodel.obj
 0001:00048cd0       ?findtag@meshgroup@animmodel@@UEAAHPEBD@Z 0000000140049cd0 f i rendermodel.obj
 0001:00048ce0       ?genBIH@meshgroup@animmodel@@QEAAXAEAU?$vector@Uskin@animmodel@@@@AEAU?$vector@Umesh@BIH@@@@AEBUmatrix4x3@@@Z 0000000140049ce0 f i rendermodel.obj
 0001:00048f50       ?animkey@meshgroup@animmodel@@UEAAPEAXXZ 0000000140049f50 f i rendermodel.obj
 0001:00048f60       ?linktype@md2@@UEBAHPEAUanimmodel@@@Z 0000000140049f60 f i rendermodel.obj
 0001:00048f60       ?totalframes@meshgroup@animmodel@@UEBAHXZ 0000000140049f60 f i rendermodel.obj
 0001:00048f60       ?type@md3@@UEBAHXZ         0000000140049f60 f i rendermodel.obj
 0001:00048f60       _get_startup_argv_mode     0000000140049f60 f i LIBCMT:argv_mode.obj
 0001:00048f70       ?hasframes@meshgroup@animmodel@@QEBA_NHH@Z 0000000140049f70 f i rendermodel.obj
 0001:00048fb0       ?bindpos@meshgroup@animmodel@@QEAAXIIPEAXH@Z 0000000140049fb0 f i rendermodel.obj
 0001:00049070       ?bindtc@meshgroup@animmodel@@QEAAXPEAXH@Z 000000014004a070 f i rendermodel.obj
 0001:000490e0       ?bindnormals@meshgroup@animmodel@@QEAAXPEAXH@Z 000000014004a0e0 f i rendermodel.obj
 0001:00049150       ?bindtangents@meshgroup@animmodel@@QEAAXPEAXH@Z 000000014004a150 f i rendermodel.obj
 0001:000491c0       ?bindbones@meshgroup@animmodel@@QEAAXPEAX0H@Z 000000014004a1c0 f i rendermodel.obj
 0001:00049270       ?sharemeshes@animmodel@@QEAAPEAUmeshgroup@1@PEBDZZ 000000014004a270 f i rendermodel.obj
 0001:000494f0       ??1part@animmodel@@UEAA@XZ 000000014004a4f0 f i rendermodel.obj
 0001:000495c0       ?cleanup@part@animmodel@@UEAAXXZ 000000014004a5c0 f i rendermodel.obj
 0001:00049620       ?calcbb@part@animmodel@@QEAAXAEAUvec@@0AEBUmatrix4x3@@@Z 000000014004a620 f i rendermodel.obj
 0001:00049950       ?genBIH@part@animmodel@@QEAAXAEAU?$vector@Umesh@BIH@@@@AEBUmatrix4x3@@@Z 000000014004a950 f i rendermodel.obj
 0001:00049c40       ?link@part@animmodel@@QEAA_NPEAU12@PEBDAEBUvec@@HHPEAU3@@Z 000000014004ac40 f i rendermodel.obj
 0001:00049e20       ?unlink@part@animmodel@@QEAA_NPEAU12@@Z 000000014004ae20 f i rendermodel.obj
 0001:00049f50       ?initskins@part@animmodel@@QEAAXPEAUTexture@@0H@Z 000000014004af50 f i rendermodel.obj
 0001:0004a0f0       ?getdefaultanim@part@animmodel@@UEAAXAEAUaniminfo@@HIPEAUdynent@@@Z 000000014004b0f0 f i rendermodel.obj
 0001:0004a100       ?calcanim@part@animmodel@@QEAA_NHHHHPEAUdynent@@HAEAUaniminfo@@AEAH@Z 000000014004b100 f i rendermodel.obj
 0001:0004a550       ?render@part@animmodel@@QEAAXHHHMAEBUvec@@0PEAUdynent@@PEAUanimstate@2@@Z 000000014004b550 f i rendermodel.obj
 0001:0004b100       ?setanim@part@animmodel@@QEAAXHHHHMH@Z 000000014004c100 f i rendermodel.obj
 0001:0004b2c0       ?loaded@part@animmodel@@UEAAXXZ 000000014004c2c0 f i rendermodel.obj
 0001:0004b3b0       ?render@animmodel@@QEAAXHHHMAEBUvec@@0PEAUdynent@@PEAUmodelattach@@@Z 000000014004c3b0 f i rendermodel.obj
 0001:0004b6f0       ?render@animmodel@@UEAAXHHHAEBUvec@@MMPEAUdynent@@PEAUmodelattach@@00M@Z 000000014004c6f0 f i rendermodel.obj
 0001:0004bbf0       ??0animmodel@@QEAA@PEBD@Z  000000014004cbf0 f i rendermodel.obj
 0001:0004bcd0       ??1animmodel@@UEAA@XZ      000000014004ccd0 f i rendermodel.obj
 0001:0004bd50       ?cleanup@animmodel@@UEAAXXZ 000000014004cd50 f i rendermodel.obj
 0001:0004bda0       ?addpart@animmodel@@QEAAAEAUpart@1@XZ 000000014004cda0 f i rendermodel.obj
 0001:0004be50       ?initmatrix@animmodel@@QEAAXAEAUmatrix4x3@@@Z 000000014004ce50 f i rendermodel.obj
 0001:0004c000       ?preloadBIH@animmodel@@UEAAXXZ 000000014004d000 f i rendermodel.obj
 0001:0004c0d0       ?setBIH@animmodel@@UEAAPEAUBIH@@XZ 000000014004d0d0 f i rendermodel.obj
 0001:0004c180       ?envmapped@animmodel@@UEAA_NXZ 000000014004d180 f i rendermodel.obj
 0001:0004c1e0       ?load@animmodel@@UEAA_NXZ  000000014004d1e0 f i rendermodel.obj
 0001:0004c2d0       ?preloadshaders@animmodel@@UEAAX_N@Z 000000014004d2d0 f i rendermodel.obj
 0001:0004c3a0       ?preloadmeshes@animmodel@@UEAAXXZ 000000014004d3a0 f i rendermodel.obj
 0001:0004c400       ?setshader@animmodel@@UEAAXPEAUShader@@@Z 000000014004d400 f i rendermodel.obj
 0001:0004c490       ?setenvmap@animmodel@@UEAAXMMPEAUTexture@@@Z 000000014004d490 f i rendermodel.obj
 0001:0004c560       ?setspec@animmodel@@UEAAXM@Z 000000014004d560 f i rendermodel.obj
 0001:0004c600       ?setambient@animmodel@@UEAAXM@Z 000000014004d600 f i rendermodel.obj
 0001:0004c6a0       ?setglow@animmodel@@UEAAXMMM@Z 000000014004d6a0 f i rendermodel.obj
 0001:0004c760       ?setglare@animmodel@@UEAAXMM@Z 000000014004d760 f i rendermodel.obj
 0001:0004c800       ?setalphatest@animmodel@@UEAAXM@Z 000000014004d800 f i rendermodel.obj
 0001:0004c8a0       ?setalphablend@animmodel@@UEAAX_N@Z 000000014004d8a0 f i rendermodel.obj
 0001:0004c930       ?setfullbright@animmodel@@UEAAXM@Z 000000014004d930 f i rendermodel.obj
 0001:0004c9d0       ?setcullface@animmodel@@UEAAX_N@Z 000000014004d9d0 f i rendermodel.obj
 0001:0004ca60       ?calcbb@animmodel@@UEAAXAEAUvec@@0@Z 000000014004da60 f i rendermodel.obj
 0001:0004cb80       ?loaded@animmodel@@UEAAXXZ 000000014004db80 f i rendermodel.obj
 0001:0004cc20       ?startrender@animmodel@@UEAAXXZ 000000014004dc20 f i rendermodel.obj
 0001:0004ccb0       ?disablevbo@animmodel@@SAXXZ 000000014004dcb0 f i rendermodel.obj
 0001:0004cd90       ?endrender@animmodel@@UEAAXXZ 000000014004dd90 f i rendermodel.obj
 0001:0004ce50       ??_Emesh@animmodel@@UEAAPEAXI@Z 000000014004de50 f i * CIL library *:* CIL module *
 0001:0004ce50       ??_Gmesh@animmodel@@UEAAPEAXI@Z 000000014004de50 f i rendermodel.obj
 0001:0004cea0       ??_Emeshgroup@animmodel@@UEAAPEAXI@Z 000000014004dea0 f i * CIL library *:* CIL module *
 0001:0004cea0       ??_Gmeshgroup@animmodel@@UEAAPEAXI@Z 000000014004dea0 f i rendermodel.obj
 0001:0004cee0       ??_Epart@animmodel@@UEAAPEAXI@Z 000000014004dee0 f i * CIL library *:* CIL module *
 0001:0004cee0       ??_Gpart@animmodel@@UEAAPEAXI@Z 000000014004dee0 f i rendermodel.obj
 0001:0004cf20       ??_Eanimmodel@@UEAAPEAXI@Z 000000014004df20 f i * CIL library *:* CIL module *
 0001:0004cf20       ??_Ganimmodel@@UEAAPEAXI@Z 000000014004df20 f i rendermodel.obj
 0001:0004cf60       ?buildnorms@vertmesh@vertmodel@@QEAAX_N@Z 000000014004df60 f i rendermodel.obj
 0001:0004cfe0       ?calcbb@vertmesh@vertmodel@@UEAAXAEAUvec@@0AEBUmatrix4x3@@@Z 000000014004dfe0 f i rendermodel.obj
 0001:0004d150       ?genBIH@vertmesh@vertmodel@@UEAAXAEAUmesh@BIH@@@Z 000000014004e150 f i rendermodel.obj
 0001:0004d190       ?interpverts@vertmesh@vertmodel@@QEAAXAEBUanimstate@animmodel@@_NPEIAXAEAUskin@4@@Z 000000014004e190 f i rendermodel.obj
 0001:0004e000       ??0tag@vertmodel@@QEAA@XZ  000000014004f000 f i rendermodel.obj
 0001:0004e000       ??0videobuffer@recorder@@QEAA@XZ 000000014004f000 f i movie.obj
 0001:0004e010       ??1boneinfo@skelmodel@@QEAA@XZ 000000014004f010 f i rendermodel.obj
 0001:0004e010       ??1soundsample@@QEAA@XZ    000000014004f010 f i sound.obj
 0001:0004e010       ??1tag@vertmodel@@QEAA@XZ  000000014004f010 f i rendermodel.obj
 0001:0004e010       ??1videobuffer@recorder@@QEAA@XZ 000000014004f010 f i movie.obj
 0001:0004e010       ??1zipfile@@QEAA@XZ        000000014004f010 f i zip.obj
 0001:0004e040       ??0vertmeshgroup@vertmodel@@QEAA@XZ 000000014004f040 f i rendermodel.obj
 0001:0004e240       ??1vertmeshgroup@vertmodel@@UEAA@XZ 000000014004f240 f i rendermodel.obj
 0001:0004e320       ?findtag@vertmeshgroup@vertmodel@@UEAAHPEBD@Z 000000014004f320 f i rendermodel.obj
 0001:0004e3a0       ?totalframes@vertmeshgroup@vertmodel@@UEBAHXZ 000000014004f3a0 f i rendermodel.obj
 0001:0004e3b0       ?concattagtransform@vertmeshgroup@vertmodel@@UEAAXPEAUpart@animmodel@@HAEBUmatrix4x3@@AEAU5@@Z 000000014004f3b0 f i rendermodel.obj
 0001:0004e5d0       ?calctagmatrix@vertmeshgroup@vertmodel@@QEAAXPEAUpart@animmodel@@HAEBUanimstate@4@AEAUmatrix4@@@Z 000000014004f5d0 f i rendermodel.obj
 0001:0004e8c0       ?genvbo@vertmeshgroup@vertmodel@@QEAAX_NAEAUvbocacheentry@2@@Z 000000014004f8c0 f i rendermodel.obj
 0001:0004efb0       ?cleanup@vertmeshgroup@vertmodel@@UEAAXXZ 000000014004ffb0 f i rendermodel.obj
 0001:0004f030       ?preload@vertmeshgroup@vertmodel@@UEAAXPEAUpart@animmodel@@@Z 0000000140050030 f i rendermodel.obj
 0001:0004f0c0       ?render@vertmeshgroup@vertmodel@@UEAAXPEBUanimstate@animmodel@@MAEBUvec@@1PEAUdynent@@PEAUpart@4@@Z 00000001400500c0 f i rendermodel.obj
 0001:0004f5c0       ??_Evertmesh@vertmodel@@UEAAPEAXI@Z 00000001400505c0 f i * CIL library *:* CIL module *
 0001:0004f5c0       ??_Gvertmesh@vertmodel@@UEAAPEAXI@Z 00000001400505c0 f i rendermodel.obj
 0001:0004f670       ??_Evertmeshgroup@vertmodel@@UEAAPEAXI@Z 0000000140050670 f i * CIL library *:* CIL module *
 0001:0004f670       ??_Gvertmeshgroup@vertmodel@@UEAAPEAXI@Z 0000000140050670 f i rendermodel.obj
 0001:0004f6b0       ??1skelmodel@@UEAA@XZ      00000001400506b0 f i rendermodel.obj
 0001:0004f6b0       ??1vertmodel@@UEAA@XZ      00000001400506b0 f i rendermodel.obj
 0001:0004f6d0       ?sortcmp@blendcombo@skelmodel@@SA_NAEBU12@0@Z 00000001400506d0 f i rendermodel.obj
 0001:0004f710       ?serialize@blendcombo@skelmodel@@QEAAXAEAUvvertw@2@@Z 0000000140050710 f i rendermodel.obj
 0001:0004f8d0       ??8animcacheentry@skelmodel@@QEBA_NAEBU01@@Z 00000001400508d0 f i rendermodel.obj
 0001:0004f9e0       ?nextversion@skelcacheentry@skelmodel@@QEAAXXZ 00000001400509e0 f i rendermodel.obj
 0001:0004fab0       ??1skelmesh@skelmodel@@UEAA@XZ 0000000140050ab0 f i rendermodel.obj
 0001:0004fb30       ?calcbb@skelmesh@skelmodel@@UEAAXAEAUvec@@0AEBUmatrix4x3@@@Z 0000000140050b30 f i rendermodel.obj
 0001:0004fca0       ?genBIH@skelmesh@skelmodel@@UEAAXAEAUmesh@BIH@@@Z 0000000140050ca0 f i rendermodel.obj
 0001:0004fcf0       ?interpverts@skelmesh@skelmodel@@QEAAXPEIBUdualquat@@0_NPEIAXAEAUskin@animmodel@@@Z 0000000140050cf0 f i rendermodel.obj
 0001:000502a0       ?setshader@skelmesh@skelmodel@@UEAAXPEAUShader@@@Z 00000001400512a0 f i rendermodel.obj
 0001:00050380       ??0boneinfo@skelmodel@@QEAA@XZ 0000000140051380 f i rendermodel.obj
 0001:000503c0       ??0skeleton@skelmodel@@QEAA@XZ 00000001400513c0 f i rendermodel.obj
 0001:000504a0       ??1skeleton@skelmodel@@QEAA@XZ 00000001400514a0 f i rendermodel.obj
 0001:000506b0       ?findskelanim@skeleton@skelmodel@@QEAAPEAUskelanimspec@2@PEBDD@Z 00000001400516b0 f i rendermodel.obj
 0001:000507b0       ?addskelanim@skeleton@skelmodel@@QEAAAEAUskelanimspec@2@PEBD@Z 00000001400517b0 f i rendermodel.obj
 0001:000508c0       ?findbone@skeleton@skelmodel@@QEAAHPEBD@Z 00000001400518c0 f i rendermodel.obj
 0001:00050930       ?findtag@skeleton@skelmodel@@QEAAHPEBD@Z 0000000140051930 f i rendermodel.obj
 0001:000509b0       ?addtag@skeleton@skelmodel@@QEAA_NPEBDHAEBUmatrix4x3@@@Z 00000001400519b0 f i rendermodel.obj
 0001:00050b20       ?calcantipodes@skeleton@skelmodel@@QEAAXXZ 0000000140051b20 f i rendermodel.obj
 0001:00050e40       ?remapbones@skeleton@skelmodel@@QEAAXXZ 0000000140051e40 f i rendermodel.obj
 0001:00051650       ?addpitchdep@skeleton@skelmodel@@QEAAXHH@Z 0000000140052650 f i rendermodel.obj
 0001:00051890       ?initpitchdeps@skeleton@skelmodel@@QEAAXXZ 0000000140052890 f i rendermodel.obj
 0001:00051c50       ?expandbonemask@skeleton@skelmodel@@QEAAXPEAEHH@Z 0000000140052c50 f i rendermodel.obj
 0001:00051cd0       ?linkchildren@skeleton@skelmodel@@QEAAXXZ 0000000140052cd0 f i rendermodel.obj
 0001:00051d30       ?calcdeviation@skeleton@skelmodel@@QEAAMAEBUvec@@0AEBUdualquat@@1@Z 0000000140052d30 f i rendermodel.obj
 0001:00051ff0       ?calcpitchcorrects@skeleton@skelmodel@@QEAAXMAEBUvec@@0@Z 0000000140052ff0 f i rendermodel.obj
 0001:00052240       ?interpbones@skeleton@skelmodel@@QEAAXPEBUanimstate@animmodel@@MAEBUvec@@1HPEBEAEAUskelcacheentry@2@@Z 0000000140053240 f i rendermodel.obj
 0001:00053230       ?initragdoll@skeleton@skelmodel@@QEAAXAEAUragdolldata@@AEAUskelcacheentry@2@PEAUpart@animmodel@@@Z 0000000140054230 f i rendermodel.obj
 0001:00053880       ?genragdollbones@skeleton@skelmodel@@QEAAXAEAUragdolldata@@AEAUskelcacheentry@2@PEAUpart@animmodel@@@Z 0000000140054880 f i rendermodel.obj
 0001:00053d80       ?calctags@skeleton@skelmodel@@QEAAXPEAUpart@animmodel@@PEAUskelcacheentry@2@@Z 0000000140054d80 f i rendermodel.obj
 0001:00054070       ?cleanup@skeleton@skelmodel@@QEAAX_N@Z 0000000140055070 f i rendermodel.obj
 0001:000541a0       ?checkskelcache@skeleton@skelmodel@@QEAAAEAUskelcacheentry@2@PEAUpart@animmodel@@PEBUanimstate@5@MAEBUvec@@2PEAUragdolldata@@@Z 00000001400551a0 f i rendermodel.obj
 0001:000545f0       ??0skelmeshgroup@skelmodel@@QEAA@XZ 00000001400555f0 f i rendermodel.obj
 0001:00054740       ??1skelmeshgroup@skelmodel@@UEAA@XZ 0000000140055740 f i rendermodel.obj
 0001:000548d0       ?shareskeleton@skelmeshgroup@skelmodel@@QEAAXPEAD@Z 00000001400558d0 f i rendermodel.obj
 0001:00054bb0       ?findtag@skelmeshgroup@skelmodel@@UEAAHPEBD@Z 0000000140055bb0 f i rendermodel.obj
 0001:00054bc0       ?animkey@skelmeshgroup@skelmodel@@UEAAPEAXXZ 0000000140055bc0 f i rendermodel.obj
 0001:00054bd0       ?totalframes@skelmeshgroup@skelmodel@@UEBAHXZ 0000000140055bd0 f i rendermodel.obj
 0001:00054bf0       ?genvbo@skelmeshgroup@skelmodel@@QEAAX_NAEAUvbocacheentry@2@@Z 0000000140055bf0 f i rendermodel.obj
 0001:00055c30       ?bindvbo@skelmeshgroup@skelmodel@@QEAAXPEBUanimstate@animmodel@@AEAUvbocacheentry@2@PEAUskelcacheentry@2@PEAUblendcacheentry@2@@Z 0000000140056c30 f i rendermodel.obj
 0001:00055dc0       ?concattagtransform@skelmeshgroup@skelmodel@@UEAAXPEAUpart@animmodel@@HAEBUmatrix4x3@@AEAU5@@Z 0000000140056dc0 f i rendermodel.obj
 0001:00055f00       ?addblendcombo@skelmeshgroup@skelmodel@@QEAAHAEBUblendcombo@2@@Z 0000000140056f00 f i rendermodel.obj
 0001:000560d0       ?sortblendcombos@skelmeshgroup@skelmodel@@QEAAXXZ 00000001400570d0 f i rendermodel.obj
 0001:000561d0       ?blendbones@skelmeshgroup@skelmodel@@QEAAXAEBUskelcacheentry@2@AEAUblendcacheentry@2@@Z 00000001400571d0 f i rendermodel.obj
 0001:000563d0       ?cleanup@skelmeshgroup@skelmodel@@UEAAXXZ 00000001400573d0 f i rendermodel.obj
 0001:00056550       ?preload@skelmeshgroup@skelmodel@@UEAAXPEAUpart@animmodel@@@Z 0000000140057550 f i rendermodel.obj
 0001:000566e0       ?render@skelmeshgroup@skelmodel@@UEAAXPEBUanimstate@animmodel@@MAEBUvec@@1PEAUdynent@@PEAUpart@4@@Z 00000001400576e0 f i rendermodel.obj
 0001:000570d0       ?initanimparts@skelpart@skelmodel@@QEAAXXZ 00000001400580d0 f i rendermodel.obj
 0001:00057150       ?addanimpart@skelpart@skelmodel@@QEAA_NPEAG@Z 0000000140058150 f i rendermodel.obj
 0001:000572b0       ?loaded@skelpart@skelmodel@@UEAAXXZ 00000001400582b0 f i rendermodel.obj
 0001:00057450       ?linktype@skelmodel@@UEBAHPEAUanimmodel@@@Z 0000000140058450 f i rendermodel.obj
 0001:000574d0       ?addpart@skelmodel@@QEAAAEAUskelpart@1@XZ 00000001400584d0 f i rendermodel.obj
 0001:00057590       ??_Eskelmesh@skelmodel@@UEAAPEAXI@Z 0000000140058590 f i * CIL library *:* CIL module *
 0001:00057590       ??_Gskelmesh@skelmodel@@UEAAPEAXI@Z 0000000140058590 f i rendermodel.obj
 0001:000575d0       ??1?$hashset@H@@QEAA@XZ    00000001400585d0 f i rendermodel.obj
 0001:000575d0       ??1?$hashtable@IH@@QEAA@XZ 00000001400585d0 f i rendermodel.obj
 0001:00057630       ??_Eskelmeshgroup@skelmodel@@UEAAPEAXI@Z 0000000140058630 f i * CIL library *:* CIL module *
 0001:00057630       ??_Gskelmeshgroup@skelmodel@@UEAAPEAXI@Z 0000000140058630 f i rendermodel.obj
 0001:00057670       ??_Eskelpart@skelmodel@@UEAAPEAXI@Z 0000000140058670 f i * CIL library *:* CIL module *
 0001:00057670       ??_Gskelpart@skelmodel@@UEAAPEAXI@Z 0000000140058670 f i rendermodel.obj
 0001:000576d0       ??1ragdollskel@@QEAA@XZ    00000001400586d0 f i rendermodel.obj
 0001:000577c0       ?adjust@skeladjustment@@QEAAXAEAUdualquat@@@Z 00000001400587c0 f i rendermodel.obj
 0001:000579c0       ?genverts@md2meshgroup@md2@@QEAAXPEAHAEAU?$vector@Utcvert@vertmodel@@@@AEAU?$vector@G@@AEAU?$vector@Utri@vertmodel@@@@@Z 00000001400589c0 f i rendermodel.obj
 0001:00057fd0       ?load@md2meshgroup@md2@@QEAA_NPEBD@Z 0000000140058fd0 f i rendermodel.obj
 0001:00058500       ?getdefaultanim@md2part@md2@@UEAAXAEAUaniminfo@@HIPEAUdynent@@@Z 0000000140059500 f i rendermodel.obj
 0001:000585c0       ?loadmeshes@md2@@UEAAPEAUmeshgroup@animmodel@@PEBDPEAD@Z 00000001400595c0 f i rendermodel.obj
 0001:00058640       ?addpart@md2@@QEAAAEAUmd2part@1@XZ 0000000140059640 f i rendermodel.obj
 0001:000586f0       ?loaddefaultparts@md2@@UEAA_NXZ 00000001400596f0 f i rendermodel.obj
 0001:00058860       ??_Eiqm@@UEAAPEAXI@Z       0000000140059860 f i * CIL library *:* CIL module *
 0001:00058860       ??_Emd2@@UEAAPEAXI@Z       0000000140059860 f i * CIL library *:* CIL module *
 0001:00058860       ??_Emd3@@UEAAPEAXI@Z       0000000140059860 f i * CIL library *:* CIL module *
 0001:00058860       ??_Emd5@@UEAAPEAXI@Z       0000000140059860 f i * CIL library *:* CIL module *
 0001:00058860       ??_Eobj@@UEAAPEAXI@Z       0000000140059860 f i * CIL library *:* CIL module *
 0001:00058860       ??_Esmd@@UEAAPEAXI@Z       0000000140059860 f i * CIL library *:* CIL module *
 0001:00058860       ??_Giqm@@UEAAPEAXI@Z       0000000140059860 f i rendermodel.obj
 0001:00058860       ??_Gmd2@@UEAAPEAXI@Z       0000000140059860 f i rendermodel.obj
 0001:00058860       ??_Gmd3@@UEAAPEAXI@Z       0000000140059860 f i rendermodel.obj
 0001:00058860       ??_Gmd5@@UEAAPEAXI@Z       0000000140059860 f i rendermodel.obj
 0001:00058860       ??_Gobj@@UEAAPEAXI@Z       0000000140059860 f i rendermodel.obj
 0001:00058860       ??_Gsmd@@UEAAPEAXI@Z       0000000140059860 f i rendermodel.obj
 0001:000588a0       ??1?$skelloader@Uiqm@@@@UEAA@XZ 00000001400598a0 f i rendermodel.obj
 0001:000588a0       ??1?$skelloader@Umd5@@@@UEAA@XZ 00000001400598a0 f i rendermodel.obj
 0001:000588a0       ??1?$skelloader@Usmd@@@@UEAA@XZ 00000001400598a0 f i rendermodel.obj
 0001:000588a0       ??1?$vertloader@Umd2@@@@UEAA@XZ 00000001400598a0 f i rendermodel.obj
 0001:000588a0       ??1?$vertloader@Umd3@@@@UEAA@XZ 00000001400598a0 f i rendermodel.obj
 0001:000588a0       ??1?$vertloader@Uobj@@@@UEAA@XZ 00000001400598a0 f i rendermodel.obj
 0001:000588c0       ??_Emd2part@md2@@UEAAPEAXI@Z 00000001400598c0 f i * CIL library *:* CIL module *
 0001:000588c0       ??_Gmd2part@md2@@UEAAPEAXI@Z 00000001400598c0 f i rendermodel.obj
 0001:00058900       ??1?$modelloader@Uiqm@@Uskelmodel@@@@UEAA@XZ 0000000140059900 f i rendermodel.obj
 0001:00058900       ??1?$modelloader@Umd2@@Uvertmodel@@@@UEAA@XZ 0000000140059900 f i rendermodel.obj
 0001:00058900       ??1?$modelloader@Umd3@@Uvertmodel@@@@UEAA@XZ 0000000140059900 f i rendermodel.obj
 0001:00058900       ??1?$modelloader@Umd5@@Uskelmodel@@@@UEAA@XZ 0000000140059900 f i rendermodel.obj
 0001:00058900       ??1?$modelloader@Uobj@@Uvertmodel@@@@UEAA@XZ 0000000140059900 f i rendermodel.obj
 0001:00058900       ??1?$modelloader@Usmd@@Uskelmodel@@@@UEAA@XZ 0000000140059900 f i rendermodel.obj
 0001:00058920       ??_Emd2meshgroup@md2@@UEAAPEAXI@Z 0000000140059920 f i * CIL library *:* CIL module *
 0001:00058920       ??_Emd3meshgroup@md3@@UEAAPEAXI@Z 0000000140059920 f i * CIL library *:* CIL module *
 0001:00058920       ??_Eobjmeshgroup@obj@@UEAAPEAXI@Z 0000000140059920 f i * CIL library *:* CIL module *
 0001:00058920       ??_Gmd2meshgroup@md2@@UEAAPEAXI@Z 0000000140059920 f i rendermodel.obj
 0001:00058920       ??_Gmd3meshgroup@md3@@UEAAPEAXI@Z 0000000140059920 f i rendermodel.obj
 0001:00058920       ??_Gobjmeshgroup@obj@@UEAAPEAXI@Z 0000000140059920 f i rendermodel.obj
 0001:00058960       ?load@md3meshgroup@md3@@QEAA_NPEBD@Z 0000000140059960 f i rendermodel.obj
 0001:00059010       ?loadmeshes@md3@@UEAAPEAUmeshgroup@animmodel@@PEBDPEAD@Z 000000014005a010 f i rendermodel.obj
 0001:00059090       ?loaddefaultparts@md3@@UEAA_NXZ 000000014005a090 f i rendermodel.obj
 0001:000591a0       ?type@md5@@UEBAHXZ         000000014005a1a0 f i rendermodel.obj
 0001:000591b0       ?buildverts@md5mesh@md5@@QEAAXAEAU?$vector@Umd5joint@@@@@Z 000000014005a1b0 f i rendermodel.obj
 0001:00059720       ?load@md5mesh@md5@@QEAAXPEAUstream@@PEAD_K@Z 000000014005a720 f i rendermodel.obj
 0001:00059bc0       ?loadmesh@md5meshgroup@md5@@QEAA_NPEBDM@Z 000000014005abc0 f i rendermodel.obj
 0001:0005a390       ?loadanim@md5meshgroup@md5@@UEAAPEAUskelanimspec@skelmodel@@PEBD@Z 000000014005b390 f i rendermodel.obj
 0001:0005b0d0       ?loadmeshes@md5@@UEAAPEAUmeshgroup@animmodel@@PEBDPEAD@Z 000000014005c0d0 f i rendermodel.obj
 0001:0005b180       ?loaddefaultparts@md5@@UEAA_NXZ 000000014005c180 f i rendermodel.obj
 0001:0005b2a0       ??_Emd5mesh@md5@@UEAAPEAXI@Z 000000014005c2a0 f i * CIL library *:* CIL module *
 0001:0005b2a0       ??_Gmd5mesh@md5@@UEAAPEAXI@Z 000000014005c2a0 f i rendermodel.obj
 0001:0005b320       ??_Eiqmmeshgroup@iqm@@UEAAPEAXI@Z 000000014005c320 f i * CIL library *:* CIL module *
 0001:0005b320       ??_Emd5meshgroup@md5@@UEAAPEAXI@Z 000000014005c320 f i * CIL library *:* CIL module *
 0001:0005b320       ??_Esmdmeshgroup@smd@@UEAAPEAXI@Z 000000014005c320 f i * CIL library *:* CIL module *
 0001:0005b320       ??_Giqmmeshgroup@iqm@@UEAAPEAXI@Z 000000014005c320 f i rendermodel.obj
 0001:0005b320       ??_Gmd5meshgroup@md5@@UEAAPEAXI@Z 000000014005c320 f i rendermodel.obj
 0001:0005b320       ??_Gsmdmeshgroup@smd@@UEAAPEAXI@Z 000000014005c320 f i rendermodel.obj
 0001:0005b360       ?type@obj@@UEBAHXZ         000000014005c360 f i rendermodel.obj
 0001:0005b370       ?parsevert@objmeshgroup@obj@@QEAAXPEADAEAU?$vector@Uvec@@@@@Z 000000014005c370 f i rendermodel.obj
 0001:0005b450       ?load@objmeshgroup@obj@@QEAA_NPEBDM@Z 000000014005c450 f i rendermodel.obj
 0001:0005c240       ?loadmeshes@obj@@UEAAPEAUmeshgroup@animmodel@@PEBDPEAD@Z 000000014005d240 f i rendermodel.obj
 0001:0005c2d0       ?loaddefaultparts@obj@@UEAA_NXZ 000000014005d2d0 f i rendermodel.obj
 0001:0005c3f0       ?type@smd@@UEBAHXZ         000000014005d3f0 f i rendermodel.obj
 0001:0005c400       ?skipsection@smdmeshgroup@smd@@QEAAXPEAUstream@@PEAD_K@Z 000000014005d400 f i rendermodel.obj
 0001:0005c520       ?readnodes@smdmeshgroup@smd@@QEAAXPEAUstream@@PEAD_KAEAU?$vector@Usmdbone@@@@@Z 000000014005d520 f i rendermodel.obj
 0001:0005c8f0       ?readtriangles@smdmeshgroup@smd@@QEAAXPEAUstream@@PEAD_K@Z 000000014005d8f0 f i rendermodel.obj
 0001:0005d7a0       ?readskeleton@smdmeshgroup@smd@@QEAAXPEAUstream@@PEAD_K@Z 000000014005e7a0 f i rendermodel.obj
 0001:0005dce0       ?loadmesh@smdmeshgroup@smd@@QEAA_NPEBD@Z 000000014005ece0 f i rendermodel.obj
 0001:0005e0a0       ?readframes@smdmeshgroup@smd@@QEAAHPEAUstream@@PEAD_KAEAU?$vector@Udualquat@@@@@Z 000000014005f0a0 f i rendermodel.obj
 0001:0005e910       ?loadanim@smdmeshgroup@smd@@UEAAPEAUskelanimspec@skelmodel@@PEBD@Z 000000014005f910 f i rendermodel.obj
 0001:0005ed60       ?loadmeshes@smd@@UEAAPEAUmeshgroup@animmodel@@PEBDPEAD@Z 000000014005fd60 f i rendermodel.obj
 0001:0005ee00       ?loaddefaultparts@smd@@UEAA_NXZ 000000014005fe00 f i rendermodel.obj
 0001:0005eed0       ??1?$hashtable@PEBDUsmdmeshdata@smdmeshgroup@smd@@@@QEAA@XZ 000000014005fed0 f i rendermodel.obj
 0001:0005eef0       ??_Esmdmesh@smd@@UEAAPEAXI@Z 000000014005fef0 f i * CIL library *:* CIL module *
 0001:0005eef0       ??_Gsmdmesh@smd@@UEAAPEAXI@Z 000000014005fef0 f i rendermodel.obj
 0001:0005ef30       ?type@iqm@@UEBAHXZ         000000014005ff30 f i rendermodel.obj
 0001:0005ef40       ?loadiqmmeshes@iqmmeshgroup@iqm@@QEAA_NPEBDAEBUiqmheader@@PEAE@Z 000000014005ff40 f i rendermodel.obj
 0001:0005ff30       ?loadiqmanims@iqmmeshgroup@iqm@@QEAA_NPEBDAEBUiqmheader@@PEAE@Z 0000000140060f30 f i rendermodel.obj
 0001:00060aa0       ?loadiqm@iqmmeshgroup@iqm@@QEAA_NPEBD_N1@Z 0000000140061aa0 f i rendermodel.obj
 0001:00060c20       ?loadanim@iqmmeshgroup@iqm@@UEAAPEAUskelanimspec@skelmodel@@PEBD@Z 0000000140061c20 f i rendermodel.obj
 0001:00060d10       ?loadmeshes@iqm@@UEAAPEAUmeshgroup@animmodel@@PEBDPEAD@Z 0000000140061d10 f i rendermodel.obj
 0001:00060db0       ?loaddefaultparts@iqm@@UEAA_NXZ 0000000140061db0 f i rendermodel.obj
 0001:00060e80       ??0?$skelcommands@Uiqm@@@@QEAA@XZ 0000000140061e80 f i rendermodel.obj
 0001:00061280       ?flushpart@?$skelloader@Uiqm@@@@UEAAXXZ 0000000140062280 f i rendermodel.obj
 0001:00061290       ?loadconfig@?$modelloader@Uiqm@@Uskelmodel@@@@UEAA_NXZ 0000000140062290 f i rendermodel.obj
 0001:00061300       ?endload@?$modelloader@Uiqm@@Uskelmodel@@@@UEAAXXZ 0000000140062300 f i rendermodel.obj
 0001:00061310       ?startload@?$modelloader@Uiqm@@Uskelmodel@@@@UEAAXXZ 0000000140062310 f i rendermodel.obj
 0001:00061320       ??0?$skelcommands@Usmd@@@@QEAA@XZ 0000000140062320 f i rendermodel.obj
 0001:00061720       ??1?$hashbase@U?$hashtable@PEBDUsmdmeshdata@smdmeshgroup@smd@@@@U?$hashtableentry@PEBDUsmdmeshdata@smdmeshgroup@smd@@@@PEBDUsmdmeshdata@smdmeshgroup@smd@@@@QEAA@XZ 0000000140062720 f i rendermodel.obj
 0001:000617a0       ?inrange@?$vector@Usmdbone@@@@QEBA_NH@Z 00000001400627a0 f i rendermodel.obj
 0001:000617b0       ?flushpart@?$skelloader@Usmd@@@@UEAAXXZ 00000001400627b0 f i rendermodel.obj
 0001:000617c0       ?loadconfig@?$modelloader@Usmd@@Uskelmodel@@@@UEAA_NXZ 00000001400627c0 f i rendermodel.obj
 0001:00061830       ?endload@?$modelloader@Usmd@@Uskelmodel@@@@UEAAXXZ 0000000140062830 f i rendermodel.obj
 0001:00061840       ?startload@?$modelloader@Usmd@@Uskelmodel@@@@UEAAXXZ 0000000140062840 f i rendermodel.obj
 0001:00061850       ?loadconfig@?$modelloader@Uobj@@Uvertmodel@@@@UEAA_NXZ 0000000140062850 f i rendermodel.obj
 0001:000618c0       ?endload@?$modelloader@Uobj@@Uvertmodel@@@@UEAAXXZ 00000001400628c0 f i rendermodel.obj
 0001:000618d0       ?startload@?$modelloader@Uobj@@Uvertmodel@@@@UEAAXXZ 00000001400628d0 f i rendermodel.obj
 0001:000618e0       ??0?$skelcommands@Umd5@@@@QEAA@XZ 00000001400628e0 f i rendermodel.obj
 0001:00061ce0       ?flushpart@?$skelloader@Umd5@@@@UEAAXXZ 0000000140062ce0 f i rendermodel.obj
 0001:00061cf0       ?loadconfig@?$modelloader@Umd5@@Uskelmodel@@@@UEAA_NXZ 0000000140062cf0 f i rendermodel.obj
 0001:00061d60       ?endload@?$modelloader@Umd5@@Uskelmodel@@@@UEAAXXZ 0000000140062d60 f i rendermodel.obj
 0001:00061d70       ?startload@?$modelloader@Umd5@@Uskelmodel@@@@UEAAXXZ 0000000140062d70 f i rendermodel.obj
 0001:00061d80       ?loadconfig@?$modelloader@Umd3@@Uvertmodel@@@@UEAA_NXZ 0000000140062d80 f i rendermodel.obj
 0001:00061df0       ?endload@?$modelloader@Umd3@@Uvertmodel@@@@UEAAXXZ 0000000140062df0 f i rendermodel.obj
 0001:00061e00       ?startload@?$modelloader@Umd3@@Uvertmodel@@@@UEAAXXZ 0000000140062e00 f i rendermodel.obj
 0001:00061e10       ?endload@?$modelloader@Umd2@@Uvertmodel@@@@UEAAXXZ 0000000140062e10 f i rendermodel.obj
 0001:00061e20       ?startload@?$modelloader@Umd2@@Uvertmodel@@@@UEAAXXZ 0000000140062e20 f i rendermodel.obj
 0001:00061e30       ??1?$vector@Utag@skelmodel@@@@QEAA@XZ 0000000140062e30 f i rendermodel.obj
 0001:00061ea0       ??1?$vector@Uskelanimspec@skelmodel@@@@QEAA@XZ 0000000140062ea0 f i rendermodel.obj
 0001:00061f10       ??1?$hashbase@U?$hashnameset@UTexture@@@@UTexture@@PEBDU2@@@QEAA@XZ 0000000140062f10 f i texture.obj
 0001:00061f10       ??1?$hashbase@U?$hashtable@Ushaderparams@animmodel@@Ushaderparamskey@2@@@U?$hashtableentry@Ushaderparams@animmodel@@Ushaderparamskey@2@@@Ushaderparams@animmodel@@Ushaderparamskey@4@@@QEAA@XZ 0000000140062f10 f i rendermodel.obj
 0001:00061f70       ?setadjust@?$skelcommands@Uiqm@@@@SAXPEADPEAM11111@Z 0000000140062f70 f i rendermodel.obj
 0001:00062100       ?setanimpart@?$skelcommands@Uiqm@@@@SAXPEAD@Z 0000000140063100 f i rendermodel.obj
 0001:00062430       ?setanim@?$skelcommands@Uiqm@@@@SAXPEAD0PEAMPEAH22@Z 0000000140063430 f i rendermodel.obj
 0001:00062660       ?setpitchcorrect@?$skelcommands@Uiqm@@@@SAXPEAD0PEAM11@Z 0000000140063660 f i rendermodel.obj
 0001:00062870       ?setpitchtarget@?$skelcommands@Uiqm@@@@SAXPEAD0PEAHPEAM2@Z 0000000140063870 f i rendermodel.obj
 0001:00062a10       ?setpitch@?$skelcommands@Uiqm@@@@SAXPEADPEAM111@Z 0000000140063a10 f i rendermodel.obj
 0001:00062bd0       ?settag@?$skelcommands@Uiqm@@@@SAXPEAD0PEAM11111@Z 0000000140063bd0 f i rendermodel.obj
 0001:00062ef0       ?loadpart@?$skelcommands@Uiqm@@@@SAXPEAD0PEAM@Z 0000000140063ef0 f i rendermodel.obj
 0001:00063040       ??0?$modelcommands@Uiqm@@Uskelmesh@skelmodel@@@@QEAA@XZ 0000000140064040 f i rendermodel.obj
 0001:000637f0       ?setadjust@?$skelcommands@Usmd@@@@SAXPEADPEAM11111@Z 00000001400647f0 f i rendermodel.obj
 0001:00063980       ?setanimpart@?$skelcommands@Usmd@@@@SAXPEAD@Z 0000000140064980 f i rendermodel.obj
 0001:00063cb0       ?setanim@?$skelcommands@Usmd@@@@SAXPEAD0PEAMPEAH22@Z 0000000140064cb0 f i rendermodel.obj
 0001:00063ee0       ?setpitchcorrect@?$skelcommands@Usmd@@@@SAXPEAD0PEAM11@Z 0000000140064ee0 f i rendermodel.obj
 0001:000640f0       ?setpitchtarget@?$skelcommands@Usmd@@@@SAXPEAD0PEAHPEAM2@Z 00000001400650f0 f i rendermodel.obj
 0001:00064290       ?setpitch@?$skelcommands@Usmd@@@@SAXPEADPEAM111@Z 0000000140065290 f i rendermodel.obj
 0001:00064450       ?settag@?$skelcommands@Usmd@@@@SAXPEAD0PEAM11111@Z 0000000140065450 f i rendermodel.obj
 0001:00064770       ?loadpart@?$skelcommands@Usmd@@@@SAXPEAD0PEAM@Z 0000000140065770 f i rendermodel.obj
 0001:000648c0       ??0?$modelcommands@Usmd@@Uskelmesh@skelmodel@@@@QEAA@XZ 00000001400658c0 f i rendermodel.obj
 0001:00065070       ?setpitch@?$vertcommands@Uobj@@@@SAXPEAM000@Z 0000000140066070 f i rendermodel.obj
 0001:00065120       ?loadpart@?$vertcommands@Uobj@@@@SAXPEADPEAM@Z 0000000140066120 f i rendermodel.obj
 0001:00065250       ??0?$modelcommands@Uobj@@Uvertmesh@vertmodel@@@@QEAA@XZ 0000000140066250 f i rendermodel.obj
 0001:00065a00       ?setadjust@?$skelcommands@Umd5@@@@SAXPEADPEAM11111@Z 0000000140066a00 f i rendermodel.obj
 0001:00065b90       ?setanimpart@?$skelcommands@Umd5@@@@SAXPEAD@Z 0000000140066b90 f i rendermodel.obj
 0001:00065ec0       ?setanim@?$skelcommands@Umd5@@@@SAXPEAD0PEAMPEAH22@Z 0000000140066ec0 f i rendermodel.obj
 0001:000660f0       ?setpitchcorrect@?$skelcommands@Umd5@@@@SAXPEAD0PEAM11@Z 00000001400670f0 f i rendermodel.obj
 0001:00066300       ?setpitchtarget@?$skelcommands@Umd5@@@@SAXPEAD0PEAHPEAM2@Z 0000000140067300 f i rendermodel.obj
 0001:000664a0       ?setpitch@?$skelcommands@Umd5@@@@SAXPEADPEAM111@Z 00000001400674a0 f i rendermodel.obj
 0001:00066660       ?settag@?$skelcommands@Umd5@@@@SAXPEAD0PEAM11111@Z 0000000140067660 f i rendermodel.obj
 0001:00066980       ?loadpart@?$skelcommands@Umd5@@@@SAXPEAD0PEAM@Z 0000000140067980 f i rendermodel.obj
 0001:00066ad0       ??0?$modelcommands@Umd5@@Uskelmesh@skelmodel@@@@QEAA@XZ 0000000140067ad0 f i rendermodel.obj
 0001:00067280       ?setanim@?$vertcommands@Umd3@@@@SAXPEADPEAH1PEAM1@Z 0000000140068280 f i rendermodel.obj
 0001:000673b0       ?setpitch@?$vertcommands@Umd3@@@@SAXPEAM000@Z 00000001400683b0 f i rendermodel.obj
 0001:00067460       ?loadpart@?$vertcommands@Umd3@@@@SAXPEADPEAM@Z 0000000140068460 f i rendermodel.obj
 0001:00067590       ??0?$modelcommands@Umd3@@Uvertmesh@vertmodel@@@@QEAA@XZ 0000000140068590 f i rendermodel.obj
 0001:00067d40       ?setanim@?$vertcommands@Umd2@@@@SAXPEADPEAH1PEAM1@Z 0000000140068d40 f i rendermodel.obj
 0001:00067e70       ?setpitch@?$vertcommands@Umd2@@@@SAXPEAM000@Z 0000000140068e70 f i rendermodel.obj
 0001:00067f20       ?growbuf@?$vector@Umesh@BIH@@@@QEAAXH@Z 0000000140068f20 f i rendermodel.obj
 0001:00067fd0       ??1chain@?$hashbase@U?$hashtable@PEBDUsmdmeshdata@smdmeshgroup@smd@@@@U?$hashtableentry@PEBDUsmdmeshdata@smdmeshgroup@smd@@@@PEBDUsmdmeshdata@smdmeshgroup@smd@@@@QEAA@XZ 0000000140068fd0 f i rendermodel.obj
 0001:00067ff0       ??1?$hashtableentry@PEBDUsmdmeshdata@smdmeshgroup@smd@@@@QEAA@XZ 0000000140068ff0 f i rendermodel.obj
 0001:00068050       ??1smdmeshdata@smdmeshgroup@smd@@QEAA@XZ 0000000140069050 f i rendermodel.obj
 0001:000680b0       ?setlink@?$modelcommands@Uiqm@@Uskelmesh@skelmodel@@@@SAXPEAH0PEADPEAM22@Z 00000001400690b0 f i rendermodel.obj
 0001:000681a0       ?setnoclip@?$modelcommands@Uiqm@@Uskelmesh@skelmodel@@@@SAXPEADPEAH@Z 00000001400691a0 f i rendermodel.obj
 0001:00068290       ?setscroll@?$modelcommands@Uiqm@@Uskelmesh@skelmodel@@@@SAXPEADPEAM1@Z 0000000140069290 f i rendermodel.obj
 0001:000683a0       ?setshader@?$modelcommands@Uiqm@@Uskelmesh@skelmodel@@@@SAXPEAD0@Z 00000001400693a0 f i rendermodel.obj
 0001:000684c0       ?setfullbright@?$modelcommands@Uiqm@@Uskelmesh@skelmodel@@@@SAXPEADPEAM@Z 00000001400694c0 f i rendermodel.obj
 0001:000685b0       ?setbumpmap@?$modelcommands@Uiqm@@Uskelmesh@skelmodel@@@@SAXPEAD0@Z 00000001400695b0 f i rendermodel.obj
 0001:000686c0       ?setenvmap@?$modelcommands@Uiqm@@Uskelmesh@skelmodel@@@@SAXPEAD0@Z 00000001400696c0 f i rendermodel.obj
 0001:000687c0       ?setcullface@?$modelcommands@Uiqm@@Uskelmesh@skelmodel@@@@SAXPEADPEAH@Z 00000001400697c0 f i rendermodel.obj
 0001:000688b0       ?setalphablend@?$modelcommands@Uiqm@@Uskelmesh@skelmodel@@@@SAXPEADPEAH@Z 00000001400698b0 f i rendermodel.obj
 0001:000689a0       ?setalphatest@?$modelcommands@Uiqm@@Uskelmesh@skelmodel@@@@SAXPEADPEAM@Z 00000001400699a0 f i rendermodel.obj
 0001:00068ab0       ?setglare@?$modelcommands@Uiqm@@Uskelmesh@skelmodel@@@@SAXPEADPEAM1@Z 0000000140069ab0 f i rendermodel.obj
 0001:00068bc0       ?setglow@?$modelcommands@Uiqm@@Uskelmesh@skelmodel@@@@SAXPEADPEAH1PEAM@Z 0000000140069bc0 f i rendermodel.obj
 0001:00068d00       ?setambient@?$modelcommands@Uiqm@@Uskelmesh@skelmodel@@@@SAXPEADPEAH@Z 0000000140069d00 f i rendermodel.obj
 0001:00068e00       ?setspec@?$modelcommands@Uiqm@@Uskelmesh@skelmodel@@@@SAXPEADPEAH@Z 0000000140069e00 f i rendermodel.obj
 0001:00068f00       ?setskin@?$modelcommands@Uiqm@@Uskelmesh@skelmodel@@@@SAXPEAD00PEAM1@Z 0000000140069f00 f i rendermodel.obj
 0001:00069090       ?setdir@?$modelcommands@Uiqm@@Uskelmesh@skelmodel@@@@SAXPEAD@Z 000000014006a090 f i rendermodel.obj
 0001:000690d0       ?setlink@?$modelcommands@Usmd@@Uskelmesh@skelmodel@@@@SAXPEAH0PEADPEAM22@Z 000000014006a0d0 f i rendermodel.obj
 0001:000691c0       ?setnoclip@?$modelcommands@Usmd@@Uskelmesh@skelmodel@@@@SAXPEADPEAH@Z 000000014006a1c0 f i rendermodel.obj
 0001:000692b0       ?setscroll@?$modelcommands@Usmd@@Uskelmesh@skelmodel@@@@SAXPEADPEAM1@Z 000000014006a2b0 f i rendermodel.obj
 0001:000693c0       ?setshader@?$modelcommands@Usmd@@Uskelmesh@skelmodel@@@@SAXPEAD0@Z 000000014006a3c0 f i rendermodel.obj
 0001:000694e0       ?setfullbright@?$modelcommands@Usmd@@Uskelmesh@skelmodel@@@@SAXPEADPEAM@Z 000000014006a4e0 f i rendermodel.obj
 0001:000695d0       ?setbumpmap@?$modelcommands@Usmd@@Uskelmesh@skelmodel@@@@SAXPEAD0@Z 000000014006a5d0 f i rendermodel.obj
 0001:000696e0       ?setenvmap@?$modelcommands@Usmd@@Uskelmesh@skelmodel@@@@SAXPEAD0@Z 000000014006a6e0 f i rendermodel.obj
 0001:000697e0       ?setcullface@?$modelcommands@Usmd@@Uskelmesh@skelmodel@@@@SAXPEADPEAH@Z 000000014006a7e0 f i rendermodel.obj
 0001:000698d0       ?setalphablend@?$modelcommands@Usmd@@Uskelmesh@skelmodel@@@@SAXPEADPEAH@Z 000000014006a8d0 f i rendermodel.obj
 0001:000699c0       ?setalphatest@?$modelcommands@Usmd@@Uskelmesh@skelmodel@@@@SAXPEADPEAM@Z 000000014006a9c0 f i rendermodel.obj
 0001:00069ad0       ?setglare@?$modelcommands@Usmd@@Uskelmesh@skelmodel@@@@SAXPEADPEAM1@Z 000000014006aad0 f i rendermodel.obj
 0001:00069be0       ?setglow@?$modelcommands@Usmd@@Uskelmesh@skelmodel@@@@SAXPEADPEAH1PEAM@Z 000000014006abe0 f i rendermodel.obj
 0001:00069d20       ?setambient@?$modelcommands@Usmd@@Uskelmesh@skelmodel@@@@SAXPEADPEAH@Z 000000014006ad20 f i rendermodel.obj
 0001:00069e20       ?setspec@?$modelcommands@Usmd@@Uskelmesh@skelmodel@@@@SAXPEADPEAH@Z 000000014006ae20 f i rendermodel.obj
 0001:00069f20       ?setskin@?$modelcommands@Usmd@@Uskelmesh@skelmodel@@@@SAXPEAD00PEAM1@Z 000000014006af20 f i rendermodel.obj
 0001:0006a0b0       ?setdir@?$modelcommands@Usmd@@Uskelmesh@skelmodel@@@@SAXPEAD@Z 000000014006b0b0 f i rendermodel.obj
 0001:0006a0f0       ?setlink@?$modelcommands@Uobj@@Uvertmesh@vertmodel@@@@SAXPEAH0PEADPEAM22@Z 000000014006b0f0 f i rendermodel.obj
 0001:0006a1e0       ?setnoclip@?$modelcommands@Uobj@@Uvertmesh@vertmodel@@@@SAXPEADPEAH@Z 000000014006b1e0 f i rendermodel.obj
 0001:0006a2d0       ?setscroll@?$modelcommands@Uobj@@Uvertmesh@vertmodel@@@@SAXPEADPEAM1@Z 000000014006b2d0 f i rendermodel.obj
 0001:0006a3e0       ?setshader@?$modelcommands@Uobj@@Uvertmesh@vertmodel@@@@SAXPEAD0@Z 000000014006b3e0 f i rendermodel.obj
 0001:0006a500       ?setfullbright@?$modelcommands@Uobj@@Uvertmesh@vertmodel@@@@SAXPEADPEAM@Z 000000014006b500 f i rendermodel.obj
 0001:0006a5f0       ?setbumpmap@?$modelcommands@Uobj@@Uvertmesh@vertmodel@@@@SAXPEAD0@Z 000000014006b5f0 f i rendermodel.obj
 0001:0006a700       ?setenvmap@?$modelcommands@Uobj@@Uvertmesh@vertmodel@@@@SAXPEAD0@Z 000000014006b700 f i rendermodel.obj
 0001:0006a800       ?setcullface@?$modelcommands@Uobj@@Uvertmesh@vertmodel@@@@SAXPEADPEAH@Z 000000014006b800 f i rendermodel.obj
 0001:0006a8f0       ?setalphablend@?$modelcommands@Uobj@@Uvertmesh@vertmodel@@@@SAXPEADPEAH@Z 000000014006b8f0 f i rendermodel.obj
 0001:0006a9e0       ?setalphatest@?$modelcommands@Uobj@@Uvertmesh@vertmodel@@@@SAXPEADPEAM@Z 000000014006b9e0 f i rendermodel.obj
 0001:0006aaf0       ?setglare@?$modelcommands@Uobj@@Uvertmesh@vertmodel@@@@SAXPEADPEAM1@Z 000000014006baf0 f i rendermodel.obj
 0001:0006ac00       ?setglow@?$modelcommands@Uobj@@Uvertmesh@vertmodel@@@@SAXPEADPEAH1PEAM@Z 000000014006bc00 f i rendermodel.obj
 0001:0006ad40       ?setambient@?$modelcommands@Uobj@@Uvertmesh@vertmodel@@@@SAXPEADPEAH@Z 000000014006bd40 f i rendermodel.obj
 0001:0006ae40       ?setspec@?$modelcommands@Uobj@@Uvertmesh@vertmodel@@@@SAXPEADPEAH@Z 000000014006be40 f i rendermodel.obj
 0001:0006af40       ?setskin@?$modelcommands@Uobj@@Uvertmesh@vertmodel@@@@SAXPEAD00PEAM1@Z 000000014006bf40 f i rendermodel.obj
 0001:0006b0d0       ?setdir@?$modelcommands@Uobj@@Uvertmesh@vertmodel@@@@SAXPEAD@Z 000000014006c0d0 f i rendermodel.obj
 0001:0006b110       ?setlink@?$modelcommands@Umd5@@Uskelmesh@skelmodel@@@@SAXPEAH0PEADPEAM22@Z 000000014006c110 f i rendermodel.obj
 0001:0006b200       ?setnoclip@?$modelcommands@Umd5@@Uskelmesh@skelmodel@@@@SAXPEADPEAH@Z 000000014006c200 f i rendermodel.obj
 0001:0006b2f0       ?setscroll@?$modelcommands@Umd5@@Uskelmesh@skelmodel@@@@SAXPEADPEAM1@Z 000000014006c2f0 f i rendermodel.obj
 0001:0006b400       ?setshader@?$modelcommands@Umd5@@Uskelmesh@skelmodel@@@@SAXPEAD0@Z 000000014006c400 f i rendermodel.obj
 0001:0006b520       ?setfullbright@?$modelcommands@Umd5@@Uskelmesh@skelmodel@@@@SAXPEADPEAM@Z 000000014006c520 f i rendermodel.obj
 0001:0006b610       ?setbumpmap@?$modelcommands@Umd5@@Uskelmesh@skelmodel@@@@SAXPEAD0@Z 000000014006c610 f i rendermodel.obj
 0001:0006b720       ?setenvmap@?$modelcommands@Umd5@@Uskelmesh@skelmodel@@@@SAXPEAD0@Z 000000014006c720 f i rendermodel.obj
 0001:0006b820       ?setcullface@?$modelcommands@Umd5@@Uskelmesh@skelmodel@@@@SAXPEADPEAH@Z 000000014006c820 f i rendermodel.obj
 0001:0006b910       ?setalphablend@?$modelcommands@Umd5@@Uskelmesh@skelmodel@@@@SAXPEADPEAH@Z 000000014006c910 f i rendermodel.obj
 0001:0006ba00       ?setalphatest@?$modelcommands@Umd5@@Uskelmesh@skelmodel@@@@SAXPEADPEAM@Z 000000014006ca00 f i rendermodel.obj
 0001:0006bb10       ?setglare@?$modelcommands@Umd5@@Uskelmesh@skelmodel@@@@SAXPEADPEAM1@Z 000000014006cb10 f i rendermodel.obj
 0001:0006bc20       ?setglow@?$modelcommands@Umd5@@Uskelmesh@skelmodel@@@@SAXPEADPEAH1PEAM@Z 000000014006cc20 f i rendermodel.obj
 0001:0006bd60       ?setambient@?$modelcommands@Umd5@@Uskelmesh@skelmodel@@@@SAXPEADPEAH@Z 000000014006cd60 f i rendermodel.obj
 0001:0006be60       ?setspec@?$modelcommands@Umd5@@Uskelmesh@skelmodel@@@@SAXPEADPEAH@Z 000000014006ce60 f i rendermodel.obj
 0001:0006bf60       ?setskin@?$modelcommands@Umd5@@Uskelmesh@skelmodel@@@@SAXPEAD00PEAM1@Z 000000014006cf60 f i rendermodel.obj
 0001:0006c0f0       ?setdir@?$modelcommands@Umd5@@Uskelmesh@skelmodel@@@@SAXPEAD@Z 000000014006d0f0 f i rendermodel.obj
 0001:0006c130       ?setlink@?$modelcommands@Umd3@@Uvertmesh@vertmodel@@@@SAXPEAH0PEADPEAM22@Z 000000014006d130 f i rendermodel.obj
 0001:0006c220       ?setnoclip@?$modelcommands@Umd3@@Uvertmesh@vertmodel@@@@SAXPEADPEAH@Z 000000014006d220 f i rendermodel.obj
 0001:0006c310       ?setscroll@?$modelcommands@Umd3@@Uvertmesh@vertmodel@@@@SAXPEADPEAM1@Z 000000014006d310 f i rendermodel.obj
 0001:0006c420       ?setshader@?$modelcommands@Umd3@@Uvertmesh@vertmodel@@@@SAXPEAD0@Z 000000014006d420 f i rendermodel.obj
 0001:0006c540       ?setfullbright@?$modelcommands@Umd3@@Uvertmesh@vertmodel@@@@SAXPEADPEAM@Z 000000014006d540 f i rendermodel.obj
 0001:0006c630       ?setbumpmap@?$modelcommands@Umd3@@Uvertmesh@vertmodel@@@@SAXPEAD0@Z 000000014006d630 f i rendermodel.obj
 0001:0006c740       ?setenvmap@?$modelcommands@Umd3@@Uvertmesh@vertmodel@@@@SAXPEAD0@Z 000000014006d740 f i rendermodel.obj
 0001:0006c840       ?setcullface@?$modelcommands@Umd3@@Uvertmesh@vertmodel@@@@SAXPEADPEAH@Z 000000014006d840 f i rendermodel.obj
 0001:0006c930       ?setalphablend@?$modelcommands@Umd3@@Uvertmesh@vertmodel@@@@SAXPEADPEAH@Z 000000014006d930 f i rendermodel.obj
 0001:0006ca20       ?setalphatest@?$modelcommands@Umd3@@Uvertmesh@vertmodel@@@@SAXPEADPEAM@Z 000000014006da20 f i rendermodel.obj
 0001:0006cb30       ?setglare@?$modelcommands@Umd3@@Uvertmesh@vertmodel@@@@SAXPEADPEAM1@Z 000000014006db30 f i rendermodel.obj
 0001:0006cc40       ?setglow@?$modelcommands@Umd3@@Uvertmesh@vertmodel@@@@SAXPEADPEAH1PEAM@Z 000000014006dc40 f i rendermodel.obj
 0001:0006cd80       ?setambient@?$modelcommands@Umd3@@Uvertmesh@vertmodel@@@@SAXPEADPEAH@Z 000000014006dd80 f i rendermodel.obj
 0001:0006ce80       ?setspec@?$modelcommands@Umd3@@Uvertmesh@vertmodel@@@@SAXPEADPEAH@Z 000000014006de80 f i rendermodel.obj
 0001:0006cf80       ?setskin@?$modelcommands@Umd3@@Uvertmesh@vertmodel@@@@SAXPEAD00PEAM1@Z 000000014006df80 f i rendermodel.obj
 0001:0006d110       ?setdir@?$modelcommands@Umd3@@Uvertmesh@vertmodel@@@@SAXPEAD@Z 000000014006e110 f i rendermodel.obj
 0001:0006d150       ?setdir@?$modelcommands@Umd2@@Uvertmesh@vertmodel@@@@SAXPEAD@Z 000000014006e150 f i rendermodel.obj
 0001:0006d190       ?add@?$vector@Uskeladjustment@@@@QEAAAEAUskeladjustment@@AEBU2@@Z 000000014006e190 f i rendermodel.obj
 0001:0006d290       ?insert@?$vector@Upitchcorrect@skelmodel@@@@QEAAAEAUpitchcorrect@skelmodel@@HAEBU23@@Z 000000014006e290 f i rendermodel.obj
 0001:0006d400       ?add@?$vector@Upitchtarget@skelmodel@@@@QEAAAEAUpitchtarget@skelmodel@@XZ 000000014006e400 f i rendermodel.obj
 0001:0006d4c0       ??$smoothnorms@Uvert@vertmodel@@Utri@2@@mesh@animmodel@@QEAAXPEAUvert@vertmodel@@HPEAUtri@3@HM_N@Z 000000014006e4c0 f i rendermodel.obj
 0001:0006dce0       ??$genvbo@Uvvertbump@vertmodel@@@vertmesh@vertmodel@@QEAAHAEAU?$vector@G@@HAEAU?$vector@Uvvertbump@vertmodel@@@@PEAHH@Z 000000014006ece0 f i rendermodel.obj
 0001:0006e180       ??$genvbo@Uvvertn@vertmodel@@@vertmesh@vertmodel@@QEAAHAEAU?$vector@G@@HAEAU?$vector@Uvvertn@vertmodel@@@@PEAHH@Z 000000014006f180 f i rendermodel.obj
 0001:0006e5d0       ??$smoothnorms@Uvert@skelmodel@@Utri@2@@mesh@animmodel@@QEAAXPEAUvert@skelmodel@@HPEAUtri@3@HM_N@Z 000000014006f5d0 f i rendermodel.obj
 0001:0006edf0       ??$buildnorms@Uvert@skelmodel@@Utri@2@@mesh@animmodel@@QEAAXPEAUvert@skelmodel@@HPEAUtri@3@H_N@Z 000000014006fdf0 f i rendermodel.obj
 0001:0006f1e0       ??$calctangents@Ubumpvert@skelmodel@@Uvert@2@U32@Utri@2@@mesh@animmodel@@QEAAXPEAUbumpvert@skelmodel@@PEAUvert@3@1HPEAUtri@3@H_N@Z 00000001400701e0 f i rendermodel.obj
 0001:0006f920       ??$genvbo@Uvvertbump@skelmodel@@@skelmesh@skelmodel@@QEAAHAEAU?$vector@G@@HAEAU?$vector@Uvvertbump@skelmodel@@@@PEAHH@Z 0000000140070920 f i rendermodel.obj
 0001:0006fdc0       ??$genvbo@Uvvertn@skelmodel@@@skelmesh@skelmodel@@QEAAHAEAU?$vector@G@@HAEAU?$vector@Uvvertn@skelmodel@@@@PEAHH@Z 0000000140070dc0 f i rendermodel.obj
 0001:00070200       ??$access@PEBD@?$hashbase@U?$hashnameset@PEAUmodel@@@@PEAUmodel@@PEBDPEAU2@@@QEAAPEAPEAUmodel@@AEBQEBD@Z 0000000140071200 f i rendermodel.obj
 0001:00070290       ??$buildnorms@Uvert@vertmodel@@Utri@2@@mesh@animmodel@@QEAAXPEAUvert@vertmodel@@HPEAUtri@3@H_N@Z 0000000140071290 f i rendermodel.obj
 0001:00070670       ??$calctangents@Ubumpvert@vertmodel@@Uvert@2@Utcvert@2@Utri@2@@mesh@animmodel@@QEAAXPEAUbumpvert@vertmodel@@PEAUvert@3@PEAUtcvert@3@HPEAUtri@3@H_N@Z 0000000140071670 f i rendermodel.obj
 0001:00070db0       ?insert@?$hashbase@U?$hashnameset@PEAUmodel@@@@PEAUmodel@@PEBDPEAU2@@@QEAAPEAUchain@1@I@Z 0000000140071db0 f i rendermodel.obj
 0001:00070f50       ?insert@?$hashbase@U?$hashtable@PEBDUsmdmeshdata@smdmeshgroup@smd@@@@U?$hashtableentry@PEBDUsmdmeshdata@smdmeshgroup@smd@@@@PEBDUsmdmeshdata@smdmeshgroup@smd@@@@QEAAPEAUchain@1@I@Z 0000000140071f50 f i rendermodel.obj
 0001:000712c0       ?insert@?$hashbase@U?$hashnameset@PEAUskeleton@skelmodel@@@@PEAUskeleton@skelmodel@@PEBDPEAU23@@@QEAAPEAUchain@1@I@Z 00000001400722c0 f i rendermodel.obj
 0001:00071460       ?insert@?$hashbase@U?$hashnameset@PEAUmeshgroup@animmodel@@@@PEAUmeshgroup@animmodel@@PEBDPEAU23@@@QEAAPEAUchain@1@I@Z 0000000140072460 f i rendermodel.obj
 0001:00071600       ?insert@?$hashbase@U?$hashtable@Ushaderparams@animmodel@@Ushaderparamskey@2@@@U?$hashtableentry@Ushaderparams@animmodel@@Ushaderparamskey@2@@@Ushaderparams@animmodel@@Ushaderparamskey@4@@@QEAAPEAUchain@1@I@Z 0000000140072600 f i rendermodel.obj
 0001:000717c0       ??0chainchunk@?$hashbase@U?$hashtable@Ushaderparams@animmodel@@Ushaderparamskey@2@@@U?$hashtableentry@Ushaderparams@animmodel@@Ushaderparamskey@2@@@Ushaderparams@animmodel@@Ushaderparamskey@4@@@QEAA@XZ 00000001400727c0 f i rendermodel.obj
 0001:00071d60       ??0chain@?$hashbase@U?$hashtable@PEBDUsmdmeshdata@smdmeshgroup@smd@@@@U?$hashtableentry@PEBDUsmdmeshdata@smdmeshgroup@smd@@@@PEBDUsmdmeshdata@smdmeshgroup@smd@@@@QEAA@XZ 0000000140072d60 f i rendermodel.obj
 0001:00071d90       ??$convertmatrix@Umatrix3@@@quat@@QEAAXAEBUmatrix3@@@Z 0000000140072d90 f i rendermodel.obj
 0001:00071d90       ??$convertmatrix@Umatrix4x3@@@quat@@QEAAXAEBUmatrix4x3@@@Z 0000000140072d90 f i rendermodel.obj
 0001:00071f60       ??_Emodel@@UEAAPEAXI@Z     0000000140072f60 f i * CIL library *:* CIL module *
 0001:00071f60       ??_Gmodel@@UEAAPEAXI@Z     0000000140072f60 f i rendermodel.obj
 0001:00071fa0       ??0matrix3@@QEAA@AEBUquat@@@Z 0000000140072fa0 f i rendermodel.obj
 0001:00072100       ?mul@dualquat@@QEAAXAEBU1@@Z 0000000140073100 f i rendermodel.obj
 0001:00072190       ??0dualquat@@QEAA@AEBUquat@@AEBUvec@@@Z 0000000140073190 f i rendermodel.obj
 0001:000722c0       ?mulorient@dualquat@@QEAAXAEBUquat@@@Z 00000001400732c0 f i rendermodel.obj
 0001:00072430       ?mul@matrix4x3@@QEAAXAEBUmatrix3@@AEBU1@@Z 0000000140073430 f i rendermodel.obj
 0001:000726b0       ?invert@dualquat@@QEAAAEAU1@XZ 00000001400736b0 f i rendermodel.obj
 0001:000727c0       ??0matrix4x3@@QEAA@AEBUdualquat@@@Z 00000001400737c0 f i rendermodel.obj
 0001:00072ab0       ?mulorient@dualquat@@QEAAXAEBUquat@@AEBU1@@Z 0000000140073ab0 f i rendermodel.obj
 0001:00072fa0       ?accumulate@dualquat@@QEAAXAEBU1@M@Z 0000000140073fa0 f i rendermodel.obj
 0001:000730b0       ?rotate@quat@@QEBA?AUvec@@AEBU2@@Z 00000001400740b0 f i rendermodel.obj
 0001:000731d0       ?mul@quat@@QEAAAEAU1@AEBU1@0@Z 00000001400741d0 f i rendermodel.obj
 0001:000732c0       ?lerp@matrix4x3@@QEAAXAEBU1@0M@Z 00000001400742c0 f i rendermodel.obj
 0001:000733f0       ?mul@matrix4x3@@QEAAXAEBU1@0@Z 00000001400743f0 f i rendermodel.obj
 0001:000736a0       ??1model@@UEAA@XZ          00000001400746a0 f i rendermodel.obj
 0001:00073720       ?preloadBIH@model@@UEAAXXZ 0000000140074720 f i rendermodel.obj
 0001:00073730       ?rotate@matrix3@@QEAAXMMAEBUvec@@@Z 0000000140074730 f i rendermodel.obj
 0001:00073870       ?mul@matrix4@@QEAAXAEBU1@AEBUmatrix3@@@Z 0000000140074870 f i rendermodel.obj
 0001:00073b60       ?setvariant_@Shader@@QEAAXHHPEAU1@@Z 0000000140074b60 f i rendermodel.obj
 0001:00073c00       ?calcangleaxis@matrix3@@QEBA_NMAEAMAEAUvec@@M@Z 0000000140074c00 f i rendermodel.obj
 0001:00073e50       ?transposemul@matrix4x3@@QEAAXAEBU1@0@Z 0000000140074e50 f i rendermodel.obj
 0001:00074110       ?addblurtiles@rendertarget@@QEAA_NMMMMM@Z 0000000140075110 f i renderparticles.obj
 0001:00074300       ?debugscissor@rendertarget@@QEAAXHH_N@Z 0000000140075300 f i renderparticles.obj
 0001:00074540       ?debugblurtiles@rendertarget@@QEAAXHH_N@Z 0000000140075540 f i renderparticles.obj
 0001:00074960       ??1partrenderer@@UEAA@XZ   0000000140075960 f i renderparticles.obj
 0001:00074970       ?calc@partrenderer@@QEAAXPEAUparticle@@AEAH1AEAUvec@@2_N@Z 0000000140075970 f i renderparticles.obj
 0001:00074e50       ?debuginfo@partrenderer@@QEAAPEBDXZ 0000000140075e50 f i renderparticles.obj
 0001:00075110       ??_Epartrenderer@@UEAAPEAXI@Z 0000000140076110 f i * CIL library *:* CIL module *
 0001:00075110       ??_Gpartrenderer@@UEAAPEAXI@Z 0000000140076110 f i renderparticles.obj
 0001:00075140       ??1listrenderer@@UEAA@XZ   0000000140076140 f i renderparticles.obj
 0001:00075160       ?reset@listrenderer@@UEAAXXZ 0000000140076160 f i renderparticles.obj
 0001:000751e0       ?resettracked@listrenderer@@UEAAXPEAUphysent@@@Z 00000001400761e0 f i renderparticles.obj
 0001:00075230       ?addpart@listrenderer@@UEAAPEAUparticle@@AEBUvec@@0HHMH@Z 0000000140076230 f i renderparticles.obj
 0001:00075450       ?count@listrenderer@@UEAAHXZ 0000000140076450 f i renderparticles.obj
 0001:00075470       ?haswork@listrenderer@@UEAA_NXZ 0000000140076470 f i renderparticles.obj
 0001:00075480       ?render@listrenderer@@UEAAXXZ 0000000140076480 f i renderparticles.obj
 0001:000755a0       ??_Elistrenderer@@UEAAPEAXI@Z 00000001400765a0 f i * CIL library *:* CIL module *
 0001:000755a0       ??_Glistrenderer@@UEAAPEAXI@Z 00000001400765a0 f i renderparticles.obj
 0001:000755e0       ?startrender@meterrenderer@@UEAAXXZ 00000001400765e0 f i renderparticles.obj
 0001:00075610       ?endrender@meterrenderer@@UEAAXXZ 0000000140076610 f i renderparticles.obj
 0001:00075620       ?renderpart@meterrenderer@@UEAAXPEAUlistparticle@@AEBUvec@@1HH@Z 0000000140076620 f i renderparticles.obj
 0001:00076410       ??_Efireballrenderer@@UEAAPEAXI@Z 0000000140077410 f i * CIL library *:* CIL module *
 0001:00076410       ??_Elightningrenderer@@UEAAPEAXI@Z 0000000140077410 f i * CIL library *:* CIL module *
 0001:00076410       ??_Emeterrenderer@@UEAAPEAXI@Z 0000000140077410 f i * CIL library *:* CIL module *
 0001:00076410       ??_Etextrenderer@@UEAAPEAXI@Z 0000000140077410 f i * CIL library *:* CIL module *
 0001:00076410       ??_Gfireballrenderer@@UEAAPEAXI@Z 0000000140077410 f i renderparticles.obj
 0001:00076410       ??_Glightningrenderer@@UEAAPEAXI@Z 0000000140077410 f i renderparticles.obj
 0001:00076410       ??_Gmeterrenderer@@UEAAPEAXI@Z 0000000140077410 f i renderparticles.obj
 0001:00076410       ??_Gtextrenderer@@UEAAPEAXI@Z 0000000140077410 f i renderparticles.obj
 0001:00076450       ?killpart@textrenderer@@UEAAXPEAUlistparticle@@@Z 0000000140077450 f i renderparticles.obj
 0001:00076470       ?renderpart@textrenderer@@UEAAXPEAUlistparticle@@AEBUvec@@1HH@Z 0000000140077470 f i renderparticles.obj
 0001:00076770       ?colorformats@depthfxtexture@@UEBAPEBIXZ 0000000140077770 f i renderparticles.obj
 0001:000767b0       ?filter@depthfxtexture@@UEBA_NXZ 00000001400777b0 f i renderparticles.obj
 0001:000767c0       ?emulatehighprecision@depthfxtexture@@QEBA_NXZ 00000001400777c0 f i renderparticles.obj
 0001:000767e0       ?shouldrender@depthfxtexture@@UEAA_NXZ 00000001400777e0 f i renderparticles.obj
 0001:00076840       ?dorender@depthfxtexture@@UEAA_NXZ 0000000140077840 f i renderparticles.obj
 0001:000768f0       ?dodebug@depthfxtexture@@UEAAXHH@Z 00000001400778f0 f i renderparticles.obj
 0001:00076990       ?startrender@fireballrenderer@@UEAAXXZ 0000000140077990 f i renderparticles.obj
 0001:00076c00       ?endrender@fireballrenderer@@UEAAXXZ 0000000140077c00 f i renderparticles.obj
 0001:00076c40       ?cleanup@fireballrenderer@@UEAAXXZ 0000000140077c40 f i renderparticles.obj
 0001:00076ca0       ?finddepthfxranges@fireballrenderer@@QEAAHPEAPEAXPEAMHHAEAUvec@@2@Z 0000000140077ca0 f i renderparticles.obj
 0001:00077330       ?seedemitter@fireballrenderer@@UEAAXAEAUparticleemitter@@AEBUvec@@1HMH@Z 0000000140078330 f i renderparticles.obj
 0001:000773e0       ?renderpart@fireballrenderer@@UEAAXPEAUlistparticle@@AEBUvec@@1HH@Z 00000001400783e0 f i renderparticles.obj
 0001:00077e30       ?reset@flarerenderer@@UEAAXXZ 0000000140078e30 f i renderparticles.obj
 0001:00077e40       ?newflare@flarerenderer@@QEAAXAEAUvec@@AEBU2@EEEMM_N2@Z 0000000140078e40 f i renderparticles.obj
 0001:00077f50       ?makelightflares@flarerenderer@@QEAAXXZ 0000000140078f50 f i renderparticles.obj
 0001:00078270       ?count@flarerenderer@@UEAAHXZ 0000000140079270 f i renderparticles.obj
 0001:00078280       ?haswork@flarerenderer@@UEAA_NXZ 0000000140079280 f i renderparticles.obj
 0001:000782b0       ?render@flarerenderer@@UEAAXXZ 00000001400792b0 f i renderparticles.obj
 0001:00078a20       ??_Eflarerenderer@@UEAAPEAXI@Z 0000000140079a20 f i * CIL library *:* CIL module *
 0001:00078a20       ??_Gflarerenderer@@UEAAPEAXI@Z 0000000140079a20 f i renderparticles.obj
 0001:00078a80       ?startrender@lightningrenderer@@UEAAXXZ 0000000140079a80 f i renderparticles.obj
 0001:00078ac0       ?endrender@lightningrenderer@@UEAAXXZ 0000000140079ac0 f i renderparticles.obj
 0001:00078ad0       ?update@lightningrenderer@@UEAAXXZ 0000000140079ad0 f i renderparticles.obj
 0001:00078b30       ?seedemitter@lightningrenderer@@UEAAXAEAUparticleemitter@@AEBUvec@@1HMH@Z 0000000140079b30 f i renderparticles.obj
 0001:00078c40       ?renderpart@lightningrenderer@@UEAAXPEAUlistparticle@@AEBUvec@@1HH@Z 0000000140079c40 f i renderparticles.obj
 0001:00078d00       ?render@?$varenderer@$00@@UEAAXXZ 0000000140079d00 f i renderparticles.obj
 0001:00078d00       ?render@?$varenderer@$01@@UEAAXXZ 0000000140079d00 f i renderparticles.obj
 0001:00078d00       ?render@?$varenderer@$0A@@@UEAAXXZ 0000000140079d00 f i renderparticles.obj
 0001:00078ec0       ?update@?$varenderer@$00@@UEAAXXZ 0000000140079ec0 f i renderparticles.obj
 0001:00079060       ?seedemitter@?$varenderer@$00@@UEAAXAEAUparticleemitter@@AEBUvec@@1HMH@Z 000000014007a060 f i renderparticles.obj
 0001:00079320       ?addpart@?$varenderer@$00@@UEAAPEAUparticle@@AEBUvec@@0HHMH@Z 000000014007a320 f i renderparticles.obj
 0001:00079320       ?addpart@?$varenderer@$01@@UEAAPEAUparticle@@AEBUvec@@0HHMH@Z 000000014007a320 f i renderparticles.obj
 0001:00079320       ?addpart@?$varenderer@$0A@@@UEAAPEAUparticle@@AEBUvec@@0HHMH@Z 000000014007a320 f i renderparticles.obj
 0001:00079440       ?haswork@?$varenderer@$00@@UEAA_NXZ 000000014007a440 f i renderparticles.obj
 0001:00079440       ?haswork@?$varenderer@$01@@UEAA_NXZ 000000014007a440 f i renderparticles.obj
 0001:00079440       ?haswork@?$varenderer@$0A@@@UEAA_NXZ 000000014007a440 f i renderparticles.obj
 0001:00079450       ?count@?$varenderer@$00@@UEAAHXZ 000000014007a450 f i renderparticles.obj
 0001:00079450       ?count@?$varenderer@$01@@UEAAHXZ 000000014007a450 f i renderparticles.obj
 0001:00079450       ?count@?$varenderer@$0A@@@UEAAHXZ 000000014007a450 f i renderparticles.obj
 0001:00079460       ?resettracked@?$varenderer@$00@@UEAAXPEAUphysent@@@Z 000000014007a460 f i renderparticles.obj
 0001:00079460       ?resettracked@?$varenderer@$01@@UEAAXPEAUphysent@@@Z 000000014007a460 f i renderparticles.obj
 0001:00079460       ?resettracked@?$varenderer@$0A@@@UEAAXPEAUphysent@@@Z 000000014007a460 f i renderparticles.obj
 0001:000794c0       ?reset@?$varenderer@$00@@UEAAXXZ 000000014007a4c0 f i renderparticles.obj
 0001:000794c0       ?reset@?$varenderer@$01@@UEAAXXZ 000000014007a4c0 f i renderparticles.obj
 0001:000794c0       ?reset@?$varenderer@$0A@@@UEAAXXZ 000000014007a4c0 f i renderparticles.obj
 0001:000794e0       ?init@?$varenderer@$00@@UEAAXH@Z 000000014007a4e0 f i renderparticles.obj
 0001:000794e0       ?init@?$varenderer@$01@@UEAAXH@Z 000000014007a4e0 f i renderparticles.obj
 0001:000794e0       ?init@?$varenderer@$0A@@@UEAAXH@Z 000000014007a4e0 f i renderparticles.obj
 0001:000795d0       ?cleanup@?$varenderer@$00@@UEAAXXZ 000000014007a5d0 f i renderparticles.obj
 0001:000795d0       ?cleanup@?$varenderer@$01@@UEAAXXZ 000000014007a5d0 f i renderparticles.obj
 0001:000795d0       ?cleanup@?$varenderer@$0A@@@UEAAXXZ 000000014007a5d0 f i renderparticles.obj
 0001:00079600       ?update@?$varenderer@$01@@UEAAXXZ 000000014007a600 f i renderparticles.obj
 0001:000797a0       ?seedemitter@?$varenderer@$01@@UEAAXAEAUparticleemitter@@AEBUvec@@1HMH@Z 000000014007a7a0 f i renderparticles.obj
 0001:00079ae0       ?update@?$varenderer@$0A@@@UEAAXXZ 000000014007aae0 f i renderparticles.obj
 0001:00079c80       ?seedemitter@?$varenderer@$0A@@@UEAAXAEAUparticleemitter@@AEBUvec@@1HMH@Z 000000014007ac80 f i renderparticles.obj
 0001:0007a000       ??_E?$varenderer@$00@@UEAAPEAXI@Z 000000014007b000 f i * CIL library *:* CIL module *
 0001:0007a000       ??_E?$varenderer@$01@@UEAAPEAXI@Z 000000014007b000 f i * CIL library *:* CIL module *
 0001:0007a000       ??_E?$varenderer@$0A@@@UEAAPEAXI@Z 000000014007b000 f i * CIL library *:* CIL module *
 0001:0007a000       ??_G?$varenderer@$00@@UEAAPEAXI@Z 000000014007b000 f i renderparticles.obj
 0001:0007a000       ??_G?$varenderer@$01@@UEAAPEAXI@Z 000000014007b000 f i renderparticles.obj
 0001:0007a000       ??_G?$varenderer@$0A@@@UEAAPEAXI@Z 000000014007b000 f i renderparticles.obj
 0001:0007a030       ?genverts@?$varenderer@$00@@QEAAXPEAUparticle@@PEAUpartvert@@_N@Z 000000014007b030 f i renderparticles.obj
 0001:0007a760       ?genverts@?$varenderer@$01@@QEAAXPEAUparticle@@PEAUpartvert@@_N@Z 000000014007b760 f i renderparticles.obj
 0001:0007af70       ?genverts@?$varenderer@$0A@@@QEAAXPEAUparticle@@PEAUpartvert@@_N@Z 000000014007bf70 f i renderparticles.obj
 0001:0007b800       ??$concformatstring@$0BAE@@@YAXAEAY0BAE@DPEBDZZ 000000014007c800 f i renderparticles.obj
 0001:0007b880       ??1?$hashbase@U?$hashnameset@Ufont@@@@Ufont@@PEBDU2@@@QEAA@XZ 000000014007c880 f i rendertext.obj
 0001:0007b900       ??1chain@?$hashbase@U?$hashnameset@Ufont@@@@Ufont@@PEBDU2@@@QEAA@XZ 000000014007c900 f i rendertext.obj
 0001:0007b970       ??$access@PEBD@?$hashbase@U?$hashnameset@Ufont@@@@Ufont@@PEBDU2@@@QEAAPEAUfont@@AEBQEBD@Z 000000014007c970 f i rendertext.obj
 0001:0007ba00       ?insert@?$hashbase@U?$hashnameset@Ufont@@@@Ufont@@PEBDU2@@@QEAAPEAUchain@1@I@Z 000000014007ca00 f i rendertext.obj
 0001:0007bbe0       ??0chain@?$hashbase@U?$hashnameset@Ufont@@@@Ufont@@PEBDU2@@@QEAA@XZ 000000014007cbe0 f i rendertext.obj
 0001:0007bc10       ??1font@@QEAA@XZ           000000014007cc10 f i rendertext.obj
 0001:0007bc70       ??0geombatch@@QEAA@AEBUelementset@@PEAGPEAUvtxarray@@@Z 000000014007cc70 f i renderva.obj
 0001:0007bd30       ?add@?$vector@Ugeombatch@@@@QEAAAEAUgeombatch@@AEBU2@@Z 000000014007cd30 f i renderva.obj
 0001:0007be70       ??1?$hashbase@U?$hashnameset@UShader@@@@UShader@@PEBDU2@@@QEAA@XZ 000000014007ce70 f i shader.obj
 0001:0007bef0       ??1?$hashbase@U?$hashnameset@UGlobalShaderParamState@@@@UGlobalShaderParamState@@PEBDU2@@@QEAA@XZ 000000014007cef0 f i shader.obj
 0001:0007bf50       ?growbuf@?$vector@UUniformLoc@@@@QEAAXH@Z 000000014007cf50 f i shader.obj
 0001:0007c000       ??1chain@?$hashbase@U?$hashnameset@UShader@@@@UShader@@PEBDU2@@@QEAA@XZ 000000014007d000 f i shader.obj
 0001:0007c020       ??$access@PEAD@?$hashbase@U?$hashnameset@UShader@@@@UShader@@PEBDU2@@@QEAAPEAUShader@@AEBQEAD@Z 000000014007d020 f i shader.obj
 0001:0007c020       ??$access@PEBD@?$hashbase@U?$hashnameset@UShader@@@@UShader@@PEBDU2@@@QEAAPEAUShader@@AEBQEBD@Z 000000014007d020 f i shader.obj
 0001:0007c0b0       ??$access@PEBD@?$hashbase@U?$hashnameset@UGlobalShaderParamState@@@@UGlobalShaderParamState@@PEBDU2@@@QEAAPEAUGlobalShaderParamState@@AEBQEBD@Z 000000014007d0b0 f i shader.obj
 0001:0007c140       ??$?APEAD@?$hashbase@U?$hashnameset@UShader@@@@UShader@@PEBDU2@@@QEAAAEAUShader@@AEBQEAD@Z 000000014007d140 f i shader.obj
 0001:0007c1d0       ?insert@?$hashbase@U?$hashnameset@UShader@@@@UShader@@PEBDU2@@@QEAAPEAUchain@1@I@Z 000000014007d1d0 f i shader.obj
 0001:0007c3d0       ?insert@?$hashbase@U?$hashtable@PEBDH@@U?$hashtableentry@PEBDH@@PEBDH@@QEAAPEAUchain@1@I@Z 000000014007d3d0 f i shader.obj
 0001:0007c710       ?insert@?$hashbase@U?$hashnameset@UGlobalShaderParamState@@@@UGlobalShaderParamState@@PEBDU2@@@QEAAPEAUchain@1@I@Z 000000014007d710 f i shader.obj
 0001:0007cb30       ??0chain@?$hashbase@U?$hashnameset@UShader@@@@UShader@@PEBDU2@@@QEAA@XZ 000000014007db30 f i shader.obj
 0001:0007cb50       ??0Shader@@QEAA@XZ         000000014007db50 f i shader.obj
 0001:0007cc10       ??1Shader@@QEAA@XZ         000000014007dc10 f i shader.obj
 0001:0007cd70       ?addvariant@Shader@@QEAAXHPEAU1@@Z 000000014007dd70 f i shader.obj
 0001:0007cff0       fprintf                    000000014007dff0 f i shader.obj
 0001:0007d040       ?colorformats@shadowmaptexture@@UEBAPEBIXZ 000000014007e040 f i shadowmap.obj
 0001:0007d080       ?scissorblur@shadowmaptexture@@UEAA_NAEAH000@Z 000000014007e080 f i shadowmap.obj
 0001:0007d280       ?scissorrender@shadowmaptexture@@UEAA_NAEAH000@Z 000000014007e280 f i shadowmap.obj
 0001:0007d2b0       ?doclear@shadowmaptexture@@UEAAXXZ 000000014007e2b0 f i shadowmap.obj
 0001:0007d2e0       ?dorender@shadowmaptexture@@UEAA_NXZ 000000014007e2e0 f i shadowmap.obj
 0001:0007d9f0       ?dodebug@shadowmaptexture@@UEAAXHH@Z 000000014007e9f0 f i shadowmap.obj
 0001:0007da80       ?projective@matrix4@@QEAAXMM@Z 000000014007ea80 f i shadowmap.obj
 0001:0007dbb0       ??1MSlot@@QEAA@XZ          000000014007ebb0 f i texture.obj
 0001:0007dc30       ??$access@PEAD@?$hashbase@U?$hashnameset@UTexture@@@@UTexture@@PEBDU2@@@QEAAPEAUTexture@@AEBQEAD@Z 000000014007ec30 f i texture.obj
 0001:0007dcc0       ?insert@?$hashbase@U?$hashnameset@UTexture@@@@UTexture@@PEBDU2@@@QEAAPEAUchain@1@I@Z 000000014007ecc0 f i texture.obj
 0001:0007e030       ??_GImageData@@QEAAPEAXI@Z 000000014007f030 f i texture.obj
 0001:0007e090       ?reset@Slot@@QEAAXXZ       000000014007f090 f i texture.obj
 0001:0007e130       ??0Slot@@QEAA@H@Z          000000014007f130 f i texture.obj
 0001:0007e1d0       ??1Slot@@QEAA@XZ           000000014007f1d0 f i texture.obj
 0001:0007e230       ??0MSlot@@QEAA@XZ          000000014007f230 f i texture.obj
 0001:0007e270       ?wrap@ImageData@@QEAAXPEAUSDL_Surface@@@Z 000000014007f270 f i texture.obj
 0001:0007e310       ?strrchr@@YAPEADQEADH@Z    000000014007f310 f i texture.obj
 0001:0007e320       ??0Reflection@@QEAA@XZ     000000014007f320 f i water.obj
 0001:0007e350       ??1Reflection@@QEAA@XZ     000000014007f350 f i water.obj
 0001:0007e380       ??1?$hashbase@U?$hashnameset@Uident@@@@Uident@@PEBDU2@@@QEAA@XZ 000000014007f380 f i command.obj
 0001:0007e3e0       ??$access@PEAD@?$hashbase@U?$hashnameset@Uident@@@@Uident@@PEBDU2@@@QEAAPEAUident@@AEBQEAD@Z 000000014007f3e0 f i command.obj
 0001:0007e3e0       ??$access@PEBD@?$hashbase@U?$hashnameset@Uident@@@@Uident@@PEBDU2@@@QEAAPEAUident@@AEBQEBD@Z 000000014007f3e0 f i command.obj
 0001:0007e470       ?insert@?$hashbase@U?$hashnameset@Uident@@@@Uident@@PEBDU2@@@QEAAPEAUchain@1@I@Z 000000014007f470 f i command.obj
 0001:0007e7d0       ?getval@ident@@QEBAXAEAUtagval@@@Z 000000014007f7d0 f i command.obj
 0001:0007e850       ?getfloat@ident@@QEBAMXZ   000000014007f850 f i command.obj
 0001:0007e890       ?getint@ident@@QEBAHXZ     000000014007f890 f i command.obj
 0001:0007e8d0       ?getstr@ident@@QEBAPEBDXZ  000000014007f8d0 f i command.obj
 0001:0007e910       ??1keym@@QEAA@XZ           000000014007f910 f i console.obj
 0001:0007e970       ?restore@hline@@QEAAXXZ    000000014007f970 f i console.obj
 0001:0007ea60       ?run@hline@@QEAAXXZ        000000014007fa60 f i console.obj
 0001:0007ead0       ??1?$hashbase@U?$hashtable@HUkeym@@@@U?$hashtableentry@HUkeym@@@@HUkeym@@@@QEAA@XZ 000000014007fad0 f i console.obj
 0001:0007eb00       ?deletechunks@?$hashbase@U?$hashtable@HUkeym@@@@U?$hashtableentry@HUkeym@@@@HUkeym@@@@QEAAXXZ 000000014007fb00 f i console.obj
 0001:0007eb70       ??1chain@?$hashbase@U?$hashtable@HUkeym@@@@U?$hashtableentry@HUkeym@@@@HUkeym@@@@QEAA@XZ 000000014007fb70 f i console.obj
 0001:0007eb90       ??1?$hashtableentry@HUkeym@@@@QEAA@XZ 000000014007fb90 f i console.obj
 0001:0007ebf0       ??$access@PEAD@?$hashbase@U?$hashtable@PEADPEAUfilesval@@@@U?$hashtableentry@PEADPEAUfilesval@@@@PEADPEAUfilesval@@@@QEAAPEAPEAUfilesval@@AEBQEAD@Z 000000014007fbf0 f i console.obj
 0001:0007ec80       ?insert@?$hashbase@U?$hashset@Uteaminfo@@@@Uteaminfo@@U2@U2@@@QEAAPEAUchain@1@I@Z 000000014007fc80 f i scoreboard.obj
 0001:0007ec80       ?insert@?$hashbase@U?$hashtable@PEADPEAUfilesval@@@@U?$hashtableentry@PEADPEAUfilesval@@@@PEADPEAUfilesval@@@@QEAAPEAUchain@1@I@Z 000000014007fc80 f i console.obj
 0001:0007efc0       ?insert@?$hashbase@U?$hashtable@Ufileskey@@PEAUfilesval@@@@U?$hashtableentry@Ufileskey@@PEAUfilesval@@@@Ufileskey@@PEAUfilesval@@@@QEAAPEAUchain@1@I@Z 000000014007ffc0 f i console.obj
 0001:0007f310       ?insert@?$hashbase@U?$hashtable@HUkeym@@@@U?$hashtableentry@HUkeym@@@@HUkeym@@@@QEAAPEAUchain@1@I@Z 0000000140080310 f i console.obj
 0001:0007f4f0       ??0chain@?$hashbase@U?$hashtable@HUkeym@@@@U?$hashtableentry@HUkeym@@@@HUkeym@@@@QEAA@XZ 00000001400804f0 f i console.obj
 0001:0007f560       ?remove@?$vector@TSDL_Event@@@@QEAA?ATSDL_Event@@H@Z 0000000140080560 f i main.obj
 0001:0007f610       ?add@?$vector@TSDL_Event@@@@QEAAAEATSDL_Event@@AEBT2@@Z 0000000140080610 f i main.obj
 0001:0007f730       ??$formatstring@$0CAA@@@YAXAEAY0CAA@DPEBDZZ 0000000140080730 f i main.obj
 0001:0007f790       ??$concformatstring@$0CAA@@@YAXAEAY0CAA@DPEBDZZ 0000000140080790 f i main.obj
 0001:0007f810       ?gui@menu@@UEAAXAEAUg3d_gui@@_N@Z 0000000140080810 f i menus.obj
 0001:0007f8a0       ?clear@menu@@UEAAXXZ       00000001400808a0 f i menus.obj
 0001:0007f940       ??_Emenu@@UEAAPEAXI@Z      0000000140080940 f i * CIL library *:* CIL module *
 0001:0007f940       ??_Gmenu@@UEAAPEAXI@Z      0000000140080940 f i menus.obj
 0001:0007f970       ??1menu@@UEAA@XZ           0000000140080970 f i menus.obj
 0001:0007f980       ?getstring@delayedupdate@@QEBAPEBDXZ 0000000140080980 f i menus.obj
 0001:0007fa00       ?gui@applymenu@@UEAAXAEAUg3d_gui@@_N@Z 0000000140080a00 f i menus.obj
 0001:0007fcc0       ?clear@applymenu@@UEAAXXZ  0000000140080cc0 f i menus.obj
 0001:0007fd60       ??_Eapplymenu@@UEAAPEAXI@Z 0000000140080d60 f i * CIL library *:* CIL module *
 0001:0007fd60       ??_Gapplymenu@@UEAAPEAXI@Z 0000000140080d60 f i menus.obj
 0001:0007fd90       ?add@?$vector@Udelayedupdate@@@@QEAAAEAUdelayedupdate@@XZ 0000000140080d90 f i menus.obj
 0001:0007feb0       ?add@?$vector@PEAUmenu@@@@QEAAAEAPEAUmenu@@AEBQEAU2@@Z 0000000140080eb0 f i menus.obj
 0001:0007ffc0       ??1?$hashbase@U?$hashnameset@Umenu@@@@Umenu@@PEBDU2@@@QEAA@XZ 0000000140080fc0 f i menus.obj
 0001:00080040       ??1chain@?$hashbase@U?$hashnameset@Umenu@@@@Umenu@@PEBDU2@@@QEAA@XZ 0000000140081040 f i menus.obj
 0001:00080060       ??$access@PEBD@?$hashbase@U?$hashnameset@Umenu@@@@Umenu@@PEBDU2@@@QEAAPEAUmenu@@AEBQEBD@Z 0000000140081060 f i menus.obj
 0001:000800f0       ?insert@?$hashbase@U?$hashnameset@Umenu@@@@Umenu@@PEBDU2@@@QEAAPEAUchain@1@I@Z 00000001400810f0 f i menus.obj
 0001:000802d0       ??0chain@?$hashbase@U?$hashnameset@Umenu@@@@Umenu@@PEBDU2@@@QEAA@XZ 00000001400812d0 f i menus.obj
 0001:00080310       ?addindex@aviwriter@@QEAAAEAUaviindexentry@@HHH@Z 0000000140081310 f i movie.obj
 0001:000803d0       ?endlistchunk@aviwriter@@QEAAXXZ 00000001400813d0 f i movie.obj
 0001:00080460       ?close@aviwriter@@QEAAXXZ  0000000140081460 f i movie.obj
 0001:000807d0       ??0aviwriter@@QEAA@PEBDIII_N@Z 00000001400817d0 f i movie.obj
 0001:000809e0       ?open@aviwriter@@QEAA_NXZ  00000001400819e0 f i movie.obj
 0001:00081a10       ?boxsample@aviwriter@@SAXPEBEIIIIIIIIAEAI11@Z 0000000140082a10 f i movie.obj
 0001:00081e30       ?scaleyuv@aviwriter@@QEAAXPEBEII@Z 0000000140082e30 f i movie.obj
 0001:000823e0       ?encodeyuv@aviwriter@@QEAAXPEBE@Z 00000001400833e0 f i movie.obj
 0001:00082740       ?compressyuv@aviwriter@@QEAAXPEBE@Z 0000000140083740 f i movie.obj
 0001:00082950       ?flushsegment@aviwriter@@QEAAXXZ 0000000140083950 f i movie.obj
 0001:00082e50       ?nextsegment@aviwriter@@QEAA_NXZ 0000000140083e50 f i movie.obj
 0001:000830a0       ?writevideoframe@aviwriter@@QEAA_NPEBEIIHI@Z 00000001400840a0 f i movie.obj
 0001:00083290       ??0soundbuffer@recorder@@QEAA@XZ 0000000140084290 f i movie.obj
 0001:000832a0       ??1soundbuffer@recorder@@QEAA@XZ 00000001400842a0 f i movie.obj
 0001:000832d0       ?init@videobuffer@recorder@@QEAAXHHH@Z 00000001400842d0 f i movie.obj
 0001:00083340       ??_Gaviwriter@@QEAAPEAXI@Z 0000000140084340 f i movie.obj
 0001:000833d0       ?insert@?$vector@Uaviindexentry@@@@QEAAAEAUaviindexentry@@HAEBU2@@Z 00000001400843d0 f i movie.obj
 0001:00083510       ?addslot@soundtype@@QEAAHPEBDH@Z 0000000140084510 f i sound.obj
 0001:000837a0       ?addsound@soundtype@@QEAAHPEBDHH@Z 00000001400847a0 f i sound.obj
 0001:000838c0       ?reset@soundtype@@QEAAXXZ  00000001400848c0 f i sound.obj
 0001:00083990       ?playing@soundtype@@QEBA_NAEBUsoundchannel@@AEBUsoundconfig@@@Z 0000000140084990 f i sound.obj
 0001:000839e0       ??1?$hashbase@U?$hashnameset@Usoundsample@@@@Usoundsample@@PEBDU2@@@QEAA@XZ 00000001400849e0 f i sound.obj
 0001:00083a10       ?deletechunks@?$hashbase@U?$hashnameset@Usoundsample@@@@Usoundsample@@PEBDU2@@@QEAAXXZ 0000000140084a10 f i sound.obj
 0001:00083a80       ??1chain@?$hashbase@U?$hashnameset@Usoundsample@@@@Usoundsample@@PEBDU2@@@QEAA@XZ 0000000140084a80 f i sound.obj
 0001:00083a80       ??1chain@?$hashbase@U?$hashnameset@Uzipfile@@@@Uzipfile@@PEBDU2@@@QEAA@XZ 0000000140084a80 f i zip.obj
 0001:00083ab0       ?insert@?$hashbase@U?$hashnameset@Usoundsample@@@@Usoundsample@@PEBDU2@@@QEAAPEAUchain@1@I@Z 0000000140084ab0 f i sound.obj
 0001:00083e30       ??0chain@?$hashbase@U?$hashnameset@Usoundsample@@@@Usoundsample@@PEBDU2@@@QEAA@XZ 0000000140084e30 f i sound.obj
 0001:00083e50       ?invert@gfield@@QEAA_NAEBU1@@Z 0000000140084e50 f i crypto.obj
 0001:00084bf0       ?sqrt@gfield@@QEAA_NAEBU1@@Z 0000000140085bf0 f i crypto.obj
 0001:00084e50       ?mul2@ecjacobian@@QEAAXXZ  0000000140085e50 f i crypto.obj
 0001:00085c40       ?add@ecjacobian@@QEAAXAEBU1@@Z 0000000140086c40 f i crypto.obj
 0001:00086c80       ?calcy@ecjacobian@@QEAA_N_N@Z 0000000140087c80 f i crypto.obj
 0001:000870e0       ?rshift@?$bigint@$0N@@@QEAAAEAU1@H@Z 00000001400880e0 f i crypto.obj
 0001:00087210       ?printdigits@?$bigint@$0N@@@QEBAXAEAU?$vector@D@@@Z 0000000140088210 f i crypto.obj
 0001:000872c0       ?parse@?$bigint@$0N@@@QEAAXPEBD@Z 00000001400882c0 f i crypto.obj
 0001:000873e0       ??$add@$0N@$0N@@?$bigint@$0N@@@QEAAAEAU0@AEBU0@0@Z 00000001400883e0 f i crypto.obj
 0001:000874a0       ??$sub@$0N@$0N@@?$bigint@$0N@@@QEAAAEAU0@AEBU0@0@Z 00000001400884a0 f i crypto.obj
 0001:00087570       ??$pow@$0N@$0N@@gfield@@QEAAAEAU0@AEBU?$bigint@$0N@@@0@Z 0000000140088570 f i crypto.obj
 0001:00087670       ??$sub@$0N@$0N@@gfield@@QEAAAEAU0@AEBU?$bigint@$0N@@@0@Z 0000000140088670 f i crypto.obj
 0001:000876f0       ??$mul@$0N@$0N@@gfield@@QEAAAEAU0@AEBU?$bigint@$0N@@@0@Z 00000001400886f0 f i crypto.obj
 0001:00087b30       ??$add@$0N@$0N@@gfield@@QEAAAEAU0@AEBU?$bigint@$0N@@@0@Z 0000000140088b30 f i crypto.obj
 0001:00087ba0       ??$mul@$0N@@ecjacobian@@QEAAXAEBU?$bigint@$0N@@@@Z 0000000140088ba0 f i crypto.obj
 0001:00087ca0       ?close@filestream@@UEAAXXZ 0000000140088ca0 f i stream.obj
 0001:00087cd0       ?end@filestream@@UEAA_NXZ  0000000140088cd0 f i stream.obj
 0001:00087cf0       ?tell@filestream@@UEAA_JXZ 0000000140088cf0 f i stream.obj
 0001:00087d20       ?seek@filestream@@UEAA_N_JH@Z 0000000140088d20 f i stream.obj
 0001:00087d40       ?read@filestream@@UEAA_KPEAX_K@Z 0000000140088d40 f i stream.obj
 0001:00087d60       ?write@filestream@@UEAA_KPEBX_K@Z 0000000140088d60 f i stream.obj
 0001:00087d80       ?flush@filestream@@UEAA_NXZ 0000000140088d80 f i stream.obj
 0001:00087da0       ?getchar@filestream@@UEAAHXZ 0000000140088da0 f i stream.obj
 0001:00087db0       ?putchar@filestream@@UEAA_NH@Z 0000000140088db0 f i stream.obj
 0001:00087dd0       ?getline@filestream@@UEAA_NPEAD_K@Z 0000000140088dd0 f i stream.obj
 0001:00087e00       ?putstring@filestream@@UEAA_NPEBD@Z 0000000140088e00 f i stream.obj
 0001:00087e20       ?printf@filestream@@UEAA_KPEBDZZ 0000000140088e20 f i stream.obj
 0001:00087e70       ??_Efilestream@@UEAAPEAXI@Z 0000000140088e70 f i * CIL library *:* CIL module *
 0001:00087e70       ??_Gfilestream@@UEAAPEAXI@Z 0000000140088e70 f i stream.obj
 0001:00087ed0       ?readbyte@gzstream@@QEAAE_K@Z 0000000140088ed0 f i stream.obj
 0001:00087f40       ?checkheader@gzstream@@QEAA_NXZ 0000000140088f40 f i stream.obj
 0001:00088160       ?open@gzstream@@QEAA_NPEAUstream@@PEBD_NH@Z 0000000140089160 f i stream.obj
 0001:000882f0       ?getcrc@gzstream@@UEAAIXZ  00000001400892f0 f i stream.obj
 0001:00088300       ?close@gzstream@@UEAAXXZ   0000000140089300 f i stream.obj
 0001:00088560       ?end@gzstream@@UEAA_NXZ    0000000140089560 f i stream.obj
 0001:00088580       ?tell@gzstream@@UEAA_JXZ   0000000140089580 f i stream.obj
 0001:000885a0       ?rawtell@gzstream@@UEAA_JXZ 00000001400895a0 f i stream.obj
 0001:000885c0       ?size@gzstream@@UEAA_JXZ   00000001400895c0 f i stream.obj
 0001:00088660       ?rawsize@gzstream@@UEAA_JXZ 0000000140089660 f i stream.obj
 0001:00088680       ?seek@gzstream@@UEAA_N_JH@Z 0000000140089680 f i stream.obj
 0001:000887d0       ?read@gzstream@@UEAA_KPEAX_K@Z 00000001400897d0 f i stream.obj
 0001:000889f0       ?flush@gzstream@@UEAA_NXZ  00000001400899f0 f i stream.obj
 0001:00088a70       ?write@gzstream@@UEAA_KPEBX_K@Z 0000000140089a70 f i stream.obj
 0001:00088b70       ??_Egzstream@@UEAAPEAXI@Z  0000000140089b70 f i * CIL library *:* CIL module *
 0001:00088b70       ??_Ggzstream@@UEAAPEAXI@Z  0000000140089b70 f i stream.obj
 0001:00088bc0       ?readbuf@utf8stream@@QEAA_N_K@Z 0000000140089bc0 f i stream.obj
 0001:00088cd0       ?checkheader@utf8stream@@QEAA_NXZ 0000000140089cd0 f i stream.obj
 0001:00088d30       ?close@utf8stream@@UEAAXXZ 0000000140089d30 f i stream.obj
 0001:00088d80       ?end@utf8stream@@UEAA_NXZ  0000000140089d80 f i stream.obj
 0001:00088da0       ?tell@utf8stream@@UEAA_JXZ 0000000140089da0 f i stream.obj
 0001:00088dc0       ?seek@utf8stream@@UEAA_N_JH@Z 0000000140089dc0 f i stream.obj
 0001:00088ed0       ?read@utf8stream@@UEAA_KPEAX_K@Z 0000000140089ed0 f i stream.obj
 0001:00088fb0       ?getline@utf8stream@@UEAA_NPEAD_K@Z 0000000140089fb0 f i stream.obj
 0001:000890c0       ?write@utf8stream@@UEAA_KPEBX_K@Z 000000014008a0c0 f i stream.obj
 0001:00089320       ?flush@utf8stream@@UEAA_NXZ 000000014008a320 f i stream.obj
 0001:00089330       ??_Eutf8stream@@UEAAPEAXI@Z 000000014008a330 f i * CIL library *:* CIL module *
 0001:00089330       ??_Gutf8stream@@UEAAPEAXI@Z 000000014008a330 f i stream.obj
 0001:000893b0       ??_Estream@@UEAAPEAXI@Z    000000014008a3b0 f i * CIL library *:* CIL module *
 0001:000893b0       ??_Gstream@@UEAAPEAXI@Z    000000014008a3b0 f i stream.obj
 0001:000893e0       ?rawtell@stream@@UEAA_JXZ  000000014008a3e0 f i stream.obj
 0001:000893f0       ?rawsize@stream@@UEAA_JXZ  000000014008a3f0 f i stream.obj
 0001:00089400       ?getchar@stream@@UEAAHXZ   000000014008a400 f i stream.obj
 0001:00089430       ?putstring@stream@@UEAA_NPEBD@Z 000000014008a430 f i stream.obj
 0001:00089460       ?putchar@stream@@UEAA_NH@Z 000000014008a460 f i stream.obj
 0001:00089490       ?putline@stream@@UEAA_NPEBD@Z 000000014008a490 f i stream.obj
 0001:000894d0       ??1stream@@UEAA@XZ         000000014008a4d0 f i stream.obj
 0001:000894e0       ?tell@stream@@UEAA_JXZ     000000014008a4e0 f i stream.obj
 0001:000894f0       ?put@packetbuf@@QEAAXAEBE@Z 000000014008a4f0 f i tools.obj
 0001:00089580       ??1?$hashnameset@Uzipfile@@@@QEAA@XZ 000000014008a580 f i zip.obj
 0001:000895a0       ?stopreading@zipstream@@QEAAXXZ 000000014008a5a0 f i zip.obj
 0001:00089620       ?close@zipstream@@UEAAXXZ  000000014008a620 f i zip.obj
 0001:00089670       ?size@zipstream@@UEAA_JXZ  000000014008a670 f i zip.obj
 0001:00089680       ?end@zipstream@@UEAA_NXZ   000000014008a680 f i zip.obj
 0001:000896a0       ?tell@zipstream@@UEAA_JXZ  000000014008a6a0 f i zip.obj
 0001:000896d0       ?seek@zipstream@@UEAA_N_JH@Z 000000014008a6d0 f i zip.obj
 0001:00089890       ?read@zipstream@@UEAA_KPEAX_K@Z 000000014008a890 f i zip.obj
 0001:00089a80       ??_Ezipstream@@UEAAPEAXI@Z 000000014008aa80 f i * CIL library *:* CIL module *
 0001:00089a80       ??_Gzipstream@@UEAAPEAXI@Z 000000014008aa80 f i zip.obj
 0001:00089b10       ??1?$vector@Uzipfile@@@@QEAA@XZ 000000014008ab10 f i zip.obj
 0001:00089b80       ??1?$hashbase@U?$hashnameset@Uzipfile@@@@Uzipfile@@PEBDU2@@@QEAA@XZ 000000014008ab80 f i zip.obj
 0001:00089c00       ?insert@?$hashbase@U?$hashnameset@Uzipfile@@@@Uzipfile@@PEBDU2@@@QEAAPEAUchain@1@I@Z 000000014008ac00 f i zip.obj
 0001:00089dd0       ??0chain@?$hashbase@U?$hashnameset@Uzipfile@@@@Uzipfile@@PEBDU2@@@QEAA@XZ 000000014008add0 f i zip.obj
 0001:00089df0       ?add@?$vector@Uinterest@ai@@@@QEAAAEAUinterest@ai@@XZ 000000014008adf0 f i ai.obj
 0001:00089ee0       ?add@avoidset@ai@@QEAAXPEAXM@Z 000000014008aee0 f i ai.obj
 0001:00089fc0       ?add@avoidset@ai@@QEAAXAEAU12@@Z 000000014008afc0 f i ai.obj
 0001:0008a1c0       ?canpickup@fpsstate@@QEAA_NH@Z 000000014008b1c0 f i ai.obj
 0001:0008a260       ?switchstate@aiinfo@ai@@QEAAAEAUaistate@2@AEAU32@HHH@Z 000000014008b260 f i ai.obj
 0001:0008a2b0       ?find@avoidset@ai@@QEBA_NHPEAUfpsent@@@Z 000000014008b2b0 f i ai.obj
 0001:0008a350       ??_Gaiinfo@ai@@QEAAPEAXI@Z 000000014008b350 f i ai.obj
 0001:0008a3b0       ?addstate@aiinfo@ai@@QEAAAEAUaistate@2@HHH@Z 000000014008b3b0 f i ai.obj
 0001:0008a4c0       ?reset@aiinfo@ai@@QEAAX_N@Z 000000014008b4c0 f i ai.obj
 0001:0008a560       ?pickup@fpsstate@@QEAAXH@Z 000000014008b560 f i entities.obj
 0001:0008a620       ?buttonf@g3d_gui@@QEAAHPEBDH0ZZ 000000014008b620 f i fps.obj
 0001:0008a6a0       ??1fpsent@@QEAA@XZ         000000014008b6a0 f i fps.obj
 0001:0008a7e0       ??0dynent@@QEAA@XZ         000000014008b7e0 f i fps.obj
 0001:0008a9c0       ??1dynent@@QEAA@XZ         000000014008b9c0 f i fps.obj
 0001:0008a9f0       ??0fpsent@@QEAA@XZ         000000014008b9f0 f i fps.obj
 0001:0008aaf0       ?spawnstate@fpsstate@@QEAAXH@Z 000000014008baf0 f i fps.obj
 0001:0008ad90       ?respawn@fpsent@@QEAAXXZ   000000014008bd90 f i fps.obj
 0001:0008af00       ??0monster@game@@QEAA@HHHHHH@Z 000000014008bf00 f i monster.obj
 0001:0008b100       ?normalize_yaw@monster@game@@QEAAXM@Z 000000014008c100 f i monster.obj
 0001:0008b150       ?transition@monster@game@@QEAAXHHHH@Z 000000014008c150 f i monster.obj
 0001:0008b1d0       ?monsteraction@monster@game@@QEAAXH@Z 000000014008c1d0 f i monster.obj
 0001:0008b8a0       ?monsterpain@monster@game@@QEAAXHPEAUfpsent@@@Z 000000014008c8a0 f i monster.obj
 0001:0008ba90       ?add@?$vector@PEAUmonster@game@@@@QEAAAEAPEAUmonster@game@@AEBQEAU23@@Z 000000014008ca90 f i monster.obj
 0001:0008bb90       ?maymove@physent@@QEBA_NXZ 000000014008cb90 f i monster.obj
 0001:0008bc00       ??0movable@game@@QEAA@AEBUentity@@@Z 000000014008cc00 f i movable.obj
 0001:0008bee0       ?explode@movable@game@@QEAAXPEAUdynent@@@Z 000000014008cee0 f i movable.obj
 0001:0008bf30       ??$htfind@$$BY0BAE@D@?$vector@PEBD@@QEAAHAEAY0BAE@$$CBD@Z 000000014008cf30 f i render.obj
 0001:0008bfc0       ?gui@scoreboardgui@game@@UEAAXAEAUg3d_gui@@_N@Z 000000014008cfc0 f i scoreboard.obj
 0001:0008c010       ??$access@$$BY0BAE@D@?$hashbase@U?$hashset@Uteaminfo@@@@Uteaminfo@@U2@U2@@@QEAAPEAUteaminfo@@AEAY0BAE@$$CBD@Z 000000014008d010 f i scoreboard.obj
 0001:0008c0a0       ?textf@g3d_gui@@QEAAHPEBDH0ZZ 000000014008d0a0 f i scoreboard.obj
 0001:0008c120       ?titlef@g3d_gui@@QEAAHPEBDH0ZZ 000000014008d120 f i scoreboard.obj
 0001:0008c1a0       ?compare@teamscore@@SA_NAEBU1@0@Z 000000014008d1a0 f i scoreboard.obj
 0001:0008c1e0       ??0wpcache@ai@@QEAA@XZ     000000014008d1e0 f i waypoint.obj
 0001:0008c230       ?build@wpcache@ai@@QEAAXHH@Z 000000014008d230 f i waypoint.obj
 0001:0008c410       ?build@wpcache@ai@@QEAAXPEAHHAEBUvec@@1@Z 000000014008d410 f i waypoint.obj
 0001:0008cb30       ?upheap@?$vector@PEAUwaypoint@ai@@@@QEAAHH@Z 000000014008db30 f i waypoint.obj
 0001:0008cbb0       ?add@?$vector@PEAUwaypoint@ai@@@@QEAAAEAPEAUwaypoint@ai@@AEBQEAU23@@Z 000000014008dbb0 f i waypoint.obj
 0001:0008ccc0       ?add@?$vector@PEAUnode@wpcache@ai@@@@QEAAAEAPEAUnode@wpcache@ai@@AEBQEAU234@@Z 000000014008dcc0 f i waypoint.obj
 0001:0008cdc0       ?add@?$vector@Uwaypoint@ai@@@@QEAAAEAUwaypoint@ai@@AEBU23@@Z 000000014008ddc0 f i waypoint.obj
 0001:0008cee0       ??0bouncer@game@@QEAA@XZ   000000014008dee0 f i weapon.obj
 0001:0008d0a0       ?offsetpos@bouncer@game@@QEAA?AUvec@@XZ 000000014008e0a0 f i weapon.obj
 0001:0008d150       ?limitoffset@bouncer@game@@QEAAXXZ 000000014008e150 f i weapon.obj
 0001:0008d210       ?remove@?$vector@Uprojectile@game@@@@QEAA?AUprojectile@game@@H@Z 000000014008e210 f i weapon.obj
 0001:0008d330       ?remove@?$vector@PEAUbouncer@game@@@@QEAAPEAUbouncer@game@@H@Z 000000014008e330 f i weapon.obj
 0001:0008d390       ?hitpush@fpsent@@QEAAXHAEBUvec@@PEAU1@H@Z 000000014008e390 f i weapon.obj
 0001:0008d450       ?safenormalize@vec@@QEAAAEAU1@XZ 000000014008e450 f i weapon.obj
 0001:0008d4c0       ?getteamscore@captureclientmode@game@@UEAAHPEBD@Z 000000014008e4c0 f i client1.obj
 0001:0008d4c0       ?getteamscore@captureservmode@server@@UEAAHPEBD@Z 000000014008e4c0 f i server1.obj
 0001:0008d540       ?getteamscores@captureclientmode@game@@UEAAXAEAU?$vector@Uteamscore@@@@@Z 000000014008e540 f i client1.obj
 0001:0008d540       ?getteamscores@captureservmode@server@@UEAAXAEAU?$vector@Uteamscore@@@@@Z 000000014008e540 f i server1.obj
 0001:0008d670       ?disttoenemy@captureclientmode@game@@QEAAMAEAUbaseinfo@12@@Z 000000014008e670 f i client1.obj
 0001:0008d9a0       ?checkitems@captureclientmode@game@@UEAAXPEAUfpsent@@@Z 000000014008e9a0 f i client1.obj
 0001:0008dc30       ?rendertether@captureclientmode@game@@QEAAXPEAUfpsent@@@Z 000000014008ec30 f i client1.obj
 0001:0008e360       ?preload@captureclientmode@game@@UEAAXXZ 000000014008f360 f i client1.obj
 0001:0008e490       ?rendergame@captureclientmode@game@@UEAAXXZ 000000014008f490 f i client1.obj
 0001:0008ee20       ?drawblips@captureclientmode@game@@QEAAXPEAUfpsent@@MHHH_N@Z 000000014008fe20 f i client1.obj
 0001:0008f530       ?respawnwait@captureclientmode@game@@UEAAHPEAUfpsent@@@Z 0000000140090530 f i client1.obj
 0001:0008f590       ?clipconsole@captureclientmode@game@@UEAAHHH@Z 0000000140090590 f i client1.obj
 0001:0008f590       ?clipconsole@collectclientmode@game@@UEAAHHH@Z 0000000140090590 f i client1.obj
 0001:0008f590       ?clipconsole@ctfclientmode@game@@UEAAHHH@Z 0000000140090590 f i client1.obj
 0001:0008f5b0       ?drawhud@captureclientmode@game@@UEAAXPEAUfpsent@@HH@Z 00000001400905b0 f i client1.obj
 0001:0008fda0       ?setup@captureclientmode@game@@UEAAXXZ 0000000140090da0 f i client1.obj
 0001:00090120       ?senditems@captureclientmode@game@@UEAAXAEAUpacketbuf@@@Z 0000000140091120 f i client1.obj
 0001:00090210       ?updatebase@captureclientmode@game@@QEAAXHPEBD0HH@Z 0000000140091210 f i client1.obj
 0001:00090660       ?setscore@captureclientmode@game@@QEAAXHPEBDH@Z 0000000140091660 f i client1.obj
 0001:00090940       ?closesttoenemy@captureclientmode@game@@QEAAHPEBD_N1@Z 0000000140091940 f i client1.obj
 0001:00090a50       ?pickteamspawn@captureclientmode@game@@QEAAHPEBD@Z 0000000140091a50 f i client1.obj
 0001:00090c80       ?pickspawn@captureclientmode@game@@UEAAXPEAUfpsent@@@Z 0000000140091c80 f i client1.obj
 0001:00090cb0       ?aifind@captureclientmode@game@@UEAAXPEAUfpsent@@AEAUaistate@ai@@AEAU?$vector@Uinterest@ai@@@@@Z 0000000140091cb0 f i client1.obj
 0001:000914f0       ?aidefend@captureclientmode@game@@UEAA_NPEAUfpsent@@AEAUaistate@ai@@@Z 00000001400924f0 f i client1.obj
 0001:00091b30       ?aipursue@captureclientmode@game@@UEAA_NPEAUfpsent@@AEAUaistate@ai@@@Z 0000000140092b30 f i client1.obj
 0001:00091b50       ??_Ecaptureclientmode@game@@UEAAPEAXI@Z 0000000140092b50 f i * CIL library *:* CIL module *
 0001:00091b50       ??_Ectfclientmode@game@@UEAAPEAXI@Z 0000000140092b50 f i * CIL library *:* CIL module *
 0001:00091b50       ??_Gcaptureclientmode@game@@UEAAPEAXI@Z 0000000140092b50 f i client1.obj
 0001:00091b50       ??_Gctfclientmode@game@@UEAAPEAXI@Z 0000000140092b50 f i client1.obj
 0001:00091be0       ?reset@flag@ctfclientmode@game@@QEAAXXZ 0000000140092be0 f i client1.obj
 0001:00091c80       ?pos@flag@ctfclientmode@game@@QEBA?AUvec@@XZ 0000000140092c80 f i client1.obj
 0001:00091d00       ?addflag@ctfclientmode@game@@QEAA_NHAEBUvec@@HH@Z 0000000140092d00 f i client1.obj
 0001:00091f30       ?addholdspawn@ctfclientmode@game@@QEAA_NAEBUvec@@@Z 0000000140092f30 f i client1.obj
 0001:00092070       ?returnflag@ctfclientmode@game@@QEAAXHH@Z 0000000140093070 f i client1.obj
 0001:000920f0       ?getteamscore@ctfclientmode@game@@UEAAHPEBD@Z 00000001400930f0 f i client1.obj
 0001:000920f0       ?getteamscore@ctfservmode@server@@UEAAHPEBD@Z 00000001400930f0 f i server1.obj
 0001:00092160       ?getteamscores@ctfclientmode@game@@UEAAXAEAU?$vector@Uteamscore@@@@@Z 0000000140093160 f i client1.obj
 0001:00092160       ?getteamscores@ctfservmode@server@@UEAAXAEAU?$vector@Uteamscore@@@@@Z 0000000140093160 f i server1.obj
 0001:00092290       ?preload@ctfclientmode@game@@UEAAXXZ 0000000140093290 f i client1.obj
 0001:00092490       ?drawblip@ctfclientmode@game@@QEAAXPEAUfpsent@@MMMAEBUvec@@_N@Z 0000000140093490 f i client1.obj
 0001:00092660       ?drawhud@ctfclientmode@game@@UEAAXPEAUfpsent@@HH@Z 0000000140093660 f i client1.obj
 0001:00093320       ?removeplayer@ctfclientmode@game@@UEAAXPEAUfpsent@@@Z 0000000140094320 f i client1.obj
 0001:00093420       ?interpflagpos@ctfclientmode@game@@QEAA?AUvec@@AEAUflag@12@AEAM@Z 0000000140094420 f i client1.obj
 0001:00093620       ?rendergame@ctfclientmode@game@@UEAAXXZ 0000000140094620 f i client1.obj
 0001:00094380       ?setup@ctfclientmode@game@@UEAAXXZ 0000000140095380 f i client1.obj
 0001:00094780       ?senditems@ctfclientmode@game@@UEAAXAEAUpacketbuf@@@Z 0000000140095780 f i client1.obj
 0001:000948f0       ?parseflags@ctfclientmode@game@@QEAAXAEAU?$databuf@E@@_N@Z 00000001400958f0 f i client1.obj
 0001:00094be0       ?teamcolorflag@ctfclientmode@game@@QEAAPEBDAEAUflag@12@@Z 0000000140095be0 f i client1.obj
 0001:00094d70       ?flagexplosion@ctfclientmode@game@@QEAAXHHAEBUvec@@@Z 0000000140095d70 f i client1.obj
 0001:00094f40       ?flageffect@ctfclientmode@game@@QEAAXHHAEBUvec@@0@Z 0000000140095f40 f i client1.obj
 0001:00095170       ?spawnflag@ctfclientmode@game@@QEAAXAEAUflag@12@@Z 0000000140096170 f i client1.obj
 0001:000951c0       ?resetflag@ctfclientmode@game@@QEAAXHHHHH@Z 00000001400961c0 f i client1.obj
 0001:00095410       ?scoreflag@ctfclientmode@game@@QEAAXPEAUfpsent@@HHHHHHHH@Z 0000000140096410 f i client1.obj
 0001:00095a10       ?takeflag@ctfclientmode@game@@QEAAXPEAUfpsent@@HH@Z 0000000140096a10 f i client1.obj
 0001:00095be0       ?checkitems@ctfclientmode@game@@UEAAXPEAUfpsent@@@Z 0000000140096be0 f i client1.obj
 0001:00095e50       ?respawned@ctfclientmode@game@@UEAAXPEAUfpsent@@@Z 0000000140096e50 f i client1.obj
 0001:00095fd0       ?respawnwait@ctfclientmode@game@@UEAAHPEAUfpsent@@@Z 0000000140096fd0 f i client1.obj
 0001:00096060       ?pickholdspawn@ctfclientmode@game@@QEAA_NPEAUfpsent@@@Z 0000000140097060 f i client1.obj
 0001:00096510       ?pickspawn@ctfclientmode@game@@UEAAXPEAUfpsent@@@Z 0000000140097510 f i client1.obj
 0001:00096610       ?aihomerun@ctfclientmode@game@@QEAA_NPEAUfpsent@@AEAUaistate@ai@@@Z 0000000140097610 f i client1.obj
 0001:00096c30       ?aicheck@ctfclientmode@game@@UEAA_NPEAUfpsent@@AEAUaistate@ai@@@Z 0000000140097c30 f i client1.obj
 0001:00096ef0       ?aifind@ctfclientmode@game@@UEAAXPEAUfpsent@@AEAUaistate@ai@@AEAU?$vector@Uinterest@ai@@@@@Z 0000000140097ef0 f i client1.obj
 0001:00097d80       ?aidefend@ctfclientmode@game@@UEAA_NPEAUfpsent@@AEAUaistate@ai@@@Z 0000000140098d80 f i client1.obj
 0001:000987a0       ?aipursue@ctfclientmode@game@@UEAA_NPEAUfpsent@@AEAUaistate@ai@@@Z 00000001400997a0 f i client1.obj
 0001:00098940       ?addbase@collectclientmode@game@@QEAA_NHAEBUvec@@H@Z 0000000140099940 f i client1.obj
 0001:00098b00       ?droptoken@collectclientmode@game@@QEAAAEAUtoken@12@HAEBUvec@@HH@Z 0000000140099b00 f i client1.obj
 0001:00098c80       ?removetoken@collectclientmode@game@@QEAA_NH@Z 0000000140099c80 f i client1.obj
 0001:00098cf0       ?getteamscore@collectclientmode@game@@UEAAHPEBD@Z 0000000140099cf0 f i client1.obj
 0001:00098cf0       ?getteamscore@collectservmode@server@@UEAAHPEBD@Z 0000000140099cf0 f i server1.obj
 0001:00098d60       ?getteamscores@collectclientmode@game@@UEAAXAEAU?$vector@Uteamscore@@@@@Z 0000000140099d60 f i client1.obj
 0001:00098d60       ?getteamscores@collectservmode@server@@UEAAXAEAU?$vector@Uteamscore@@@@@Z 0000000140099d60 f i server1.obj
 0001:00098e90       ?preload@collectclientmode@game@@UEAAXXZ 0000000140099e90 f i client1.obj
 0001:000990d0       ?drawblip@collectclientmode@game@@QEAAXPEAUfpsent@@MMMAEBUvec@@M@Z 000000014009a0d0 f i client1.obj
 0001:00099260       ?drawhud@collectclientmode@game@@UEAAXPEAUfpsent@@HH@Z 000000014009a260 f i client1.obj
 0001:00099ae0       ?rendergame@collectclientmode@game@@UEAAXXZ 000000014009aae0 f i client1.obj
 0001:0009a2e0       ?setup@collectclientmode@game@@UEAAXXZ 000000014009b2e0 f i client1.obj
 0001:0009a460       ?senditems@collectclientmode@game@@UEAAXAEAUpacketbuf@@@Z 000000014009b460 f i client1.obj
 0001:0009a520       ?movetoken@collectclientmode@game@@QEAA?AUvec@@AEBU3@H@Z 000000014009b520 f i client1.obj
 0001:0009a7b0       ?parsetokens@collectclientmode@game@@QEAAXAEAU?$databuf@E@@_N@Z 000000014009b7b0 f i client1.obj
 0001:0009aa90       ?baseexplosion@collectclientmode@game@@QEAAXHHAEBUvec@@@Z 000000014009ba90 f i client1.obj
 0001:0009ac40       ?droptoken@collectclientmode@game@@QEAAPEAUtoken@12@PEAUfpsent@@HAEBUvec@@HHH@Z 000000014009bc40 f i client1.obj
 0001:0009b060       ?stealtoken@collectclientmode@game@@QEAAXPEAUfpsent@@HAEBUvec@@HHHHHH@Z 000000014009c060 f i client1.obj
 0001:0009b330       ?deposittokens@collectclientmode@game@@QEAAXPEAUfpsent@@HHHHH@Z 000000014009c330 f i client1.obj
 0001:0009b8a0       ?checkitems@collectclientmode@game@@UEAAXPEAUfpsent@@@Z 000000014009c8a0 f i client1.obj
 0001:0009bc40       ?respawnwait@collectclientmode@game@@UEAAHPEAUfpsent@@@Z 000000014009cc40 f i client1.obj
 0001:0009bc70       ?pickspawn@collectclientmode@game@@UEAAXPEAUfpsent@@@Z 000000014009cc70 f i client1.obj
 0001:0009bcf0       ?aicheck@collectclientmode@game@@UEAA_NPEAUfpsent@@AEAUaistate@ai@@@Z 000000014009ccf0 f i client1.obj
 0001:0009c4b0       ?aifind@collectclientmode@game@@UEAAXPEAUfpsent@@AEAUaistate@ai@@AEAU?$vector@Uinterest@ai@@@@@Z 000000014009d4b0 f i client1.obj
 0001:0009c980       ?aipursue@collectclientmode@game@@UEAA_NPEAUfpsent@@AEAUaistate@ai@@@Z 000000014009d980 f i client1.obj
 0001:0009cab0       ??_Ecollectclientmode@game@@UEAAPEAXI@Z 000000014009dab0 f i * CIL library *:* CIL module *
 0001:0009cab0       ??_Gcollectclientmode@game@@UEAAPEAXI@Z 000000014009dab0 f i client1.obj
 0001:0009cb40       ?validate@selinfo@@QEAA_NXZ 000000014009db40 f i client1.obj
 0001:0009cc70       ??_Eclientmode@game@@UEAAPEAXI@Z 000000014009dc70 f i * CIL library *:* CIL module *
 0001:0009cc70       ??_Gclientmode@game@@UEAAPEAXI@Z 000000014009dc70 f i client1.obj
 0001:0009cca0       ?pickspawn@clientmode@game@@UEAAXPEAUfpsent@@@Z 000000014009dca0 f i client1.obj
 0001:0009ccb0       ??1clientmode@game@@UEAA@XZ 000000014009dcb0 f i client1.obj
 0001:0009ccc0       ??1gameevent@server@@UEAA@XZ 000000014009dcc0 f i server1.obj
 0001:0009ccd0       ??_Egameevent@server@@UEAAPEAXI@Z 000000014009dcd0 f i * CIL library *:* CIL module *
 0001:0009ccd0       ??_Ggameevent@server@@UEAAPEAXI@Z 000000014009dcd0 f i server1.obj
 0001:0009cd00       ?respawn@gamestate@server@@QEAAXXZ 000000014009dd00 f i server1.obj
 0001:0009cd60       ??0clientinfo@server@@QEAA@XZ 000000014009dd60 f i server1.obj
 0001:0009ce70       ??1clientinfo@server@@QEAA@XZ 000000014009de70 f i server1.obj
 0001:0009cfa0       ?addevent@clientinfo@server@@QEAAXPEAUgameevent@2@@Z 000000014009dfa0 f i server1.obj
 0001:0009d0d0       ?calcpushrange@clientinfo@server@@QEAAHXZ 000000014009e0d0 f i server1.obj
 0001:0009d120       ?setpushed@clientinfo@server@@QEAAXXZ 000000014009e120 f i server1.obj
 0001:0009d1b0       ?mapchange@clientinfo@server@@QEAAXXZ 000000014009e1b0 f i server1.obj
 0001:0009d330       ?cleanauth@clientinfo@server@@QEAAX_N@Z 000000014009e330 f i server1.obj
 0001:0009d3b0       ??1servmode@server@@UEAA@XZ 000000014009e3b0 f i server1.obj
 0001:0009d3c0       ?fragvalue@servmode@server@@UEAAHPEAUclientinfo@2@0@Z 000000014009e3c0 f i server1.obj
 0001:0009d430       ??_Eservmode@server@@UEAAPEAXI@Z 000000014009e430 f i * CIL library *:* CIL module *
 0001:0009d430       ??_Gservmode@server@@UEAAPEAXI@Z 000000014009e430 f i server1.obj
 0001:0009d460       ?enter@baseinfo@captureservmode@server@@QEAA_NPEBD@Z 000000014009e460 f i server1.obj
 0001:0009d560       ?findscore@captureservmode@server@@QEAAAEAUscore@12@PEBD@Z 000000014009e560 f i server1.obj
 0001:0009d6e0       ?addbase@captureservmode@server@@QEAAXHAEBUvec@@@Z 000000014009e6e0 f i server1.obj
 0001:0009d9e0       ?cleanup@captureservmode@server@@UEAAXXZ 000000014009e9e0 f i server1.obj
 0001:0009da10       ?setup@captureservmode@server@@UEAAXXZ 000000014009ea10 f i server1.obj
 0001:0009db00       ?newmap@captureservmode@server@@UEAAXXZ 000000014009eb00 f i server1.obj
 0001:0009db30       ?replenishammo@captureservmode@server@@QEAAXPEAUclientinfo@2@@Z 000000014009eb30 f i server1.obj
 0001:0009dd20       ?movebases@captureservmode@server@@QEAAXPEBDAEBUvec@@_N12@Z 000000014009ed20 f i server1.obj
 0001:0009e0a0       ?regenowners@captureservmode@server@@QEAAXAEAUbaseinfo@12@H@Z 000000014009f0a0 f i server1.obj
 0001:0009e320       ?update@captureservmode@server@@UEAAXXZ 000000014009f320 f i server1.obj
 0001:0009e790       ?sendbaseinfo@captureservmode@server@@QEAAXH@Z 000000014009f790 f i server1.obj
 0001:0009e800       ?sendbases@captureservmode@server@@QEAAXXZ 000000014009f800 f i server1.obj
 0001:0009e8d0       ?initclient@captureservmode@server@@UEAAXPEAUclientinfo@2@AEAUpacketbuf@@_N@Z 000000014009f8d0 f i server1.obj
 0001:0009ea70       ?entergame@captureservmode@server@@UEAAXPEAUclientinfo@2@@Z 000000014009fa70 f i server1.obj
 0001:0009ead0       ?spawned@captureservmode@server@@UEAAXPEAUclientinfo@2@@Z 000000014009fad0 f i server1.obj
 0001:0009eb30       ?leavegame@captureservmode@server@@UEAAXPEAUclientinfo@2@_N@Z 000000014009fb30 f i server1.obj
 0001:0009eb90       ?died@captureservmode@server@@UEAAXPEAUclientinfo@2@0@Z 000000014009fb90 f i server1.obj
 0001:0009ebf0       ?canspawn@captureservmode@server@@UEAA_NPEAUclientinfo@2@_N@Z 000000014009fbf0 f i server1.obj
 0001:0009ec50       ?moved@captureservmode@server@@UEAAXPEAUclientinfo@2@AEBUvec@@_N12@Z 000000014009fc50 f i server1.obj
 0001:0009ec70       ?changeteam@captureservmode@server@@UEAAXPEAUclientinfo@2@PEBD1@Z 000000014009fc70 f i server1.obj
 0001:0009ed20       ?extinfoteam@captureservmode@server@@UEAA_NPEBDAEAU?$databuf@E@@@Z 000000014009fd20 f i server1.obj
 0001:0009ee30       ??_Ecaptureservmode@server@@UEAAPEAXI@Z 000000014009fe30 f i * CIL library *:* CIL module *
 0001:0009ee30       ??_Gcaptureservmode@server@@UEAAPEAXI@Z 000000014009fe30 f i server1.obj
 0001:0009eec0       ?addflag@ctfservmode@server@@QEAA_NHAEBUvec@@HH@Z 000000014009fec0 f i server1.obj
 0001:0009f0a0       ?addholdspawn@ctfservmode@server@@QEAA_NAEBUvec@@@Z 00000001400a00a0 f i server1.obj
 0001:0009f1a0       ?cleanup@ctfservmode@server@@UEAAXXZ 00000001400a01a0 f i server1.obj
 0001:0009f1d0       ?setupholdspawns@ctfservmode@server@@QEAAXXZ 00000001400a01d0 f i server1.obj
 0001:0009f2d0       ?setup@ctfservmode@server@@UEAAXXZ 00000001400a02d0 f i server1.obj
 0001:0009f460       ?newmap@ctfservmode@server@@UEAAXXZ 00000001400a0460 f i server1.obj
 0001:0009f490       ?dropflag@ctfservmode@server@@QEAAXPEAUclientinfo@2@0@Z 00000001400a0490 f i server1.obj
 0001:0009f790       ?leavegame@ctfservmode@server@@UEAAXPEAUclientinfo@2@_N@Z 00000001400a0790 f i server1.obj
 0001:0009f800       ?died@ctfservmode@server@@UEAAXPEAUclientinfo@2@0@Z 00000001400a0800 f i server1.obj
 0001:0009f8d0       ?canspawn@ctfservmode@server@@UEAA_NPEAUclientinfo@2@_N@Z 00000001400a08d0 f i server1.obj
 0001:0009f950       ?canchangeteam@collectservmode@server@@UEAA_NPEAUclientinfo@2@PEBD1@Z 00000001400a0950 f i server1.obj
 0001:0009f950       ?canchangeteam@ctfservmode@server@@UEAA_NPEAUclientinfo@2@PEBD1@Z 00000001400a0950 f i server1.obj
 0001:0009f9c0       ?changeteam@ctfservmode@server@@UEAAXPEAUclientinfo@2@PEBD1@Z 00000001400a09c0 f i server1.obj
 0001:0009f9d0       ?spawnflag@ctfservmode@server@@QEAAXH@Z 00000001400a09d0 f i server1.obj
 0001:0009fb50       ?scoreflag@ctfservmode@server@@QEAAXPEAUclientinfo@2@HH@Z 00000001400a0b50 f i server1.obj
 0001:0009fd40       ?takeflag@ctfservmode@server@@QEAAXPEAUclientinfo@2@HH@Z 00000001400a0d40 f i server1.obj
 0001:000a0060       ?update@ctfservmode@server@@UEAAXXZ 00000001400a1060 f i server1.obj
 0001:000a0390       ?initclient@ctfservmode@server@@UEAAXPEAUclientinfo@2@AEAUpacketbuf@@_N@Z 00000001400a1390 f i server1.obj
 0001:000a04e0       ?parseflags@ctfservmode@server@@QEAAXAEAU?$databuf@E@@_N@Z 00000001400a14e0 f i server1.obj
 0001:000a0850       ??_Ectfservmode@server@@UEAAPEAXI@Z 00000001400a1850 f i * CIL library *:* CIL module *
 0001:000a0850       ??_Gctfservmode@server@@UEAAPEAXI@Z 00000001400a1850 f i server1.obj
 0001:000a08e0       ?addbase@collectservmode@server@@QEAA_NHAEBUvec@@H@Z 00000001400a18e0 f i server1.obj
 0001:000a0a70       ?droptoken@collectservmode@server@@QEAAAEAUtoken@12@AEBUvec@@HHHH@Z 00000001400a1a70 f i server1.obj
 0001:000a0bd0       ?cleanup@collectservmode@server@@UEAAXXZ 00000001400a1bd0 f i server1.obj
 0001:000a0c20       ?setup@collectservmode@server@@UEAAXXZ 00000001400a1c20 f i server1.obj
 0001:000a0cf0       ?newmap@collectservmode@server@@UEAAXXZ 00000001400a1cf0 f i server1.obj
 0001:000a0d30       ?droptokens@collectservmode@server@@QEAAXPEAUclientinfo@2@_N@Z 00000001400a1d30 f i server1.obj
 0001:000a11e0       ?leavegame@collectservmode@server@@UEAAXPEAUclientinfo@2@_N@Z 00000001400a21e0 f i server1.obj
 0001:000a14a0       ?died@collectservmode@server@@UEAAXPEAUclientinfo@2@0@Z 00000001400a24a0 f i server1.obj
 0001:000a1520       ?canspawn@collectservmode@server@@UEAA_NPEAUclientinfo@2@_N@Z 00000001400a2520 f i server1.obj
 0001:000a1550       ?deposittokens@collectservmode@server@@QEAAXPEAUclientinfo@2@H@Z 00000001400a2550 f i server1.obj
 0001:000a18a0       ?update@collectservmode@server@@UEAAXXZ 00000001400a28a0 f i server1.obj
 0001:000a19e0       ?initclient@collectservmode@server@@UEAAXPEAUclientinfo@2@AEAUpacketbuf@@_N@Z 00000001400a29e0 f i server1.obj
 0001:000a1b60       ?parsebases@collectservmode@server@@QEAAXAEAU?$databuf@E@@_N@Z 00000001400a2b60 f i server1.obj
 0001:000a1db0       ??_Ecollectservmode@server@@UEAAPEAXI@Z 00000001400a2db0 f i * CIL library *:* CIL module *
 0001:000a1db0       ??_Gcollectservmode@server@@UEAAPEAXI@Z 00000001400a2db0 f i server1.obj
 0001:000a1e40       ??1userinfo@server@@QEAA@XZ 00000001400a2e40 f i server1.obj
 0001:000a1e90       ??0msgfilter@server@@QEAA@HZZ 00000001400a2e90 f i server1.obj
 0001:000a1f10       ?compare@crcinfo@server@@SA_NAEBU12@0@Z 00000001400a2f10 f i server1.obj
 0001:000a1f20       ?add@banlist@server@@QEAAXPEBD@Z 00000001400a2f20 f i server1.obj
 0001:000a2130       ??_Esuicideevent@server@@UEAAPEAXI@Z 00000001400a3130 f i * CIL library *:* CIL module *
 0001:000a2130       ??_Gsuicideevent@server@@UEAAPEAXI@Z 00000001400a3130 f i server1.obj
 0001:000a2160       ??_Eshotevent@server@@UEAAPEAXI@Z 00000001400a3160 f i * CIL library *:* CIL module *
 0001:000a2160       ??_Gshotevent@server@@UEAAPEAXI@Z 00000001400a3160 f i server1.obj
 0001:000a21d0       ??1timedevent@server@@UEAA@XZ 00000001400a31d0 f i server1.obj
 0001:000a21e0       ??_Epickupevent@server@@UEAAPEAXI@Z 00000001400a31e0 f i * CIL library *:* CIL module *
 0001:000a21e0       ??_Etimedevent@server@@UEAAPEAXI@Z 00000001400a31e0 f i * CIL library *:* CIL module *
 0001:000a21e0       ??_Gpickupevent@server@@UEAAPEAXI@Z 00000001400a31e0 f i server1.obj
 0001:000a21e0       ??_Gtimedevent@server@@UEAAPEAXI@Z 00000001400a31e0 f i server1.obj
 0001:000a2210       ??_Eexplodeevent@server@@UEAAPEAXI@Z 00000001400a3210 f i * CIL library *:* CIL module *
 0001:000a2210       ??_Gexplodeevent@server@@UEAAPEAXI@Z 00000001400a3210 f i server1.obj
 0001:000a2280       ??1?$hashbase@U?$hashset@Uuserinfo@server@@@@Uuserinfo@server@@U23@U23@@@QEAA@XZ 00000001400a3280 f i server1.obj
 0001:000a22b0       ?add@?$vector@Userver_entity@server@@@@QEAAAEAUserver_entity@server@@AEBU23@@Z 00000001400a32b0 f i server1.obj
 0001:000a23d0       ?add@?$vector@Umaprotation@server@@@@QEAAAEAUmaprotation@server@@XZ 00000001400a33d0 f i server1.obj
 0001:000a24c0       ?add@?$vector@Uban@server@@@@QEAAAEAUban@server@@AEBU23@@Z 00000001400a34c0 f i server1.obj
 0001:000a25e0       ?add@?$vector@Uhitinfo@server@@@@QEAAAEAUhitinfo@server@@XZ 00000001400a35e0 f i server1.obj
 0001:000a26a0       ?deletechunks@?$hashbase@U?$hashset@Uuserinfo@server@@@@Uuserinfo@server@@U23@U23@@@QEAAXXZ 00000001400a36a0 f i server1.obj
 0001:000a2710       ??1chain@?$hashbase@U?$hashset@Uuserinfo@server@@@@Uuserinfo@server@@U23@U23@@@QEAA@XZ 00000001400a3710 f i server1.obj
 0001:000a2760       ??$formatstring@$0CAI@@@YAXAEAY0CAI@DPEBDZZ 00000001400a3760 f i server1.obj
 0001:000a27c0       ??$sendstate@Upacketbuf@@@server@@YAXAEAUgamestate@0@AEAUpacketbuf@@@Z 00000001400a37c0 f i server1.obj
 0001:000a2850       ??$access@Uuserkey@server@@@?$hashbase@U?$hashset@Uuserinfo@server@@@@Uuserinfo@server@@U23@U23@@@QEAAPEAUuserinfo@server@@AEBUuserkey@2@@Z 00000001400a3850 f i server1.obj
 0001:000a2900       ?insert@?$hashbase@U?$hashset@Uuserinfo@server@@@@Uuserinfo@server@@U23@U23@@@QEAAPEAUchain@1@I@Z 00000001400a3900 f i server1.obj
 0001:000a2c80       ??0chain@?$hashbase@U?$hashset@Uuserinfo@server@@@@Uuserinfo@server@@U23@U23@@@QEAA@XZ 00000001400a3c80 f i server1.obj
 0001:000a2c99       __WSAFDIsSet               00000001400a3c99 f   ws2_32:WS2_32.dll
 0001:000a2ca0       ??3@YAXPEAX_K@Z            00000001400a3ca0 f   LIBCMT:delete_scalar_size.obj
 0001:000a2ca8       __scrt_acquire_startup_lock 00000001400a3ca8 f   LIBCMT:utility.obj
 0001:000a2ce4       __scrt_initialize_crt      00000001400a3ce4 f   LIBCMT:utility.obj
 0001:000a2d30       __scrt_initialize_onexit_tables 00000001400a3d30 f   LIBCMT:utility.obj
 0001:000a2dbc       __scrt_is_nonwritable_in_current_image 00000001400a3dbc f   LIBCMT:utility.obj
 0001:000a2e54       __scrt_release_startup_lock 00000001400a3e54 f   LIBCMT:utility.obj
 0001:000a2e78       __scrt_uninitialize_crt    00000001400a3e78 f   LIBCMT:utility.obj
 0001:000a2ea4       _onexit                    00000001400a3ea4 f   LIBCMT:utility.obj
 0001:000a2ee0       atexit                     00000001400a3ee0 f   LIBCMT:utility.obj
 0001:000a2ef8       ??_L@YAXPEAX_K1P6AX0@Z2@Z  00000001400a3ef8 f   LIBCMT:ehvecctr.obj
 0001:000a2f68       ??_M@YAXPEAX_K1P6AX0@Z@Z   00000001400a3f68 f   LIBCMT:ehvecdtr.obj
 0001:000a2fd4       ?__ArrayUnwind@@YAXPEAX_K1P6AX0@Z@Z 00000001400a3fd4 f   LIBCMT:ehvecdtr.obj
 0001:000a3130       _Init_thread_abort         00000001400a4130 f   LIBCMT:thread_safe_statics.obj
 0001:000a3160       _Init_thread_footer        00000001400a4160 f   LIBCMT:thread_safe_statics.obj
 0001:000a31c0       _Init_thread_header        00000001400a41c0 f   LIBCMT:thread_safe_statics.obj
 0001:000a3228       _Init_thread_notify        00000001400a4228 f   LIBCMT:thread_safe_statics.obj
 0001:000a326c       _Init_thread_wait          00000001400a426c f   LIBCMT:thread_safe_statics.obj
 0001:000a32d0       ??_V@YAXPEAX_K@Z           00000001400a42d0 f   LIBCMT:delete_array_size.obj
 0001:000a32d8       ??_Etype_info@@UEAAPEAXI@Z 00000001400a42d8 f i LIBCMT:std_type_info_static.obj
 0001:000a32d8       ??_Gtype_info@@UEAAPEAXI@Z 00000001400a42d8 f i LIBCMT:std_type_info_static.obj
 0001:000a355c       WinMainCRTStartup          00000001400a455c f   LIBCMT:exe_winmain.obj
 0001:000a3570       __isa_available_init       00000001400a4570 f   LIBCMT:cpu_disp.obj
 0001:000a371c       __scrt_is_ucrt_dll_in_use  00000001400a471c f   LIBCMT:ucrt_detection.obj
 0001:000a3728       __crt_debugger_hook        00000001400a4728 f   LIBCMT:utility_desktop.obj
 0001:000a3730       __scrt_fastfail            00000001400a4730 f   LIBCMT:utility_desktop.obj
 0001:000a387c       __scrt_get_show_window_mode 00000001400a487c f   LIBCMT:utility_desktop.obj
 0001:000a38b8       __scrt_initialize_mta      00000001400a48b8 f   LIBCMT:utility_desktop.obj
 0001:000a38c0       __scrt_is_managed_app      00000001400a48c0 f   LIBCMT:utility_desktop.obj
 0001:000a3914       __scrt_set_unhandled_exception_filter 00000001400a4914 f   LIBCMT:utility_desktop.obj
 0001:000a3924       __scrt_unhandled_exception_filter 00000001400a4924 f   LIBCMT:utility_desktop.obj
 0001:000a3980       __security_init_cookie     00000001400a4980 f   LIBCMT:gs_support.obj
 0001:000a3a2c       _get_startup_file_mode     00000001400a4a2c f   LIBCMT:file_mode.obj
 0001:000a3a34       ?__scrt_initialize_type_info@@YAXXZ 00000001400a4a34 f   LIBCMT:tncleanup.obj
 0001:000a3a44       __scrt_initialize_default_local_stdio_options 00000001400a4a44 f   LIBCMT:default_local_stdio_options.obj
 0001:000a3a60       __scrt_is_user_matherr_present 00000001400a4a60 f   LIBCMT:matherr_detection.obj
 0001:000a3a6c       __scrt_get_dyn_tls_init_callback 00000001400a4a6c f   LIBCMT:dyn_tls_init.obj
 0001:000a3a74       __scrt_get_dyn_tls_dtor_callback 00000001400a4a74 f   LIBCMT:dyn_tls_dtor.obj
 0001:000a3a7c       _RTC_Initialize            00000001400a4a7c f   LIBCMT:initsect.obj
 0001:000a3ab8       _RTC_Terminate             00000001400a4ab8 f   LIBCMT:initsect.obj
 0001:000a3b00       ??$_CallSETranslator@V__FrameHandler3@@@@YAHPEAUEHExceptionRecord@@PEA_KPEAU_CONTEXT@@PEAU_xDISPATCHER_CONTEXT@@PEBU_s_FuncInfo@@K1H@Z 00000001400a4b00 f i libvcruntime:risctrnsctrl.obj
 0001:000a3b54       ??$_CallSETranslator@V__FrameHandler4@@@@YAHPEAUEHExceptionRecord@@PEA_KPEAU_CONTEXT@@PEAU_xDISPATCHER_CONTEXT@@PEAUFuncInfo4@FH4@@K1H@Z 00000001400a4b54 f i libvcruntime:risctrnsctrl.obj
 0001:000a3ba8       ?CatchTryBlock@__FrameHandler3@@SAPEBU_s_TryBlockMapEntry@@PEBU_s_FuncInfo@@H@Z 00000001400a4ba8 f   libvcruntime:risctrnsctrl.obj
 0001:000a3c0c       ?DecompFuncInfo@FH4@@YA_JPEAEAEAUFuncInfo4@1@_KH_N@Z 00000001400a4c0c f i libvcruntime:risctrnsctrl.obj
 0001:000a3d40       ?ExecutionInCatch@__FrameHandler3@@SA_NPEAU_xDISPATCHER_CONTEXT@@PEBU_s_FuncInfo@@@Z 00000001400a4d40 f   libvcruntime:risctrnsctrl.obj
 0001:000a3d6c       ?ExecutionInCatch@__FrameHandler4@@SA_NPEAU_xDISPATCHER_CONTEXT@@PEAUFuncInfo4@FH4@@@Z 00000001400a4d6c f   libvcruntime:risctrnsctrl.obj
 0001:000a3d74       ?FrameUnwindToEmptyState@__FrameHandler3@@SAXPEA_KPEAU_xDISPATCHER_CONTEXT@@PEBU_s_FuncInfo@@@Z 00000001400a4d74 f   libvcruntime:risctrnsctrl.obj
 0001:000a3dd8       ?FrameUnwindToEmptyState@__FrameHandler4@@SAXPEA_KPEAU_xDISPATCHER_CONTEXT@@PEAUFuncInfo4@FH4@@@Z 00000001400a4dd8 f   libvcruntime:risctrnsctrl.obj
 0001:000a3e0c       ?GetEstablisherFrame@__FrameHandler3@@SAPEA_KPEA_KPEAU_xDISPATCHER_CONTEXT@@PEBU_s_FuncInfo@@0@Z 00000001400a4e0c f   libvcruntime:risctrnsctrl.obj
 0001:000a3ed8       ?GetEstablisherFrame@__FrameHandler4@@SAPEA_KPEA_KPEAU_xDISPATCHER_CONTEXT@@PEAUFuncInfo4@FH4@@0@Z 00000001400a4ed8 f   libvcruntime:risctrnsctrl.obj
 0001:000a3efc       ?GetRangeOfTrysToCheck@__FrameHandler3@@SA?AU?$pair@Viterator@TryBlockMap@__FrameHandler3@@V123@@std@@AEAVTryBlockMap@1@HPEAU_xDISPATCHER_CONTEXT@@PEBU_s_FuncInfo@@H@Z 00000001400a4efc f   libvcruntime:risctrnsctrl.obj
 0001:000a403c       ?GetRangeOfTrysToCheck@__FrameHandler4@@SA?AU?$pair@Viterator@TryBlockMap4@FH4@@V123@@std@@AEAVTryBlockMap4@FH4@@HPEAU_xDISPATCHER_CONTEXT@@PEAUFuncInfo4@5@H@Z 00000001400a503c f   libvcruntime:risctrnsctrl.obj
 0001:000a41a8       ?UnwindNestedFrames@__FrameHandler3@@SAXPEA_KPEAUEHExceptionRecord@@PEAU_CONTEXT@@0PEAXPEBU_s_FuncInfo@@HHPEBU_s_HandlerType@@PEAU_xDISPATCHER_CONTEXT@@E@Z 00000001400a51a8 f   libvcruntime:risctrnsctrl.obj
 0001:000a42ac       ?UnwindNestedFrames@__FrameHandler4@@SAXPEA_KPEAUEHExceptionRecord@@PEAU_CONTEXT@@0PEAXPEAUFuncInfo4@FH4@@HHPEAUHandlerType4@5@PEAU_xDISPATCHER_CONTEXT@@E@Z 00000001400a52ac f   libvcruntime:risctrnsctrl.obj
 0001:000a43cc       ?setBuffer@TryBlockMap4@FH4@@QEAAXViterator@12@@Z 00000001400a53cc f i libvcruntime:risctrnsctrl.obj
 0001:000a4590       _CreateFrameInfo           00000001400a5590 f   libvcruntime:risctrnsctrl.obj
 0001:000a45cc       _FindAndUnlinkFrame        00000001400a55cc f   libvcruntime:risctrnsctrl.obj
 0001:000a4620       _GetImageBase              00000001400a5620 f   libvcruntime:risctrnsctrl.obj
 0001:000a4634       _GetThrowImageBase         00000001400a5634 f   libvcruntime:risctrnsctrl.obj
 0001:000a4648       _SetImageBase              00000001400a5648 f   libvcruntime:risctrnsctrl.obj
 0001:000a4660       _SetThrowImageBase         00000001400a5660 f   libvcruntime:risctrnsctrl.obj
 0001:000a4678       __CxxFrameHandler3         00000001400a5678 f   libvcruntime:risctrnsctrl.obj
 0001:000a4700       __CxxFrameHandler4         00000001400a5700 f   libvcruntime:risctrnsctrl.obj
 0001:000a47c0       strrchr                    00000001400a57c0 f   libvcruntime:strrchr.obj
 0001:000a48fc       _get_purecall_handler      00000001400a58fc f   libvcruntime:purevirt.obj
 0001:000a4908       _purecall                  00000001400a5908 f   libvcruntime:purevirt.obj
 0001:000a4924       strstr                     00000001400a5924 f   libvcruntime:strstr.obj
 0001:000a4b1c       strchr                     00000001400a5b1c f   libvcruntime:strchr.obj
 0001:000a4b9c       __C_specific_handler       00000001400a5b9c f   libvcruntime:riscchandler.obj
 0001:000a4db0       memset_repstos             00000001400a5db0 f   libvcruntime:memset.obj
 0001:000a4dd0       memset                     00000001400a5dd0 f   libvcruntime:memset.obj
 0001:000a5170       memcpy_repmovs             00000001400a6170 f   libvcruntime:memcpy.obj
 0001:000a5190       memcpy                     00000001400a6190 f   libvcruntime:memcpy.obj
 0001:000a5190       memmove                    00000001400a6190 f   libvcruntime:memcpy.obj
 0001:000a5808       __vcrt_initialize          00000001400a6808 f   libvcruntime:initialization.obj
 0001:000a5830       __vcrt_uninitialize        00000001400a6830 f   libvcruntime:initialization.obj
 0001:000a584c       __DestructExceptionObject  00000001400a684c f   libvcruntime:ehhelpers.obj
 0001:000a58bc       ?_CallMemberFunction0@@YAXQEAX0@Z 00000001400a68bc f i libvcruntime:ehhelpers.obj
 0001:000a58c0       _IsExceptionObjectToBeDestroyed 00000001400a68c0 f   libvcruntime:ehhelpers.obj
 0001:000a58f0       __AdjustPointer            00000001400a68f0 f   libvcruntime:ehhelpers.obj
 0001:000a5914       __FrameUnwindFilter        00000001400a6914 f   libvcruntime:ehhelpers.obj
 0001:000a597c       __current_exception        00000001400a697c f   libvcruntime:ehhelpers.obj
 0001:000a5990       __current_exception_context 00000001400a6990 f   libvcruntime:ehhelpers.obj
 0001:000a59a4       __std_terminate            00000001400a69a4 f   libvcruntime:ehhelpers.obj
 0001:000a59b0       __std_type_info_compare    00000001400a69b0 f   libvcruntime:std_type_info.obj
 0001:000a59d8       __vcrt_freefls             00000001400a69d8 f   libvcruntime:per_thread_data.obj
 0001:000a59f8       __vcrt_getptd              00000001400a69f8 f   libvcruntime:per_thread_data.obj
 0001:000a5a14       __vcrt_getptd_noexit       00000001400a6a14 f   libvcruntime:per_thread_data.obj
 0001:000a5ad4       __vcrt_initialize_ptd      00000001400a6ad4 f   libvcruntime:per_thread_data.obj
 0001:000a5b1c       __vcrt_uninitialize_ptd    00000001400a6b1c f   libvcruntime:per_thread_data.obj
 0001:000a5b40       ?GetCurrentState@__FrameHandler3@@SAHPEA_KPEAU_xDISPATCHER_CONTEXT@@PEBU_s_FuncInfo@@@Z 00000001400a6b40 f   libvcruntime:ehstate.obj
 0001:000a5b68       ?GetUnwindTryBlock@__FrameHandler3@@SAHPEA_KPEAU_xDISPATCHER_CONTEXT@@PEBU_s_FuncInfo@@@Z 00000001400a6b68 f   libvcruntime:ehstate.obj
 0001:000a5b94       ?SetState@__FrameHandler3@@SAXPEA_KPEBU_s_FuncInfo@@H@Z 00000001400a6b94 f   libvcruntime:ehstate.obj
 0001:000a5ba0       ?SetUnwindTryBlock@__FrameHandler3@@SAXPEA_KPEAU_xDISPATCHER_CONTEXT@@PEBU_s_FuncInfo@@H@Z 00000001400a6ba0 f   libvcruntime:ehstate.obj
 0001:000a5bdc       ?StateFromControlPc@__FrameHandler3@@SAHPEBU_s_FuncInfo@@PEAU_xDISPATCHER_CONTEXT@@@Z 00000001400a6bdc f   libvcruntime:ehstate.obj
 0001:000a5be4       ?StateFromControlPc@__FrameHandler4@@SAHPEAUFuncInfo4@FH4@@PEAU_xDISPATCHER_CONTEXT@@@Z 00000001400a6be4 f   libvcruntime:ehstate.obj
 0001:000a5bec       ?StateFromIp@__FrameHandler3@@SAHPEBU_s_FuncInfo@@PEAU_xDISPATCHER_CONTEXT@@_K@Z 00000001400a6bec f   libvcruntime:ehstate.obj
 0001:000a5c54       ?StateFromIp@__FrameHandler4@@SAHPEAUFuncInfo4@FH4@@PEAU_xDISPATCHER_CONTEXT@@_K@Z 00000001400a6c54 f   libvcruntime:ehstate.obj
 0001:000a7354       ??$TypeMatchHelper@V__FrameHandler3@@@@YAHPEBU_s_HandlerType@@PEBU_s_CatchableType@@PEBU_s_ThrowInfo@@@Z 00000001400a8354 f i libvcruntime:frame.obj
 0001:000a7494       ??$TypeMatchHelper@V__FrameHandler4@@@@YAHPEAUHandlerType4@FH4@@PEBU_s_CatchableType@@PEBU_s_ThrowInfo@@@Z 00000001400a8494 f i libvcruntime:frame.obj
 0001:000a75d8       ??$__InternalCxxFrameHandler@V__FrameHandler3@@@@YA?AW4_EXCEPTION_DISPOSITION@@PEAUEHExceptionRecord@@PEA_KPEAU_CONTEXT@@PEAU_xDISPATCHER_CONTEXT@@PEBU_s_FuncInfo@@H1E@Z 00000001400a85d8 f i libvcruntime:frame.obj
 0001:000a7810       ??$__InternalCxxFrameHandler@V__FrameHandler4@@@@YA?AW4_EXCEPTION_DISPOSITION@@PEAUEHExceptionRecord@@PEA_KPEAU_CONTEXT@@PEAU_xDISPATCHER_CONTEXT@@PEAUFuncInfo4@FH4@@H1E@Z 00000001400a8810 f i libvcruntime:frame.obj
 0001:000a7aa4       ??$__InternalCxxFrameHandlerWrapper@V__FrameHandler3@@@@YA?AW4_EXCEPTION_DISPOSITION@@PEAUEHExceptionRecord@@PEA_KPEAU_CONTEXT@@PEAU_xDISPATCHER_CONTEXT@@PEBU_s_FuncInfo@@H1E@Z 00000001400a8aa4 f i libvcruntime:frame.obj
 0001:000a7aac       ??$__InternalCxxFrameHandlerWrapper@V__FrameHandler4@@@@YA?AW4_EXCEPTION_DISPOSITION@@PEAUEHExceptionRecord@@PEA_KPEAU_CONTEXT@@PEAU_xDISPATCHER_CONTEXT@@PEAUFuncInfo4@FH4@@H1E@Z 00000001400a8aac f i libvcruntime:frame.obj
 0001:000a7b08       ??0HandlerMap4@FH4@@QEAA@PEBUTryBlockMapEntry4@1@_KH@Z 00000001400a8b08 f i libvcruntime:frame.obj
 0001:000a7b84       ??0TryBlockMap4@FH4@@QEAA@PEBUFuncInfo4@1@_K@Z 00000001400a8b84 f i libvcruntime:frame.obj
 0001:000a7c5c       ??0bad_exception@std@@QEAA@AEBV01@@Z 00000001400a8c5c f i libvcruntime:frame.obj
 0001:000a7c98       ??0bad_exception@std@@QEAA@XZ 00000001400a8c98 f i libvcruntime:frame.obj
 0001:000a7cb8       ??0exception@std@@QEAA@AEBV01@@Z 00000001400a8cb8 f i libvcruntime:frame.obj
 0001:000a7cec       ??1bad_exception@std@@UEAA@XZ 00000001400a8cec f i libvcruntime:frame.obj
 0001:000a7d00       ??_Ebad_exception@std@@UEAAPEAXI@Z 00000001400a8d00 f i libvcruntime:frame.obj
 0001:000a7d00       ??_Eexception@std@@UEAAPEAXI@Z 00000001400a8d00 f i libvcruntime:frame.obj
 0001:000a7d00       ??_Gbad_exception@std@@UEAAPEAXI@Z 00000001400a8d00 f i libvcruntime:frame.obj
 0001:000a7d00       ??_Gexception@std@@UEAAPEAXI@Z 00000001400a8d00 f i libvcruntime:frame.obj
 0001:000a7d44       ?CxxCallCatchBlock@__FrameHandler3@@SAPEAXPEAU_EXCEPTION_RECORD@@@Z 00000001400a8d44 f   libvcruntime:frame.obj
 0001:000a7f30       ?CxxCallCatchBlock@__FrameHandler4@@SAPEAXPEAU_EXCEPTION_RECORD@@@Z 00000001400a8f30 f   libvcruntime:frame.obj
 0001:000a8180       ?DecompHandler@HandlerMap4@FH4@@AEAAXXZ 00000001400a9180 f i libvcruntime:frame.obj
 0001:000a83cc       ?FrameUnwindToState@__FrameHandler3@@SAXPEA_KPEAU_xDISPATCHER_CONTEXT@@PEBU_s_FuncInfo@@H@Z 00000001400a93cc f   libvcruntime:frame.obj
 0001:000a8558       ?FrameUnwindToState@__FrameHandler4@@SAXPEA_KPEAU_xDISPATCHER_CONTEXT@@PEAUFuncInfo4@FH4@@H@Z 00000001400a9558 f   libvcruntime:frame.obj
 0001:000a8854       ?GetHandlerSearchState@__FrameHandler3@@SAHPEA_KPEAU_xDISPATCHER_CONTEXT@@PEBU_s_FuncInfo@@@Z 00000001400a9854 f i libvcruntime:frame.obj
 0001:000a8a64       ?ReadEntry@UWMap4@FH4@@AEAAXPEAPEAE@Z 00000001400a9a64 f i libvcruntime:frame.obj
 0001:000a8b00       ?_CallMemberFunction1@@YAXQEAX00@Z 00000001400a9b00 f i libvcruntime:frame.obj
 0001:000a8b0c       ?_CallMemberFunction2@@YAXQEAX00H@Z 00000001400a9b0c f i libvcruntime:frame.obj
 0001:000a8b1c       ?getStartStop@UWMap4@FH4@@QEAAXHHAEAViterator@12@0@Z 00000001400a9b1c f i libvcruntime:frame.obj
 0001:000a8bec       ?getStateFromIterators@UWMap4@FH4@@SAHAEBViterator@12@H0H0@Z 00000001400a9bec f i libvcruntime:frame.obj
 0001:000a8c9c       ?what@exception@std@@UEBAPEBDXZ 00000001400a9c9c f i libvcruntime:frame.obj
 0001:000a8cc0       _NLG_Notify                00000001400a9cc0 f   libvcruntime:notify.obj
 0001:000a8ce0       __NLG_Dispatch2            00000001400a9ce0 f   libvcruntime:notify.obj
 0001:000a8cf0       __NLG_Return2              00000001400a9cf0 f   libvcruntime:notify.obj
 0001:000a8cf4       __except_validate_context_record 00000001400a9cf4 f   libvcruntime:jbcxrval.obj
 0001:000a8d2c       __vcrt_initialize_locks    00000001400a9d2c f   libvcruntime:locks.obj
 0001:000a8d74       __vcrt_uninitialize_locks  00000001400a9d74 f   libvcruntime:locks.obj
 0001:000a8efc       __vcrt_FlsAlloc            00000001400a9efc f   libvcruntime:winapi_downlevel.obj
 0001:000a8f44       __vcrt_FlsFree             00000001400a9f44 f   libvcruntime:winapi_downlevel.obj
 0001:000a8f8c       __vcrt_FlsGetValue         00000001400a9f8c f   libvcruntime:winapi_downlevel.obj
 0001:000a8fd4       __vcrt_FlsSetValue         00000001400a9fd4 f   libvcruntime:winapi_downlevel.obj
 0001:000a9028       __vcrt_InitializeCriticalSectionEx 00000001400aa028 f   libvcruntime:winapi_downlevel.obj
 0001:000a90a0       _CallSettingFrame          00000001400aa0a0 f   libvcruntime:handlers.obj
 0001:000a90f0       _CallSettingFrame_LookupContinuationIndex 00000001400aa0f0 f   libvcruntime:handlers.obj
 0001:000a9120       _CallSettingFrame_NotifyContinuationAddr 00000001400aa120 f   libvcruntime:handlers.obj
 0001:000a9150       _CallSettingFrameEncoded   00000001400aa150 f   libvcruntime:handlers.obj
 0001:000a9198       __std_exception_copy       00000001400aa198 f   libvcruntime:std_exception.obj
 0001:000a9228       __std_exception_destroy    00000001400aa228 f   libvcruntime:std_exception.obj
 0001:000a9250       _CxxThrowException         00000001400aa250 f   libvcruntime:throw.obj
 0001:000a92f0       _local_unwind              00000001400aa2f0 f   libvcruntime:jmpuwind.obj
 0001:000a9330       strncmp                    00000001400aa330 f   libucrt:strncmp.obj
 0001:000a93f0       ??$ensure_buffer_is_big_enough@D@formatting_buffer@__crt_stdio_output@@QEAA_N_KAEAV__crt_cached_ptd_host@@@Z 00000001400aa3f0 f i libucrt:output.obj
 0001:000a9498       ??$parse_integer@KV?$c_string_character_source@D@__crt_strtox@@$0A@@__crt_strtox@@YAKAEAV__crt_cached_ptd_host@@V?$c_string_character_source@D@0@H_N@Z 00000001400aa498 f i libucrt:output.obj
 0001:000a9748       ??$type_case_integer@$07@?$output_processor@DV?$stream_output_adapter@D@__crt_stdio_output@@V?$standard_base@DV?$stream_output_adapter@D@__crt_stdio_output@@@2@@__crt_stdio_output@@AEAA_N_N@Z 00000001400aa748 f i libucrt:output.obj
 0001:000a9748       ??$type_case_integer@$07@?$output_processor@DV?$string_output_adapter@D@__crt_stdio_output@@V?$standard_base@DV?$string_output_adapter@D@__crt_stdio_output@@@2@@__crt_stdio_output@@AEAA_N_N@Z 00000001400aa748 f i libucrt:output.obj
 0001:000a9930       ??$type_case_integer@$09@?$output_processor@DV?$stream_output_adapter@D@__crt_stdio_output@@V?$standard_base@DV?$stream_output_adapter@D@__crt_stdio_output@@@2@@__crt_stdio_output@@AEAA_N_N@Z 00000001400aa930 f i libucrt:output.obj
 0001:000a9930       ??$type_case_integer@$09@?$output_processor@DV?$string_output_adapter@D@__crt_stdio_output@@V?$standard_base@DV?$string_output_adapter@D@__crt_stdio_output@@@2@@__crt_stdio_output@@AEAA_N_N@Z 00000001400aa930 f i libucrt:output.obj
 0001:000a9b18       ??$type_case_integer@$0BA@@?$output_processor@DV?$stream_output_adapter@D@__crt_stdio_output@@V?$standard_base@DV?$stream_output_adapter@D@__crt_stdio_output@@@2@@__crt_stdio_output@@AEAA_N_N@Z 00000001400aab18 f i libucrt:output.obj
 0001:000a9b18       ??$type_case_integer@$0BA@@?$output_processor@DV?$string_output_adapter@D@__crt_stdio_output@@V?$standard_base@DV?$string_output_adapter@D@__crt_stdio_output@@@2@@__crt_stdio_output@@AEAA_N_N@Z 00000001400aab18 f i libucrt:output.obj
 0001:000a9d00       ??$type_case_integer_parse_into_buffer@I$07@?$output_processor@DV?$stream_output_adapter@D@__crt_stdio_output@@V?$standard_base@DV?$stream_output_adapter@D@__crt_stdio_output@@@2@@__crt_stdio_output@@AEAAXI_N@Z 00000001400aad00 f i libucrt:output.obj
 0001:000a9d00       ??$type_case_integer_parse_into_buffer@I$07@?$output_processor@DV?$string_output_adapter@D@__crt_stdio_output@@V?$standard_base@DV?$string_output_adapter@D@__crt_stdio_output@@@2@@__crt_stdio_output@@AEAAXI_N@Z 00000001400aad00 f i libucrt:output.obj
 0001:000a9d7c       ??$type_case_integer_parse_into_buffer@I$09@?$output_processor@DV?$stream_output_adapter@D@__crt_stdio_output@@V?$standard_base@DV?$stream_output_adapter@D@__crt_stdio_output@@@2@@__crt_stdio_output@@AEAAXI_N@Z 00000001400aad7c f i libucrt:output.obj
 0001:000a9d7c       ??$type_case_integer_parse_into_buffer@I$09@?$output_processor@DV?$string_output_adapter@D@__crt_stdio_output@@V?$standard_base@DV?$string_output_adapter@D@__crt_stdio_output@@@2@@__crt_stdio_output@@AEAAXI_N@Z 00000001400aad7c f i libucrt:output.obj
 0001:000a9e24       ??$type_case_integer_parse_into_buffer@I$0BA@@?$output_processor@DV?$stream_output_adapter@D@__crt_stdio_output@@V?$standard_base@DV?$stream_output_adapter@D@__crt_stdio_output@@@2@@__crt_stdio_output@@AEAAXI_N@Z 00000001400aae24 f i libucrt:output.obj
 0001:000a9e24       ??$type_case_integer_parse_into_buffer@I$0BA@@?$output_processor@DV?$string_output_adapter@D@__crt_stdio_output@@V?$standard_base@DV?$string_output_adapter@D@__crt_stdio_output@@@2@@__crt_stdio_output@@AEAAXI_N@Z 00000001400aae24 f i libucrt:output.obj
 0001:000a9eb0       ??$type_case_integer_parse_into_buffer@_K$07@?$output_processor@DV?$stream_output_adapter@D@__crt_stdio_output@@V?$standard_base@DV?$stream_output_adapter@D@__crt_stdio_output@@@2@@__crt_stdio_output@@AEAAX_K_N@Z 00000001400aaeb0 f i libucrt:output.obj
 0001:000a9eb0       ??$type_case_integer_parse_into_buffer@_K$07@?$output_processor@DV?$string_output_adapter@D@__crt_stdio_output@@V?$standard_base@DV?$string_output_adapter@D@__crt_stdio_output@@@2@@__crt_stdio_output@@AEAAX_K_N@Z 00000001400aaeb0 f i libucrt:output.obj
 0001:000a9f2c       ??$type_case_integer_parse_into_buffer@_K$09@?$output_processor@DV?$stream_output_adapter@D@__crt_stdio_output@@V?$standard_base@DV?$stream_output_adapter@D@__crt_stdio_output@@@2@@__crt_stdio_output@@AEAAX_K_N@Z 00000001400aaf2c f i libucrt:output.obj
 0001:000a9f2c       ??$type_case_integer_parse_into_buffer@_K$09@?$output_processor@DV?$string_output_adapter@D@__crt_stdio_output@@V?$standard_base@DV?$string_output_adapter@D@__crt_stdio_output@@@2@@__crt_stdio_output@@AEAAX_K_N@Z 00000001400aaf2c f i libucrt:output.obj
 0001:000a9fd8       ??$type_case_integer_parse_into_buffer@_K$0BA@@?$output_processor@DV?$stream_output_adapter@D@__crt_stdio_output@@V?$standard_base@DV?$stream_output_adapter@D@__crt_stdio_output@@@2@@__crt_stdio_output@@AEAAX_K_N@Z 00000001400aafd8 f i libucrt:output.obj
 0001:000a9fd8       ??$type_case_integer_parse_into_buffer@_K$0BA@@?$output_processor@DV?$string_output_adapter@D@__crt_stdio_output@@V?$standard_base@DV?$string_output_adapter@D@__crt_stdio_output@@@2@@__crt_stdio_output@@AEAAX_K_N@Z 00000001400aafd8 f i libucrt:output.obj
 0001:000aa180       ?crop_zeroes@__crt_stdio_output@@YAXPEADQEAU__crt_locale_pointers@@@Z 00000001400ab180 f i libucrt:output.obj
 0001:000aa1f0       ?get_raw_ptd@__crt_cached_ptd_host@@QEAAPEAU__acrt_ptd@@XZ 00000001400ab1f0 f i libucrt:output.obj
 0001:000aa258       ?parse_int_from_format_string@?$output_processor@DV?$stream_output_adapter@D@__crt_stdio_output@@V?$standard_base@DV?$stream_output_adapter@D@__crt_stdio_output@@@2@@__crt_stdio_output@@AEAA_NQEAH@Z 00000001400ab258 f i libucrt:output.obj
 0001:000aa258       ?parse_int_from_format_string@?$output_processor@DV?$string_output_adapter@D@__crt_stdio_output@@V?$standard_base@DV?$string_output_adapter@D@__crt_stdio_output@@@2@@__crt_stdio_output@@AEAA_NQEAH@Z 00000001400ab258 f i libucrt:output.obj
 0001:000aa2e8       ?process@?$output_processor@DV?$stream_output_adapter@D@__crt_stdio_output@@V?$standard_base@DV?$stream_output_adapter@D@__crt_stdio_output@@@2@@__crt_stdio_output@@QEAAHXZ 00000001400ab2e8 f i libucrt:output.obj
 0001:000aa674       ?process@?$output_processor@DV?$string_output_adapter@D@__crt_stdio_output@@V?$standard_base@DV?$string_output_adapter@D@__crt_stdio_output@@@2@@__crt_stdio_output@@QEAAHXZ 00000001400ab674 f i libucrt:output.obj
 0001:000aa9f8       ?state_case_size@?$output_processor@DV?$stream_output_adapter@D@__crt_stdio_output@@V?$standard_base@DV?$stream_output_adapter@D@__crt_stdio_output@@@2@@__crt_stdio_output@@AEAA_NXZ 00000001400ab9f8 f i libucrt:output.obj
 0001:000aab7c       ?state_case_size@?$output_processor@DV?$string_output_adapter@D@__crt_stdio_output@@V?$standard_base@DV?$string_output_adapter@D@__crt_stdio_output@@@2@@__crt_stdio_output@@AEAA_NXZ 00000001400abb7c f i libucrt:output.obj
 0001:000aad00       ?state_case_type@?$output_processor@DV?$stream_output_adapter@D@__crt_stdio_output@@V?$standard_base@DV?$stream_output_adapter@D@__crt_stdio_output@@@2@@__crt_stdio_output@@AEAA_NXZ 00000001400abd00 f i libucrt:output.obj
 0001:000ab134       ?state_case_type@?$output_processor@DV?$string_output_adapter@D@__crt_stdio_output@@V?$standard_base@DV?$string_output_adapter@D@__crt_stdio_output@@@2@@__crt_stdio_output@@AEAA_NXZ 00000001400ac134 f i libucrt:output.obj
 0001:000ab500       ?type_case_Z@?$output_processor@DV?$stream_output_adapter@D@__crt_stdio_output@@V?$standard_base@DV?$stream_output_adapter@D@__crt_stdio_output@@@2@@__crt_stdio_output@@AEAA_NXZ 00000001400ac500 f i libucrt:output.obj
 0001:000ab500       ?type_case_Z@?$output_processor@DV?$string_output_adapter@D@__crt_stdio_output@@V?$standard_base@DV?$string_output_adapter@D@__crt_stdio_output@@@2@@__crt_stdio_output@@AEAA_NXZ 00000001400ac500 f i libucrt:output.obj
 0001:000ab578       ?type_case_a@?$output_processor@DV?$stream_output_adapter@D@__crt_stdio_output@@V?$standard_base@DV?$stream_output_adapter@D@__crt_stdio_output@@@2@@__crt_stdio_output@@AEAA_NXZ 00000001400ac578 f i libucrt:output.obj
 0001:000ab578       ?type_case_a@?$output_processor@DV?$string_output_adapter@D@__crt_stdio_output@@V?$standard_base@DV?$string_output_adapter@D@__crt_stdio_output@@@2@@__crt_stdio_output@@AEAA_NXZ 00000001400ac578 f i libucrt:output.obj
 0001:000ab7c4       ?type_case_c_tchar@?$output_processor@DV?$stream_output_adapter@D@__crt_stdio_output@@V?$standard_base@DV?$stream_output_adapter@D@__crt_stdio_output@@@2@@__crt_stdio_output@@AEAA_ND@Z 00000001400ac7c4 f i libucrt:output.obj
 0001:000ab7c4       ?type_case_c_tchar@?$output_processor@DV?$string_output_adapter@D@__crt_stdio_output@@V?$standard_base@DV?$string_output_adapter@D@__crt_stdio_output@@@2@@__crt_stdio_output@@AEAA_ND@Z 00000001400ac7c4 f i libucrt:output.obj
 0001:000ab888       ?type_case_n@?$output_processor@DV?$stream_output_adapter@D@__crt_stdio_output@@V?$standard_base@DV?$stream_output_adapter@D@__crt_stdio_output@@@2@@__crt_stdio_output@@AEAA_NXZ 00000001400ac888 f i libucrt:output.obj
 0001:000ab888       ?type_case_n@?$output_processor@DV?$string_output_adapter@D@__crt_stdio_output@@V?$standard_base@DV?$string_output_adapter@D@__crt_stdio_output@@@2@@__crt_stdio_output@@AEAA_NXZ 00000001400ac888 f i libucrt:output.obj
 0001:000ab93c       ?type_case_s@?$output_processor@DV?$stream_output_adapter@D@__crt_stdio_output@@V?$standard_base@DV?$stream_output_adapter@D@__crt_stdio_output@@@2@@__crt_stdio_output@@AEAA_NXZ 00000001400ac93c f i libucrt:output.obj
 0001:000ab93c       ?type_case_s@?$output_processor@DV?$string_output_adapter@D@__crt_stdio_output@@V?$standard_base@DV?$string_output_adapter@D@__crt_stdio_output@@@2@@__crt_stdio_output@@AEAA_NXZ 00000001400ac93c f i libucrt:output.obj
 0001:000ab9e0       ?update_locale_slow@__crt_cached_ptd_host@@AEAAXXZ 00000001400ac9e0 f i libucrt:output.obj
 0001:000aba58       ?validate_stream_is_ansi_if_required@?$__acrt_stdio_char_traits@D@@SA_NQEAU_iobuf@@@Z 00000001400aca58 f i libucrt:output.obj
 0001:000abaf4       ?write_string@?$string_output_adapter@D@__crt_stdio_output@@QEBAXQEBDHQEAHAEAV__crt_cached_ptd_host@@@Z 00000001400acaf4 f i libucrt:output.obj
 0001:000abb98       ?write_string_impl@?$output_adapter_common@DV?$stream_output_adapter@D@__crt_stdio_output@@@__crt_stdio_output@@IEBAXQEBDHQEAHAEAV__crt_cached_ptd_host@@@Z 00000001400acb98 f i libucrt:output.obj
 0001:000abc64       __stdio_common_vfprintf    00000001400acc64 f   libucrt:output.obj
 0001:000abd88       __stdio_common_vsprintf    00000001400acd88 f   libucrt:output.obj
 0001:000ac114       _beginthreadex             00000001400ad114 f   libucrt:thread.obj
 0001:000ac1e8       _endthreadex               00000001400ad1e8 f   libucrt:thread.obj
 0001:000ac2a0       strpbrk                    00000001400ad2a0 f   libucrt:strpbrk.obj
 0001:000ac668       __acrt_initialize_stdio    00000001400ad668 f   libucrt:_file.obj
 0001:000ac788       __acrt_iob_func            00000001400ad788 f   libucrt:_file.obj
 0001:000ac79c       __acrt_uninitialize_stdio  00000001400ad79c f   libucrt:_file.obj
 0001:000ac7f8       _lock_file                 00000001400ad7f8 f   libucrt:_file.obj
 0001:000ac804       _unlock_file               00000001400ad804 f   libucrt:_file.obj
 0001:000ac810       ??$__acrt_convert_wcs_mbs_cp@D_WV<lambda_7c9dea7b4ca7285d2cdb541a38da6275>@@U__crt_win32_buffer_internal_dynamic_resizing@@@@YAHQEBDAEAV?$__crt_win32_buffer@_WU__crt_win32_buffer_internal_dynamic_resizing@@@@AEBV<lambda_7c9dea7b4ca7285d2cdb541a38da6275>@@I@Z 00000001400ad810 f i libucrt:unlink.obj
 0001:000ac98c       ??0_LocaleUpdate@@QEAA@QEAU__crt_locale_pointers@@@Z 00000001400ad98c f i libucrt:unlink.obj
 0001:000aca28       remove                     00000001400ada28 f   libucrt:unlink.obj
 0001:000acb0c       rename                     00000001400adb0c f   libucrt:rename.obj
 0001:000acd68       fclose                     00000001400add68 f   libucrt:fclose.obj
 0001:000acebc       fopen                      00000001400adebc f   libucrt:fopen.obj
 0001:000acff0       setvbuf                    00000001400adff0 f   libucrt:setvbuf.obj
 0001:000ad1e8       _fwrite_internal           00000001400ae1e8 f   libucrt:fwrite.obj
 0001:000ad284       _fwrite_nolock_internal    00000001400ae284 f   libucrt:fwrite.obj
 0001:000ad484       fwrite                     00000001400ae484 f   libucrt:fwrite.obj
 0001:000ad530       isalpha                    00000001400ae530 f   libucrt:_ctype.obj
 0001:000ad5e0       isdigit                    00000001400ae5e0 f   libucrt:_ctype.obj
 0001:000ad690       isspace                    00000001400ae690 f   libucrt:_ctype.obj
 0001:000ad740       isxdigit                   00000001400ae740 f   libucrt:_ctype.obj
 0001:000ada8c       __acrt_initialize_thread_local_exit_callback 00000001400aea8c f   libucrt:exit.obj
 0001:000ada94       _c_exit                    00000001400aea94 f   libucrt:exit.obj
 0001:000adaa4       _cexit                     00000001400aeaa4 f   libucrt:exit.obj
 0001:000adab4       _exit                      00000001400aeab4 f   libucrt:exit.obj
 0001:000adac0       _register_thread_local_exe_atexit_callback 00000001400aeac0 f   libucrt:exit.obj
 0001:000adb00       exit                       00000001400aeb00 f   libucrt:exit.obj
 0001:000adb0c       ??$is_overflow_condition@_K@__crt_strtox@@YA_NI_K@Z 00000001400aeb0c f i libucrt:atox.obj
 0001:000adb3c       ??$parse_integer@KV?$c_string_character_source@D@__crt_strtox@@$00@__crt_strtox@@YAKAEAV__crt_cached_ptd_host@@V?$c_string_character_source@D@0@H_N@Z 00000001400aeb3c f i libucrt:atox.obj
 0001:000ade1c       ??$parse_integer@KV?$c_string_character_source@_W@__crt_strtox@@$00@__crt_strtox@@YAKAEAV__crt_cached_ptd_host@@V?$c_string_character_source@_W@0@H_N@Z 00000001400aee1c f i libucrt:atox.obj
 0001:000ae5a4       ??$parse_integer@_KV?$c_string_character_source@D@__crt_strtox@@$00@__crt_strtox@@YA_KAEAV__crt_cached_ptd_host@@V?$c_string_character_source@D@0@H_N@Z 00000001400af5a4 f i libucrt:atox.obj
 0001:000ae880       _ischartype_l              00000001400af880 f i libucrt:atox.obj
 0001:000ae8f8       atoi                       00000001400af8f8 f   libucrt:atox.obj
 0001:000ae9a8       ??$parse_floating_point@V?$input_adapter_character_source@V?$string_input_adapter@D@__crt_stdio_input@@@__crt_strtox@@M@__crt_strtox@@YA?AW4SLD_STATUS@@QEAU__crt_locale_pointers@@V?$input_adapter_character_source@V?$string_input_adapter@D@__crt_stdio_input@@@0@QEAM@Z 00000001400af9a8 f i libucrt:input.obj
 0001:000aea50       ??$parse_floating_point@V?$input_adapter_character_source@V?$string_input_adapter@D@__crt_stdio_input@@@__crt_strtox@@N@__crt_strtox@@YA?AW4SLD_STATUS@@QEAU__crt_locale_pointers@@V?$input_adapter_character_source@V?$string_input_adapter@D@__crt_stdio_input@@@0@QEAN@Z 00000001400afa50 f i libucrt:input.obj
 0001:000aeaf8       ??$parse_floating_point_from_source@V?$input_adapter_character_source@V?$string_input_adapter@D@__crt_stdio_input@@@__crt_strtox@@@__crt_strtox@@YA?AW4floating_point_parse_result@0@QEAU__crt_locale_pointers@@AEAV?$input_adapter_character_source@V?$string_input_adapter@D@__crt_stdio_input@@@0@AEAUfloating_point_string@0@@Z 00000001400afaf8 f i libucrt:input.obj
 0001:000af2dc       ??$parse_floating_point_possible_infinity@DV?$input_adapter_character_source@V?$string_input_adapter@D@__crt_stdio_input@@@__crt_strtox@@_K@__crt_strtox@@YA?AW4floating_point_parse_result@0@AEADAEAV?$input_adapter_character_source@V?$string_input_adapter@D@__crt_stdio_input@@@0@_K@Z 00000001400b02dc f i libucrt:input.obj
 0001:000af4a4       ??$parse_floating_point_possible_nan@DV?$input_adapter_character_source@V?$string_input_adapter@D@__crt_stdio_input@@@__crt_strtox@@_K@__crt_strtox@@YA?AW4floating_point_parse_result@0@AEADAEAV?$input_adapter_character_source@V?$string_input_adapter@D@__crt_stdio_input@@@0@_K@Z 00000001400b04a4 f i libucrt:input.obj
 0001:000af718       ??$parse_floating_point_possible_nan_is_ind@DV?$input_adapter_character_source@V?$string_input_adapter@D@__crt_stdio_input@@@__crt_strtox@@@__crt_strtox@@YA_NAEADAEAV?$input_adapter_character_source@V?$string_input_adapter@D@__crt_stdio_input@@@0@@Z 00000001400b0718 f i libucrt:input.obj
 0001:000af790       ??$parse_floating_point_possible_nan_is_snan@DV?$input_adapter_character_source@V?$string_input_adapter@D@__crt_stdio_input@@@__crt_strtox@@@__crt_strtox@@YA_NAEADAEAV?$input_adapter_character_source@V?$string_input_adapter@D@__crt_stdio_input@@@0@@Z 00000001400b0790 f i libucrt:input.obj
 0001:000af808       ??$parse_floating_point_write_result@M@__crt_strtox@@YA?AW4SLD_STATUS@@W4floating_point_parse_result@0@AEBUfloating_point_string@0@QEAM@Z 00000001400b0808 f i libucrt:input.obj
 0001:000af978       ??$parse_floating_point_write_result@N@__crt_strtox@@YA?AW4SLD_STATUS@@W4floating_point_parse_result@0@AEBUfloating_point_string@0@QEAN@Z 00000001400b0978 f i libucrt:input.obj
 0001:000afb58       ??$parse_integer@_KV?$input_adapter_character_source@V?$string_input_adapter@D@__crt_stdio_input@@@__crt_strtox@@$00@__crt_strtox@@YA_KAEAV__crt_cached_ptd_host@@V?$input_adapter_character_source@V?$string_input_adapter@D@__crt_stdio_input@@@0@H_N@Z 00000001400b0b58 f i libucrt:input.obj
 0001:000aff7c       ??$parse_integer@_KV?$input_adapter_character_source@V?$string_input_adapter@D@__crt_stdio_input@@@__crt_strtox@@@__crt_strtox@@YA_KQEAU__crt_locale_pointers@@V?$input_adapter_character_source@V?$string_input_adapter@D@__crt_stdio_input@@@0@H_N@Z 00000001400b0f7c f i libucrt:input.obj
 0001:000b007c       ??$process_floating_point_specifier_t@M@?$input_processor@DV?$string_input_adapter@D@__crt_stdio_input@@@__crt_stdio_input@@AEAA_NXZ 00000001400b107c f i libucrt:input.obj
 0001:000b0120       ??$process_floating_point_specifier_t@N@?$input_processor@DV?$string_input_adapter@D@__crt_stdio_input@@@__crt_stdio_input@@AEAA_NXZ 00000001400b1120 f i libucrt:input.obj
 0001:000b01c8       ??$process_string_specifier_tchar@D@?$input_processor@DV?$string_input_adapter@D@__crt_stdio_input@@@__crt_stdio_input@@AEAA_NW4conversion_mode@1@D@Z 00000001400b11c8 f i libucrt:input.obj
 0001:000b0374       ??$process_string_specifier_tchar@_W@?$input_processor@DV?$string_input_adapter@D@__crt_stdio_input@@@__crt_stdio_input@@AEAA_NW4conversion_mode@1@_W@Z 00000001400b1374 f i libucrt:input.obj
 0001:000b0554       ??$skip_whitespace@Vstring_input_adapter@__crt_stdio_input@@D@__crt_stdio_input@@YAHAEAV?$string_input_adapter@D@0@QEAU__crt_locale_pointers@@@Z 00000001400b1554 f i libucrt:input.obj
 0001:000b05a8       ??R<lambda_1db4d925c2db10274e92824f631ccf5d>@@QEBA_NXZ 00000001400b15a8 f i libucrt:input.obj
 0001:000b05a8       ??R<lambda_bdd123a27a08a14f93fbf44b617d0736>@@QEBA_NXZ 00000001400b15a8 f i libucrt:input.obj
 0001:000b05a8       ??R<lambda_ee7c83d9f0cd4f1299194e0a8d424b67>@@QEBA_NXZ 00000001400b15a8 f i libucrt:input.obj
 0001:000b060c       ?advance@?$format_string_parser@D@__crt_stdio_input@@QEAA_NXZ 00000001400b160c f i libucrt:input.obj
 0001:000b07d4       ?as_double@floating_point_value@__crt_strtox@@QEBAAEANXZ 00000001400b17d4 f i libucrt:input.obj
 0001:000b0810       ?as_float@floating_point_value@__crt_strtox@@QEBAAEAMXZ 00000001400b1810 f i libucrt:input.obj
 0001:000b084c       ?assemble_floating_point_value@__crt_strtox@@YA?AW4SLD_STATUS@@_KH_N1AEBVfloating_point_value@1@@Z 00000001400b184c f i libucrt:input.obj
 0001:000b0be4       ?assemble_floating_point_value_from_big_integer@__crt_strtox@@YA?AW4SLD_STATUS@@AEBUbig_integer@1@I_N1AEBVfloating_point_value@1@@Z 00000001400b1be4 f i libucrt:input.obj
 0001:000b0d44       ?convert_decimal_string_to_floating_type_common@__crt_strtox@@YA?AW4SLD_STATUS@@AEBUfloating_point_string@1@AEBVfloating_point_value@1@@Z 00000001400b1d44 f i libucrt:input.obj
 0001:000b2bac       ?convert_hexadecimal_string_to_floating_type_common@__crt_strtox@@YA?AW4SLD_STATUS@@AEBUfloating_point_string@1@AEBVfloating_point_value@1@@Z 00000001400b3bac f i libucrt:input.obj
 0001:000b2c60       ?divide@__crt_strtox@@YA_KAEAUbig_integer@1@AEBU21@@Z 00000001400b3c60 f i libucrt:input.obj
 0001:000b30ec       ?length@?$format_string_parser@D@__crt_stdio_input@@QEBA_KXZ 00000001400b40ec f i libucrt:input.obj
 0001:000b3188       ?process@?$input_processor@DV?$string_input_adapter@D@__crt_stdio_input@@@__crt_stdio_input@@QEAAHXZ 00000001400b4188 f i libucrt:input.obj
 0001:000b327c       ?process_conversion_specifier@?$input_processor@DV?$string_input_adapter@D@__crt_stdio_input@@@__crt_stdio_input@@AEAA_NXZ 00000001400b427c f i libucrt:input.obj
 0001:000b339c       ?process_floating_point_specifier@?$input_processor@DV?$string_input_adapter@D@__crt_stdio_input@@@__crt_stdio_input@@AEAA_NXZ 00000001400b439c f i libucrt:input.obj
 0001:000b340c       ?process_integer_specifier@?$input_processor@DV?$string_input_adapter@D@__crt_stdio_input@@@__crt_stdio_input@@AEAA_NI_N@Z 00000001400b440c f i libucrt:input.obj
 0001:000b34c4       ?process_literal_character_tchar@?$input_processor@DV?$string_input_adapter@D@__crt_stdio_input@@@__crt_stdio_input@@AEAA_ND@Z 00000001400b44c4 f i libucrt:input.obj
 0001:000b3548       ?process_state@?$input_processor@DV?$string_input_adapter@D@__crt_stdio_input@@@__crt_stdio_input@@AEAA_NXZ 00000001400b4548 f i libucrt:input.obj
 0001:000b3600       ?process_string_specifier@?$input_processor@DV?$string_input_adapter@D@__crt_stdio_input@@@__crt_stdio_input@@AEAA_NW4conversion_mode@2@@Z 00000001400b4600 f i libucrt:input.obj
 0001:000b368c       ?scan_conversion_specifier@?$format_string_parser@D@__crt_stdio_input@@AEAA_NXZ 00000001400b468c f i libucrt:input.obj
 0001:000b3834       ?scan_optional_field_width@?$format_string_parser@D@__crt_stdio_input@@AEAA_NXZ 00000001400b4834 f i libucrt:input.obj
 0001:000b38d4       ?scan_optional_length_modifier@?$format_string_parser@D@__crt_stdio_input@@AEAAXXZ 00000001400b48d4 f i libucrt:input.obj
 0001:000b3a0c       ?scan_scanset_range@?$format_string_parser@D@__crt_stdio_input@@AEAA_NXZ 00000001400b4a0c f i libucrt:input.obj
 0001:000b3bac       ?write_character@?$input_processor@DV?$string_input_adapter@D@__crt_stdio_input@@@__crt_stdio_input@@AEAA_NQEFA_W_KAEAPEFA_WAEA_KD@Z 00000001400b4bac f i libucrt:input.obj
 0001:000b3c44       ?write_integer@?$input_processor@DV?$string_input_adapter@D@__crt_stdio_input@@@__crt_stdio_input@@AEAA_N_K@Z 00000001400b4c44 f i libucrt:input.obj
 0001:000b3cbc       __stdio_common_vsscanf     00000001400b4cbc f   libucrt:input.obj
 0001:000b3e68       _time64                    00000001400b4e68 f   libucrt:time.obj
 0001:000b3ed8       _timespec64_get            00000001400b4ed8 f   libucrt:time.obj
 0001:000b4270       _localtime64               00000001400b5270 f   libucrt:localtime.obj
 0001:000b42b8       _localtime64_s             00000001400b52b8 f   libucrt:localtime.obj
 0001:000b42c0       ??$__acrt_convert_wcs_mbs_cp@_WDV<lambda_f788ae46380686e8b737efdd8c720d07>@@U__crt_win32_buffer_no_resizing@@@@YAHQEB_WAEAV?$__crt_win32_buffer@DU__crt_win32_buffer_no_resizing@@@@AEBV<lambda_f788ae46380686e8b737efdd8c720d07>@@I@Z 00000001400b52c0 f i libucrt:strftime.obj
 0001:000b43dc       _Strftime_l                00000001400b53dc f   libucrt:strftime.obj
 0001:000b4548       strftime                   00000001400b5548 f   libucrt:strftime.obj
 0001:000b4564       _tolower_l                 00000001400b5564 f   libucrt:tolower_toupper.obj
 0001:000b4698       _toupper_l                 00000001400b5698 f   libucrt:tolower_toupper.obj
 0001:000b47cc       tolower                    00000001400b57cc f   libucrt:tolower_toupper.obj
 0001:000b47f8       toupper                    00000001400b57f8 f   libucrt:tolower_toupper.obj
 0001:000b48cc       ??$parse_floating_point@V?$c_string_character_source@D@__crt_strtox@@N@__crt_strtox@@YA?AW4SLD_STATUS@@QEAU__crt_locale_pointers@@V?$c_string_character_source@D@0@QEAN@Z 00000001400b58cc f i libucrt:strtod.obj
 0001:000b496c       ??$parse_floating_point_from_source@V?$c_string_character_source@D@__crt_strtox@@@__crt_strtox@@YA?AW4floating_point_parse_result@0@QEAU__crt_locale_pointers@@AEAV?$c_string_character_source@D@0@AEAUfloating_point_string@0@@Z 00000001400b596c f i libucrt:strtod.obj
 0001:000b4e4c       ??$parse_floating_point_possible_infinity@DV?$c_string_character_source@D@__crt_strtox@@PEBD@__crt_strtox@@YA?AW4floating_point_parse_result@0@AEADAEAV?$c_string_character_source@D@0@PEBD@Z 00000001400b5e4c f i libucrt:strtod.obj
 0001:000b4fa8       ??$parse_floating_point_possible_nan@DV?$c_string_character_source@D@__crt_strtox@@PEBD@__crt_strtox@@YA?AW4floating_point_parse_result@0@AEADAEAV?$c_string_character_source@D@0@PEBD@Z 00000001400b5fa8 f i libucrt:strtod.obj
 0001:000b5190       ??$parse_floating_point_possible_nan_is_ind@DV?$c_string_character_source@D@__crt_strtox@@@__crt_strtox@@YA_NAEADAEAV?$c_string_character_source@D@0@@Z 00000001400b6190 f i libucrt:strtod.obj
 0001:000b51d4       ??$parse_floating_point_possible_nan_is_snan@DV?$c_string_character_source@D@__crt_strtox@@@__crt_strtox@@YA_NAEADAEAV?$c_string_character_source@D@0@@Z 00000001400b61d4 f i libucrt:strtod.obj
 0001:000b5218       strtod                     00000001400b6218 f   libucrt:strtod.obj
 0001:000b5220       __ascii_stricmp            00000001400b6220 f   libucrt:stricmp.obj
 0001:000b525c       _stricmp                   00000001400b625c f   libucrt:stricmp.obj
 0001:000b52a4       _stricmp_l                 00000001400b62a4 f   libucrt:stricmp.obj
 0001:000b532c       strtol                     00000001400b632c f   libucrt:strtox.obj
 0001:000b53e0       strtoul                    00000001400b63e0 f   libucrt:strtox.obj
 0001:000b5494       strtoull                   00000001400b6494 f   libucrt:strtox.obj
 0001:000b5548       wcstol                     00000001400b6548 f   libucrt:strtox.obj
 0001:000b5758       _fputc_nolock_internal     00000001400b6758 f   libucrt:fputc.obj
 0001:000b5770       fputc                      00000001400b6770 f   libucrt:fputc.obj
 0001:000b58d0       strspn                     00000001400b68d0 f   libucrt:strspn.obj
 0001:000b5d40       strcspn                    00000001400b6d40 f   libucrt:strcspn.obj
 0001:000b6184       atof                       00000001400b7184 f   libucrt:atof.obj
 0001:000b618c       wcsncpy                    00000001400b718c f   libucrt:wcsncpy.obj
 0001:000b61d4       feof                       00000001400b71d4 f   libucrt:feoferr.obj
 0001:000b677c       _ftelli64                  00000001400b777c f   libucrt:ftell.obj
 0001:000b6818       _ftelli64_nolock_internal  00000001400b7818 f   libucrt:ftell.obj
 0001:000b6820       ftell                      00000001400b7820 f   libucrt:ftell.obj
 0001:000b6b08       _fseeki64                  00000001400b7b08 f   libucrt:fseek.obj
 0001:000b6ba0       fseek                      00000001400b7ba0 f   libucrt:fseek.obj
 0001:000b6c3c       _fread_nolock_s            00000001400b7c3c f   libucrt:fread.obj
 0001:000b6e9c       fread                      00000001400b7e9c f   libucrt:fread.obj
 0001:000b6ebc       fread_s                    00000001400b7ebc f   libucrt:fread.obj
 0001:000b7180       __acrt_stdio_flush_nolock  00000001400b8180 f   libucrt:fflush.obj
 0001:000b720c       _fflush_nolock             00000001400b820c f   libucrt:fflush.obj
 0001:000b72e0       _flushall                  00000001400b82e0 f   libucrt:fflush.obj
 0001:000b72e8       fflush                     00000001400b82e8 f   libucrt:fflush.obj
 0001:000b7350       _fgetc_nolock              00000001400b8350 f   libucrt:fgetc.obj
 0001:000b7394       _getc_nolock               00000001400b8394 f   libucrt:fgetc.obj
 0001:000b739c       fgetc                      00000001400b839c f   libucrt:fgetc.obj
 0001:000b7578       fgets                      00000001400b8578 f   libucrt:fgets.obj
 0001:000b7644       fputs                      00000001400b8644 f   libucrt:fputs.obj
 0001:000b77e8       malloc                     00000001400b87e8 f   libucrt:malloc.obj
 0001:000b77f0       abort                      00000001400b87f0 f   libucrt:abort.obj
 0001:000b7848       free                       00000001400b8848 f   libucrt:free.obj
 0001:000b785c       _ctime64                   00000001400b885c f   libucrt:ctime.obj
 0001:000b78e0       strlen                     00000001400b88e0 f   libucrt:strlen.obj
 0001:000b7988       _seh_filter_exe            00000001400b8988 f   libucrt:exception_filter.obj
 0001:000b7ccc       __acrt_allocate_buffer_for_argv 00000001400b8ccc f   libucrt:argv_parsing.obj
 0001:000b7d2c       _configure_narrow_argv     00000001400b8d2c f   libucrt:argv_parsing.obj
 0001:000b82fc       __dcrt_get_or_create_wide_environment_nolock 00000001400b92fc f   libucrt:environment_initialization.obj
 0001:000b8338       __dcrt_uninitialize_environments_nolock 00000001400b9338 f   libucrt:environment_initialization.obj
 0001:000b837c       _initialize_narrow_environment 00000001400b937c f   libucrt:environment_initialization.obj
 0001:000b86cc       _crt_atexit                00000001400b96cc f   libucrt:onexit.obj
 0001:000b86dc       _execute_onexit_table      00000001400b96dc f   libucrt:onexit.obj
 0001:000b8720       _initialize_onexit_table   00000001400b9720 f   libucrt:onexit.obj
 0001:000b8748       _register_onexit_function  00000001400b9748 f   libucrt:onexit.obj
 0001:000b88bc       __acrt_initialize          00000001400b98bc f   libucrt:initialization.obj
 0001:000b88d0       __acrt_uninitialize        00000001400b98d0 f   libucrt:initialization.obj
 0001:000b8908       terminate                  00000001400b9908 f   libucrt:terminate.obj
 0001:000b8934       _query_app_type            00000001400b9934 f   libucrt:report_runtime_error.obj
 0001:000b893c       _set_app_type              00000001400b993c f   libucrt:report_runtime_error.obj
 0001:000b8944       __acrt_has_user_matherr    00000001400b9944 f   libucrt:matherr.obj
 0001:000b8964       __acrt_initialize_user_matherr 00000001400b9964 f   libucrt:matherr.obj
 0001:000b896c       __acrt_invoke_user_matherr 00000001400b996c f   libucrt:matherr.obj
 0001:000b89a4       __setusermatherr           00000001400b99a4 f   libucrt:matherr.obj
 0001:000b89cc       _get_narrow_winmain_command_line 00000001400b99cc f   libucrt:argv_winmain.obj
 0001:000b8a3c       _initterm                  00000001400b9a3c f   libucrt:initterm.obj
 0001:000b8a80       _initterm_e                00000001400b9a80 f   libucrt:initterm.obj
 0001:000b8ac8       _get_fmode                 00000001400b9ac8 f   libucrt:setmode.obj
 0001:000b8af8       _set_fmode                 00000001400b9af8 f   libucrt:setmode.obj
 0001:000b8b38       _setmode_nolock            00000001400b9b38 f   libucrt:setmode.obj
 0001:000b8c88       __acrt_set_locale_changed  00000001400b9c88 f   libucrt:wsetlocale.obj
 0001:000b8c94       __acrt_uninitialize_locale 00000001400b9c94 f   libucrt:wsetlocale.obj
 0001:000b8cc4       _configthreadlocale        00000001400b9cc4 f   libucrt:wsetlocale.obj
 0001:000b8d30       _query_new_mode            00000001400b9d30 f   libucrt:new_mode.obj
 0001:000b8d38       _set_new_mode              00000001400b9d38 f   libucrt:new_mode.obj
 0001:000b8d64       __p__commode               00000001400b9d64 f   libucrt:ncommode.obj
 0001:000b8d6c       strcpy_s                   00000001400b9d6c f   libucrt:strcpy_s.obj
 0001:000b8dcc       calloc                     00000001400b9dcc f   libucrt:calloc.obj
 0001:000b8dd4       wcsncmp                    00000001400b9dd4 f   libucrt:wcsncmp.obj
 0001:000b8e00       ?get_raw_ptd_noexit@__crt_cached_ptd_host@@QEAAPEAU__acrt_ptd@@XZ 00000001400b9e00 f i libucrt:invalid_parameter.obj
 0001:000b8e6c       ?value@?$dual_state_global@P6AXPEB_W00I_K@Z@__crt_state_management@@QEAAAEAP6AXPEB_W00I_K@ZAEAV__crt_cached_ptd_host@@@Z 00000001400b9e6c f i libucrt:invalid_parameter.obj
 0001:000b8eb8       __acrt_call_reportfault    00000001400b9eb8 f   libucrt:invalid_parameter.obj
 0001:000b9014       __acrt_initialize_invalid_parameter_handler 00000001400ba014 f   libucrt:invalid_parameter.obj
 0001:000b901c       _invalid_parameter         00000001400ba01c f   libucrt:invalid_parameter.obj
 0001:000b90b8       _invalid_parameter_internal 00000001400ba0b8 f   libucrt:invalid_parameter.obj
 0001:000b9188       _invalid_parameter_noinfo  00000001400ba188 f   libucrt:invalid_parameter.obj
 0001:000b91a8       _invoke_watson             00000001400ba1a8 f   libucrt:invalid_parameter.obj
 0001:000b91f0       __acrt_errno_from_os_error 00000001400ba1f0 f   libucrt:errno.obj
 0001:000b9238       __acrt_errno_map_os_error  00000001400ba238 f   libucrt:errno.obj
 0001:000b9280       __acrt_errno_map_os_error_ptd 00000001400ba280 f   libucrt:errno.obj
 0001:000b92a4       __doserrno                 00000001400ba2a4 f   libucrt:errno.obj
 0001:000b92c4       _errno                     00000001400ba2c4 f   libucrt:errno.obj
 0001:000b92e4       _free_base                 00000001400ba2e4 f   libucrt:free_base.obj
 0001:000b9320       _malloc_base               00000001400ba320 f   libucrt:malloc_base.obj
 0001:000b9380       strnlen                    00000001400ba380 f   libucrt:strnlen.obj
 0001:000b94d0       wcsnlen                    00000001400ba4d0 f   libucrt:strnlen.obj
 0001:000b96a8       __acrt_update_locale_info  00000001400ba6a8 f   libucrt:locale_update.obj
 0001:000b96dc       __acrt_update_locale_info_explicit 00000001400ba6dc f   libucrt:locale_update.obj
 0001:000b9714       __acrt_update_multibyte_info 00000001400ba714 f   libucrt:locale_update.obj
 0001:000b9748       __acrt_update_multibyte_info_explicit 00000001400ba748 f   libucrt:locale_update.obj
 0001:000ba2b0       __acrt_fp_format           00000001400bb2b0 f   libucrt:cvt.obj
 0001:000ba598       _wctomb_internal           00000001400bb598 f   libucrt:wctomb.obj
 0001:000ba748       _mbtowc_internal           00000001400bb748 f   libucrt:mbtowc.obj
 0001:000ba8c0       _mbtowc_l                  00000001400bb8c0 f   libucrt:mbtowc.obj
 0001:000ba964       _fileno                    00000001400bb964 f   libucrt:fileno.obj
 0001:000ba98c       _get_printf_count_output   00000001400bb98c f   libucrt:printf_count_output.obj
 0001:000ba9a4       __acrt_should_use_temporary_buffer 00000001400bb9a4 f   libucrt:_sftbuf.obj
 0001:000ba9ec       __acrt_stdio_begin_temporary_buffering_nolock 00000001400bb9ec f   libucrt:_sftbuf.obj
 0001:000baab4       __acrt_stdio_end_temporary_buffering_nolock 00000001400bbab4 f   libucrt:_sftbuf.obj
 0001:000bae68       __acrt_getptd              00000001400bbe68 f   libucrt:per_thread_data.obj
 0001:000baf3c       __acrt_getptd_head         00000001400bbf3c f   libucrt:per_thread_data.obj
 0001:000bafe0       __acrt_getptd_noexit       00000001400bbfe0 f   libucrt:per_thread_data.obj
 0001:000bb0a8       __acrt_getptd_noexit_explicit 00000001400bc0a8 f   libucrt:per_thread_data.obj
 0001:000bb168       __acrt_initialize_ptd      00000001400bc168 f   libucrt:per_thread_data.obj
 0001:000bb1a4       __acrt_uninitialize_ptd    00000001400bc1a4 f   libucrt:per_thread_data.obj
 0001:000bb3c0       __acrt_initialize_lowio    00000001400bc3c0 f   libucrt:ioinit.obj
 0001:000bb3fc       __acrt_uninitialize_lowio  00000001400bc3fc f   libucrt:ioinit.obj
 0001:000bb43c       _calloc_base               00000001400bc43c f   libucrt:calloc_base.obj
 0001:000bb674       __acrt_AppPolicyGetProcessTerminationMethodInternal 00000001400bc674 f   libucrt:winapi_thunks.obj
 0001:000bb6cc       __acrt_AppPolicyGetThreadInitializationTypeInternal 00000001400bc6cc f   libucrt:winapi_thunks.obj
 0001:000bb724       __acrt_AreFileApisANSI     00000001400bc724 f   libucrt:winapi_thunks.obj
 0001:000bb768       __acrt_CompareStringEx     00000001400bc768 f   libucrt:winapi_thunks.obj
 0001:000bb854       __acrt_FlsAlloc            00000001400bc854 f   libucrt:winapi_thunks.obj
 0001:000bb85c       __acrt_FlsFree             00000001400bc85c f   libucrt:winapi_thunks.obj
 0001:000bb864       __acrt_FlsGetValue         00000001400bc864 f   libucrt:winapi_thunks.obj
 0001:000bb86c       __acrt_FlsSetValue         00000001400bc86c f   libucrt:winapi_thunks.obj
 0001:000bb874       __acrt_GetDateFormatEx     00000001400bc874 f   libucrt:winapi_thunks.obj
 0001:000bb934       __acrt_GetSystemTimePreciseAsFileTime 00000001400bc934 f   libucrt:winapi_thunks.obj
 0001:000bb98c       __acrt_GetTimeFormatEx     00000001400bc98c f   libucrt:winapi_thunks.obj
 0001:000bba40       __acrt_InitializeCriticalSectionEx 00000001400bca40 f   libucrt:winapi_thunks.obj
 0001:000bbab0       __acrt_LCMapStringEx       00000001400bcab0 f   libucrt:winapi_thunks.obj
 0001:000bbb9c       __acrt_LocaleNameToLCID    00000001400bcb9c f   libucrt:winapi_thunks.obj
 0001:000bbbfc       __acrt_RoInitialize        00000001400bcbfc f   libucrt:winapi_thunks.obj
 0001:000bbc48       __acrt_RoUninitialize      00000001400bcc48 f   libucrt:winapi_thunks.obj
 0001:000bbc88       __acrt_initialize_winapi_thunks 00000001400bcc88 f   libucrt:winapi_thunks.obj
 0001:000bbcac       __acrt_uninitialize_winapi_thunks 00000001400bccac f   libucrt:winapi_thunks.obj
 0001:000bbcf0       __acrt_get_begin_thread_init_policy 00000001400bccf0 f   libucrt:win_policies.obj
 0001:000bbd44       __acrt_get_process_end_policy 00000001400bcd44 f   libucrt:win_policies.obj
 0001:000bbd80       _fcloseall                 00000001400bcd80 f   libucrt:closeall.obj
 0001:000bbe34       __acrt_stdio_free_buffer_nolock 00000001400bce34 f   libucrt:_freebuf.obj
 0001:000bbe74       __acrt_MultiByteToWideChar 00000001400bce74 f   libucrt:multibytetowidechar.obj
 0001:000bbed0       _wremove                   00000001400bced0 f   libucrt:wunlink.obj
 0001:000bbef8       _wrename                   00000001400bcef8 f   libucrt:wrename.obj
 0001:000bbfa0       _close_internal            00000001400bcfa0 f   libucrt:close.obj
 0001:000bc064       _close_nolock              00000001400bd064 f   libucrt:close.obj
 0001:000bc0fc       _close_nolock_internal     00000001400bd0fc f   libucrt:close.obj
 0001:000bc1cc       ?__acrt_stdio_allocate_stream@@YA?AV__crt_stdio_stream@@XZ 00000001400bd1cc f   libucrt:stream.obj
 0001:000bc224       ?__acrt_stdio_free_stream@@YAXV__crt_stdio_stream@@@Z 00000001400bd224 f   libucrt:stream.obj
 0001:000bc32c       ??$__acrt_stdio_parse_mode@D@@YA?AU__acrt_stdio_stream_mode@@QEBD@Z 00000001400bd32c f i libucrt:openfile.obj
 0001:000bc5f0       _openfile                  00000001400bd5f0 f   libucrt:openfile.obj
 0001:000bcea8       _write                     00000001400bdea8 f   libucrt:write.obj
 0001:000bcf40       _write_internal            00000001400bdf40 f   libucrt:write.obj
 0001:000bd068       _write_nolock              00000001400be068 f   libucrt:write.obj
 0001:000bd4ec       __acrt_stdio_flush_and_write_narrow_nolock 00000001400be4ec f   libucrt:_flsbuf.obj
 0001:000bd5b0       _isctype_l                 00000001400be5b0 f   libucrt:isctype.obj
 0001:000bd6b8       __acrt_initialize_locks    00000001400be6b8 f   libucrt:locks.obj
 0001:000bd700       __acrt_lock                00000001400be700 f   libucrt:locks.obj
 0001:000bd71c       __acrt_uninitialize_locks  00000001400be71c f   libucrt:locks.obj
 0001:000bd754       __acrt_unlock              00000001400be754 f   libucrt:locks.obj
 0001:000bd770       __pctype_func              00000001400be770 f   libucrt:ctype.obj
 0001:000bd7a0       iswctype                   00000001400be7a0 f   libucrt:iswctype.obj
 0001:000bd80c       fegetround                 00000001400be80c f   libucrt:fegetround.obj
 0001:000bd820       __acrt_initialize_timeset  00000001400be820 f   libucrt:timeset.obj
 0001:000bd870       __daylight                 00000001400be870 f   libucrt:timeset.obj
 0001:000bd878       __dstbias                  00000001400be878 f   libucrt:timeset.obj
 0001:000bd880       __timezone                 00000001400be880 f   libucrt:timeset.obj
 0001:000bd888       __tzname                   00000001400be888 f   libucrt:timeset.obj
 0001:000bd890       __wide_tzname              00000001400be890 f   libucrt:timeset.obj
 0001:000bd898       _get_daylight              00000001400be898 f   libucrt:timeset.obj
 0001:000bd8c8       _get_dstbias               00000001400be8c8 f   libucrt:timeset.obj
 0001:000bd8f8       _get_timezone              00000001400be8f8 f   libucrt:timeset.obj
 0001:000bd928       ??$__crt_time_is_leap_year@H@@YA_NH@Z 00000001400be928 f i libucrt:gmtime.obj
 0001:000bdc10       __getgmtimebuf             00000001400bec10 f   libucrt:gmtime.obj
 0001:000bdc5c       _gmtime64_s                00000001400bec5c f   libucrt:gmtime.obj
 0001:000be7c8       __tzset                    00000001400bf7c8 f   libucrt:tzset.obj
 0001:000be808       _isindst                   00000001400bf808 f   libucrt:tzset.obj
 0001:000be838       __acrt_WideCharToMultiByte 00000001400bf838 f   libucrt:widechartomultibyte.obj
 0001:000bff30       _Wcsftime_l                00000001400c0f30 f   libucrt:wcsftime.obj
 0001:000c03dc       __acrt_LCMapStringA        00000001400c13dc f   libucrt:lcmapstringa.obj
 0001:000c0648       _lseeki64                  00000001400c1648 f   libucrt:lseek.obj
 0001:000c06e4       _lseeki64_internal         00000001400c16e4 f   libucrt:lseek.obj
 0001:000c06ec       _lseeki64_nolock           00000001400c16ec f   libucrt:lseek.obj
 0001:000c0788       _lseeki64_nolock_internal  00000001400c1788 f   libucrt:lseek.obj
 0001:000c0c3c       _read                      00000001400c1c3c f   libucrt:read.obj
 0001:000c0d58       _read_nolock               00000001400c1d58 f   libucrt:read.obj
 0001:000c11a4       __acrt_stdio_refill_and_read_narrow_nolock 00000001400c21a4 f   libucrt:_filbuf.obj
 0001:000c139c       _commit                    00000001400c239c f   libucrt:commit.obj
 0001:000c1478       __acrt_get_sigabrt_handler 00000001400c2478 f   libucrt:signal.obj
 0001:000c14a8       __acrt_initialize_signal_handlers 00000001400c24a8 f   libucrt:signal.obj
 0001:000c14c8       raise                      00000001400c24c8 f   libucrt:signal.obj
 0001:000c1990       asctime                    00000001400c2990 f   libucrt:asctime.obj
 0001:000c1a2c       ??$__acrt_convert_wcs_mbs_cp@_WDV<lambda_d8593a27d1aa8c02be35c86a17d324c4>@@U__crt_win32_buffer_internal_dynamic_resizing@@@@YAHQEB_WAEAV?$__crt_win32_buffer@DU__crt_win32_buffer_internal_dynamic_resizing@@@@AEBV<lambda_d8593a27d1aa8c02be35c86a17d324c4>@@I@Z 00000001400c2a2c f i libucrt:argv_wildcards.obj
 0001:000c22d4       __acrt_expand_narrow_argv_wildcards 00000001400c32d4 f   libucrt:argv_wildcards.obj
 0001:000c22dc       __acrt_GetModuleFileNameA  00000001400c32dc f   libucrt:getmodulefilenamea.obj
 0001:000c2bf8       __acrt_initialize_multibyte 00000001400c3bf8 f   libucrt:mbctype.obj
 0001:000c2c58       __acrt_update_thread_multibyte_data 00000001400c3c58 f   libucrt:mbctype.obj
 0001:000c2c74       _setmbcp_nolock            00000001400c3c74 f   libucrt:mbctype.obj
 0001:000c2fa8       _ismbblead                 00000001400c3fa8 f   libucrt:ismbbyte.obj
 0001:000c2fbc       __acrt_initialize_command_line 00000001400c3fbc f   libucrt:argv_data.obj
 0001:000c2fe4       wcscpy_s                   00000001400c3fe4 f   libucrt:wcscpy_s.obj
 0001:000c304c       __dcrt_get_narrow_environment_from_os 00000001400c404c f   libucrt:get_environment_from_os.obj
 0001:000c315c       __dcrt_get_wide_environment_from_os 00000001400c415c f   libucrt:get_environment_from_os.obj
 0001:000c364c       __dcrt_set_variable_in_wide_environment_nolock 00000001400c464c f   libucrt:setenv.obj
 0001:000c3654       _recalloc_base             00000001400c4654 f   libucrt:recalloc.obj
 0001:000c36ec       __acrt_initialize_heap     00000001400c46ec f   libucrt:heap_handle.obj
 0001:000c3708       __acrt_uninitialize_heap   00000001400c4708 f   libucrt:heap_handle.obj
 0001:000c3714       __acrt_execute_initializers 00000001400c4714 f   libucrt:shared_initialization.obj
 0001:000c37a8       __acrt_execute_uninitializers 00000001400c47a8 f   libucrt:shared_initialization.obj
 0001:000c37f0       __acrt_initialize_new_handler 00000001400c47f0 f   libucrt:new_handler.obj
 0001:000c37f8       _callnewh                  00000001400c47f8 f   libucrt:new_handler.obj
 0001:000c3834       _query_new_handler         00000001400c4834 f   libucrt:new_handler.obj
 0001:000c3868       wcsncpy_s                  00000001400c4868 f   libucrt:wcsncpy_s.obj
 0001:000c3964       __acrt_lowio_create_handle_array 00000001400c4964 f   libucrt:osfinfo.obj
 0001:000c3a0c       __acrt_lowio_destroy_handle_array 00000001400c4a0c f   libucrt:osfinfo.obj
 0001:000c3a5c       __acrt_lowio_ensure_fh_exists 00000001400c4a5c f   libucrt:osfinfo.obj
 0001:000c3b04       __acrt_lowio_lock_fh       00000001400c4b04 f   libucrt:osfinfo.obj
 0001:000c3b2c       __acrt_lowio_set_os_handle 00000001400c4b2c f   libucrt:osfinfo.obj
 0001:000c3bec       __acrt_lowio_unlock_fh     00000001400c4bec f   libucrt:osfinfo.obj
 0001:000c3c14       _alloc_osfhnd              00000001400c4c14 f   libucrt:osfinfo.obj
 0001:000c3d54       _free_osfhnd               00000001400c4d54 f   libucrt:osfinfo.obj
 0001:000c3e10       _get_osfhandle             00000001400c4e10 f   libucrt:osfinfo.obj
 0001:000c3e88       __acrt_initialize_fmode    00000001400c4e88 f   libucrt:txtmode.obj
 0001:000c3ea4       ___lc_codepage_func        00000001400c4ea4 f   libucrt:initctype.obj
 0001:000c3ed4       __acrt_locale_free_monetary 00000001400c4ed4 f   libucrt:initmon.obj
 0001:000c3fe0       __acrt_locale_free_numeric 00000001400c4fe0 f   libucrt:initnum.obj
 0001:000c4080       __acrt_locale_free_time    00000001400c5080 f   libucrt:inittime.obj
 0001:000c4188       __acrt_GetStringTypeA      00000001400c5188 f   libucrt:getstringtypea.obj
 0001:000c4324       __acrt_add_locale_ref      00000001400c5324 f   libucrt:locale_refcounting.obj
 0001:000c43b0       __acrt_free_locale         00000001400c53b0 f   libucrt:locale_refcounting.obj
 0001:000c4528       __acrt_locale_add_lc_time_reference 00000001400c5528 f   libucrt:locale_refcounting.obj
 0001:000c4550       __acrt_locale_free_lc_time_if_unreferenced 00000001400c5550 f   libucrt:locale_refcounting.obj
 0001:000c4588       __acrt_locale_release_lc_time_reference 00000001400c5588 f   libucrt:locale_refcounting.obj
 0001:000c45b0       __acrt_release_locale_ref  00000001400c55b0 f   libucrt:locale_refcounting.obj
 0001:000c4658       __acrt_update_thread_locale_data 00000001400c5658 f   libucrt:locale_refcounting.obj
 0001:000c46c8       _updatetlocinfoEx_nolock   00000001400c56c8 f   libucrt:locale_refcounting.obj
 0001:000c4730       __acrt_fp_strflt_to_string 00000001400c5730 f   libucrt:_fptostr.obj
 0001:000c48b4       __acrt_fltout              00000001400c58b4 f   libucrt:cfout.obj
 0001:000c5af4       ?__c32rtomb_utf8@__crt_mbstring@@YA_KPEAD_UPEAU_Mbstatet@@AEAV__crt_cached_ptd_host@@@Z 00000001400c6af4 f   libucrt:c32rtomb.obj
 0001:000c5b98       ?__mbrtowc_utf8@__crt_mbstring@@YA_KPEA_WPEBD_KPEAU_Mbstatet@@AEAV__crt_cached_ptd_host@@@Z 00000001400c6b98 f   libucrt:mbrtowc.obj
 0001:000c5bdc       ?__mbsrtowcs_utf8@__crt_mbstring@@YA_KPEA_WPEAPEBD_KPEAU_Mbstatet@@AEAV__crt_cached_ptd_host@@@Z 00000001400c6bdc f   libucrt:mbrtowc.obj
 0001:000c5d80       _isatty                    00000001400c6d80 f   libucrt:isatty.obj
 0001:000c5de0       __acrt_DownlevelLocaleNameToLCID 00000001400c6de0 f   libucrt:lcidtoname_downlevel.obj
 0001:000c5e88       __ascii_wcsnicmp           00000001400c6e88 f   libucrt:wcsnicmp.obj
 0001:000c5ed4       __ascii_strnicmp           00000001400c6ed4 f   libucrt:strnicmp.obj
 0001:000c5f20       _strnicmp                  00000001400c6f20 f   libucrt:strnicmp.obj
 0001:000c5f70       _strnicmp_l                00000001400c6f70 f   libucrt:strnicmp.obj
 0001:000c662c       _sopen_nolock              00000001400c762c f   libucrt:open.obj
 0001:000c6748       _sopen_s                   00000001400c7748 f   libucrt:open.obj
 0001:000c677c       _wsopen_nolock             00000001400c777c f   libucrt:open.obj
 0001:000c6b6c       _putwch_nolock             00000001400c7b6c f   libucrt:putwch.obj
 0001:000c6ba8       __acrt_stdio_allocate_buffer_nolock 00000001400c7ba8 f   libucrt:_getbuf.obj
 0001:000c6c14       __acrt_GetStringTypeW      00000001400c7c14 f   libucrt:getstringtypew.obj
 0001:000c6c1c       __acrt_fenv_get_common_round_control 00000001400c7c1c f   libucrt:_fenvutils.obj
 0001:000c6c28       __acrt_fenv_get_control    00000001400c7c28 f   libucrt:_fenvutils.obj
 0001:000c6d0c       __acrt_fenv_get_status     00000001400c7d0c f   libucrt:_fenvutils.obj
 0001:000c6d64       __acrt_fenv_set_control    00000001400c7d64 f   libucrt:_fenvutils.obj
 0001:000c6ea0       __acrt_fenv_set_status     00000001400c7ea0 f   libucrt:_fenvutils.obj
 0001:000c70a4       _wgetenv_s                 00000001400c80a4 f   libucrt:getenv.obj
 0001:000c70ac       __ascii_wcsicmp            00000001400c80ac f   libucrt:wcsicmp.obj
 0001:000c70ec       _wcsicmp                   00000001400c80ec f   libucrt:wcsicmp.obj
 0001:000c7134       _wcsicmp_l                 00000001400c8134 f   libucrt:wcsicmp.obj
 0001:000c725c       __strncnt                  00000001400c825c f   libucrt:strncnt.obj
 0001:000c7280       qsort                      00000001400c8280 f   libucrt:qsort.obj
 0001:000c7690       strncpy_s                  00000001400c8690 f   libucrt:strncpy_s.obj
 0001:000c7780       _mbsdec                    00000001400c8780 f   libucrt:mbsdec.obj
 0001:000c7788       _mbsdec_l                  00000001400c8788 f   libucrt:mbsdec.obj
 0001:000c7834       _wcsnicoll                 00000001400c8834 f   libucrt:wcsnicol.obj
 0001:000c7884       _wcsnicoll_l               00000001400c8884 f   libucrt:wcsnicol.obj
 0001:000c7974       _msize_base                00000001400c8974 f   libucrt:msize.obj
 0001:000c79b0       _realloc_base              00000001400c89b0 f   libucrt:realloc_base.obj
 0001:000c7a2c       _controlfp_s               00000001400c8a2c f   libucrt:contrlfp.obj
 0001:000c7a90       fegetenv                   00000001400c8a90 f   libucrt:fegetenv.obj
 0001:000c7ab0       fesetenv                   00000001400c8ab0 f   libucrt:fesetenv.obj
 0001:000c7afc       feholdexcept               00000001400c8afc f   libucrt:feholdexcept.obj
 0001:000c7b4c       ceil                       00000001400c8b4c f   libucrt:ceil.obj
 0001:000c7c10       log10                      00000001400c8c10 f   libucrt:log10.obj
 0001:000c81bc       ?reset_and_return@__crt_mbstring@@YA_K_KPEAU_Mbstatet@@@Z 00000001400c91bc f   libucrt:common_utf8.obj
 0001:000c81c4       ?return_illegal_sequence@__crt_mbstring@@YA_KPEAU_Mbstatet@@AEAV__crt_cached_ptd_host@@@Z 00000001400c91c4 f   libucrt:common_utf8.obj
 0001:000c81d8       ?__mbrtoc32_utf8@__crt_mbstring@@YA_KPEA_UPEBD_KPEAU_Mbstatet@@AEAV__crt_cached_ptd_host@@@Z 00000001400c91d8 f   libucrt:mbrtoc32.obj
 0001:000c83b4       _towlower_l                00000001400c93b4 f   libucrt:towlower.obj
 0001:000c84ac       _chsize_nolock             00000001400c94ac f   libucrt:chsize.obj
 0001:000c8544       _chsize_nolock_internal    00000001400c9544 f   libucrt:chsize.obj
 0001:000c86d8       __dcrt_lowio_ensure_console_output_initialized 00000001400c96d8 f   libucrt:initcon.obj
 0001:000c872c       __dcrt_terminate_console_output 00000001400c972c f   libucrt:initcon.obj
 0001:000c8748       __dcrt_write_console       00000001400c9748 f   libucrt:initcon.obj
 0001:000c8808       __acrt_CompareStringW      00000001400c9808 f   libucrt:comparestringw.obj
 0001:000c88c8       _clearfp                   00000001400c98c8 f   libucrt:ieee.obj
 0001:000c8938       _control87                 00000001400c9938 f   libucrt:ieee.obj
 0001:000c8d24       _handle_error              00000001400c9d24 f   libucrt:libm_error.obj
 0001:000c8e4c       _handle_errorf             00000001400c9e4c f   libucrt:libm_error.obj
 0001:000c8f80       _handle_nan                00000001400c9f80 f   libucrt:libm_error.obj
 0001:000c8f9c       _handle_nanf               00000001400c9f9c f   libucrt:libm_error.obj
 0001:000c8fb0       __acrt_initialize_fma3     00000001400c9fb0 f   libucrt:fma3_available.obj
 0001:000c9020       _log10_special             00000001400ca020 f   libucrt:log_special.obj
 0001:000c9040       _log10f_special            00000001400ca040 f   libucrt:log_special.obj
 0001:000c9060       _log_special               00000001400ca060 f   libucrt:log_special.obj
 0001:000c9118       _logf_special              00000001400ca118 f   libucrt:log_special.obj
 0001:000c91d4       __acrt_LCMapStringW        00000001400ca1d4 f   libucrt:lcmapstringw.obj
 0001:000c9270       _get_fpsr                  00000001400ca270 f   libucrt:fpsr.obj
 0001:000c9280       _set_fpsr                  00000001400ca280 f   libucrt:fpsr.obj
 0001:000c928a       _fclrf                     00000001400ca28a f   libucrt:fpsr.obj
 0001:000c929e       _frnd                      00000001400ca29e f   libucrt:fpsr.obj
 0001:000c92c0       _raise_exc                 00000001400ca2c0 f   libucrt:fpexcept.obj
 0001:000c92e8       _raise_exc_ex              00000001400ca2e8 f   libucrt:fpexcept.obj
 0001:000c95f8       _raise_excf                00000001400ca5f8 f   libucrt:fpexcept.obj
 0001:000c9624       _set_errno_from_matherr    00000001400ca624 f   libucrt:fpexcept.obj
 0001:000c9654       _clrfp                     00000001400ca654 f   libucrt:fpctrl.obj
 0001:000c9674       _ctrlfp                    00000001400ca674 f   libucrt:fpctrl.obj
 0001:000c96f0       _set_statfp                00000001400ca6f0 f   libucrt:fpctrl.obj
 0001:000c9710       _statfp                    00000001400ca710 f   libucrt:fpctrl.obj
 0001:000c9724       __GSHandlerCheck           00000001400ca724 f   LIBCMT:gshandler.obj
 0001:000c9744       __GSHandlerCheckCommon     00000001400ca744 f   LIBCMT:gshandler.obj
 0001:000c97b0       __security_check_cookie    00000001400ca7b0 f   LIBCMT:amdsecgs.obj
 0001:000c97d0       _FindPESection             00000001400ca7d0 f   LIBCMT:pesect.obj
 0001:000c9820       _IsNonwritableInCurrentImage 00000001400ca820 f   LIBCMT:pesect.obj
 0001:000c9870       _ValidateImageBase         00000001400ca870 f   LIBCMT:pesect.obj
 0001:000c989c       __GSHandlerCheck_SEH       00000001400ca89c f   LIBCMT:gshandlerseh.obj
 0001:000c9924       __raise_securityfailure    00000001400ca924 f   LIBCMT:gs_report.obj
 0001:000c9958       __report_gsfailure         00000001400ca958 f   LIBCMT:gs_report.obj
 0001:000c9a2c       __report_rangecheckfailure 00000001400caa2c f   LIBCMT:gs_report.obj
 0001:000c9a40       __report_securityfailure   00000001400caa40 f   LIBCMT:gs_report.obj
 0001:000c9bd0       __chkstk                   00000001400cabd0 f   LIBCMT:chkstk.obj
 0001:000c9bd0       _alloca_probe              00000001400cabd0 f   LIBCMT:chkstk.obj
 0001:000c9c20       __GSHandlerCheck_EH        00000001400cac20 f   LIBCMT:gshandlereh.obj
 0001:000c9ca0       __C_specific_handler_noexcept 00000001400caca0 f   libvcruntime:chandler_noexcept.obj
 0001:000c9d00       memcmp                     00000001400cad00 f   libvcruntime:memcmp.obj
 0001:000c9dc8       wcschr                     00000001400cadc8 f   libvcruntime:wcschr.obj
 0001:000c9f40       ?shouldsaveblendmap@@YAEXZ 00000001400caf40 f   blend.obj
 0001:000c9f60       ?saveblendmap@@YAXPEAUstream@@@Z 00000001400caf60 f   blend.obj
 0001:000c9f80       ?saveblendmap@@YAXPEAUstream@@EAEAUBlendMapNode@@@Z 00000001400caf80 f   blend.obj
 0001:000ca060       ?loadblendmap@@YA_NPEAUstream@@H@Z 00000001400cb060 f   blend.obj
 0001:000ca090       ?loadblendmap@@YA_NPEAUstream@@AEAEAEAUBlendMapNode@@@Z 00000001400cb090 f   blend.obj
 0001:000ca200       ?renderblendbrush@@YAXXZ   00000001400cb200 f   blend.obj
 0001:000ca3d0       ?run@?$_icmd_moveblendmap@$0DAJ@@@SAXPEAH0@Z 00000001400cb3d0 f   blend.obj
 0001:000ca590       ?run@?$_icmd_clearblendmap@$0CPK@@@SAXXZ 00000001400cb590 f   blend.obj
 0001:000ca600       ?showblendmap@@YAXXZ       00000001400cb600 f   blend.obj
 0001:000ca690       ?invertblendmap@@YAXXZ     00000001400cb690 f   blend.obj
 0001:000ca7f0       ?invertblendmapsel@@YAXXZ  00000001400cb7f0 f   blend.obj
 0001:000ca9d0       ?clearblendmapsel@@YAXXZ   00000001400cb9d0 f   blend.obj
 0001:000cabb0       ?run@?$_icmd_paintblendmap@$0CMG@@@SAXPEAH@Z 00000001400cbbb0 f   blend.obj
 0001:000cac00       ?trypaintblendmap@@YAXXZ   00000001400cbc00 f   blend.obj
 0001:000cac70       ?stoppaintblendmap@@YAXXZ  00000001400cbc70 f   blend.obj
 0001:000cac90       ?paintblendmap@@YAX_N@Z    00000001400cbc90 f   blend.obj
 0001:000cae30       ?rotateblendbrush@@YAXPEAH@Z 00000001400cbe30 f   blend.obj
 0001:000cb040       ?canpaintblendmap@@YA_N_N00@Z 00000001400cc040 f   blend.obj
 0001:000cb100       ?curblendbrush@@YAXXZ      00000001400cc100 f   blend.obj
 0001:000cb120       ?getblendbrushname@@YAXPEAH@Z 00000001400cc120 f   blend.obj
 0001:000cb170       ?setblendbrush@@YAXPEBD@Z  00000001400cc170 f   blend.obj
 0001:000cb1e0       ?nextblendbrush@@YAXPEAH@Z 00000001400cc1e0 f   blend.obj
 0001:000cb240       ?addblendbrush@@YAXPEBD0@Z 00000001400cc240 f   blend.obj
 0001:000cb5a0       ?delblendbrush@@YAXPEBD@Z  00000001400cc5a0 f   blend.obj
 0001:000cb730       ?clearblendbrushes@@YAXXZ  00000001400cc730 f   blend.obj
 0001:000cb7e0       ?cleanupblendmap@@YAXXZ    00000001400cc7e0 f   blend.obj
 0001:000cb860       ?moveblendmap@@YAXHH@Z     00000001400cc860 f   blend.obj
 0001:000cb950       ?moveblendmap@@YAXEAEAUBlendMapNode@@HHHHH@Z 00000001400cc950 f   blend.obj
 0001:000cbaa0       ?shrinkblendmap@@YAXH@Z    00000001400ccaa0 f   blend.obj
 0001:000cbb90       ?enlargeblendmap@@YAXXZ    00000001400ccb90 f   blend.obj
 0001:000cbc00       ?resetblendmap@@YAXXZ      00000001400ccc00 f   blend.obj
 0001:000cbcb0       ?blitblendmap@@YAXPEAEHHHHH@Z 00000001400cccb0 f   blend.obj
 0001:000cc4f0       ?var_blendpaintmode@@YAXXZ 00000001400cd4f0 f   blend.obj
 0001:000cc510       ?optimizeblendmap@@YAXXZ   00000001400cd510 f   blend.obj
 0001:000cc6b0       ?invertblendmap@@YAXHHHH@Z 00000001400cd6b0 f   blend.obj
 0001:000cc9d0       ?fillblendmap@@YAXHHHHE@Z  00000001400cd9d0 f   blend.obj
 0001:000ccdc0       ?lookupblendmap@@YAEPEAUBlendMapCache@@AEBUvec@@@Z 00000001400cddc0 f   blend.obj
 0001:000cd130       ?setblendmaporigin@@YA_NPEAUBlendMapCache@@AEBUivec@@H@Z 00000001400ce130 f   blend.obj
 0001:000cd2e0       ?freeblendmapcache@@YAXAEAPEAUBlendMapCache@@@Z 00000001400ce2e0 f   blend.obj
 0001:000cd310       ?newblendmapcache@@YAPEAUBlendMapCache@@XZ 00000001400ce310 f   blend.obj
 0001:000cd350       ?shrink@BlendMapBranch@@QEAAEAEAUBlendMapNode@@H@Z 00000001400ce350 f   blend.obj
 0001:000cd380       ?splitsolid@BlendMapNode@@QEAAXAEAEE@Z 00000001400ce380 f   blend.obj
 0001:000cd410       ?cleanup@BlendMapNode@@QEAAXH@Z 00000001400ce410 f   blend.obj
 0001:000cd4d0       ?importcube@@YAXPEAD@Z     00000001400ce4d0 f   cubeloader.obj
 0001:000cd750       ?dumplms@@YAXXZ            00000001400ce750 f   lightmap.obj
 0001:000cd8b0       ?brightestlight@@YAPEAUentity@@AEBUvec@@0@Z 00000001400ce8b0 f   lightmap.obj
 0001:000cdca0       ?lightreaching@@YAXAEBUvec@@AEAU1@1_NPEAUextentity@@M@Z 00000001400ceca0 f   lightmap.obj
 0001:000ce7a0       ?initlights@@YAXXZ         00000001400cf7a0 f   lightmap.obj
 0001:000ce820       ?lightents@@YAX_N@Z        00000001400cf820 f   lightmap.obj
 0001:000ce980       ?lightent@@YAXAEAUextentity@@M@Z 00000001400cf980 f   lightmap.obj
 0001:000cea40       ?genlightmaptexs@@YAXHH@Z  00000001400cfa40 f   lightmap.obj
 0001:000cf170       ?var_batchlightmaps@@YAXXZ 00000001400d0170 f   lightmap.obj
 0001:000cf190       ?var_roundlightmaptex@@YAXXZ 00000001400d0190 f   lightmap.obj
 0001:000cf370       ?genreservedlightmaptexs@@YAXXZ 00000001400d0370 f   lightmap.obj
 0001:000d0510       ?fixrotatedlightmaps@@YAXXZ 00000001400d1510 f   lightmap.obj
 0001:000d0590       ?fixrotatedlightmaps@@YAXAEAUcube@@AEBUivec@@H@Z 00000001400d1590 f   lightmap.obj
 0001:000d0990       ?fixlightmapnormals@@YAXXZ 00000001400d1990 f   lightmap.obj
 0001:000d0a30       ?var_fullbrightlevel@@YAXXZ 00000001400d1a30 f   lightmap.obj
 0001:000d0a40       ?var_fullbright@@YAXXZ     00000001400d1a40 f   lightmap.obj
 0001:000d0a70       ?setfullbrightlevel@@YAXH@Z 00000001400d1a70 f   lightmap.obj
 0001:000d0d90       ?clearlightmaps@@YAXXZ     00000001400d1d90 f   lightmap.obj
 0001:000d0df0       ?patchlight@@YAXPEAH@Z     00000001400d1df0 f   lightmap.obj
 0001:000d1320       ?calclight@@YAXPEAH@Z      00000001400d2320 f   lightmap.obj
 0001:000d1c30       ?setlightmapquality@@YA_NH@Z 00000001400d2c30 f   lightmap.obj
 0001:000d1cc0       ?setupthread@lightmapworker@@QEAA_NXZ 00000001400d2cc0 f   lightmap.obj
 0001:000d1d40       ?reset@lightmapworker@@QEAAXXZ 00000001400d2d40 f   lightmap.obj
 0001:000d1da0       ?cleanupthread@lightmapworker@@QEAAXXZ 00000001400d2da0 f   lightmap.obj
 0001:000d1df0       ??1lightmapworker@@QEAA@XZ 00000001400d2df0 f   lightmap.obj
 0001:000d1ed0       ??0lightmapworker@@QEAA@XZ 00000001400d2ed0 f   lightmap.obj
 0001:000d2030       ?resetlightmaps@@YAX_N@Z   00000001400d3030 f   lightmap.obj
 0001:000d21f0       ?cleanuplightmaps@@YAXXZ   00000001400d31f0 f   lightmap.obj
 0001:000d39e0       ?work@lightmapworker@@SAHPEAX@Z 00000001400d49e0 f   lightmap.obj
 0001:000d7af0       ?checklightcache@@YAAEBU?$vector@H@@HH@Z 00000001400d8af0 f   lightmap.obj
 0001:000d7cc0       ?clearlightcache@@YAXH@Z   00000001400d8cc0 f   lightmap.obj
 0001:000d7e20       ?var_lightcachesize@@YAXXZ 00000001400d8e20 f   lightmap.obj
 0001:000dc550       ?copy@LightMap@@QEAAXGGPEAEGG@Z 00000001400dd550 f   lightmap.obj
 0001:000dc610       ?insert@LightMap@@QEAA_NAEAG0PEAEGG@Z 00000001400dd610 f   lightmap.obj
 0001:000dc6a0       ?insert@PackNode@@QEAA_NAEAG0GG@Z 00000001400dd6a0 f   lightmap.obj
 0001:000dc970       ?show_calclight_progress@@YAXXZ 00000001400dd970 f   lightmap.obj
 0001:000dcc40       ?check_calclight_canceled@@YAXXZ 00000001400ddc40 f   lightmap.obj
 0001:000dccb0       ?setsurface@@YAXAEAUcube@@HAEBUsurfaceinfo@@PEBUvertinfo@@H@Z 00000001400ddcb0 f   lightmap.obj
 0001:000dd000       ?setsurfaces@@YAXAEAUcube@@PEBUsurfaceinfo@@PEBUvertinfo@@H@Z 00000001400de000 f   lightmap.obj
 0001:000dd0f0       ?brightencube@@YAXAEAUcube@@@Z 00000001400de0f0 f   lightmap.obj
 0001:000dd140       ?setupsunlight@@YAXXZ      00000001400de140 f   lightmap.obj
 0001:000dd2c0       ?setsunlightdir@@YAXXZ     00000001400de2c0 f   lightmap.obj
 0001:000dd3e0       ?var_sunlightpitch@@YAXXZ  00000001400de3e0 f   lightmap.obj
 0001:000dd3f0       ?var_sunlightyaw@@YAXXZ    00000001400de3f0 f   lightmap.obj
 0001:000dd400       ?var_sunlightscale@@YAXXZ  00000001400de400 f   lightmap.obj
 0001:000dd410       ?var_sunlight@@YAXXZ       00000001400de410 f   lightmap.obj
 0001:000dd460       ?var_skylight@@YAXXZ       00000001400de460 f   lightmap.obj
 0001:000dd4b0       ?var_ambient@@YAXXZ        00000001400de4b0 f   lightmap.obj
 0001:000dd500       ?clearlights@@YAXXZ        00000001400de500 f   lightmap.obj
 0001:000dd5e0       ?previewblends@@YAXAEBUivec@@0@Z 00000001400de5e0 f   lightmap.obj
 0001:000dd760       ?updatelerpbounds@@YAXMPEBUlerpvert@@HAEAUlerpbounds@@1@Z 00000001400de760 f   normal.obj
 0001:000dd850       ?setlerpstep@@YAXMAEAUlerpbounds@@@Z 00000001400de850 f   normal.obj
 0001:000dda60       ?addnormals@@YAXAEAUcube@@AEBUivec@@H@Z 00000001400dea60 f   normal.obj
 0001:000deca0       ?show_addnormals_progress@@YAXXZ 00000001400dfca0 f   normal.obj
 0001:000df510       ?initlerpbounds@@YAXMMPEBUlerpvert@@HAEAUlerpbounds@@1@Z 00000001400e0510 f   normal.obj
 0001:000df800       ?lerpnormal@@YAXMMPEBUlerpvert@@HAEAUlerpbounds@@1AEAUvec@@2@Z 00000001400e0800 f   normal.obj
 0001:000dfc40       ?calclerpverts@@YAXPEBUvec2@@PEBUvec@@PEAUlerpvert@@AEAH@Z 00000001400e0c40 f   normal.obj
 0001:000dfd50       ?findnormal@@YAXAEBUvec@@0AEAU1@@Z 00000001400e0d50 f   normal.obj
 0001:000dfdd0       ?calcnormals@@YAX_N@Z      00000001400e0dd0 f   normal.obj
 0001:000dfeb0       ?clearnormals@@YAXXZ       00000001400e0eb0 f   normal.obj
 0001:000e0580       ?calcmerges@@YAXXZ         00000001400e1580 f   octa.obj
 0001:000e0680       ?genmerges@@YAXPEAUcube@@AEBUivec@@H@Z 00000001400e1680 f   octa.obj
 0001:000e0c30       ?mergepolys@@YAXHAEBUivec@@0HAEAU?$vector@Upoly@@@@@Z 00000001400e1c30 f   octa.obj
 0001:000e0fe0       ?addmerges@@YAXHAEBUivec@@0HAEAU?$vector@Upoly@@@@@Z 00000001400e1fe0 f   octa.obj
 0001:000e10d0       ?addmerge@@YAXAEAUcube@@HAEBUivec@@1HAEAUpoly@@@Z 00000001400e20d0 f   octa.obj
 0001:000e1470       ?mergepolys@@YA_NHAEAU?$hashset@Uplink@@@@AEAU?$vector@PEAUplink@@@@HAEAUpoly@@2AEBUpedge@@@Z 00000001400e2470 f   octa.obj
 0001:000e18b0       ?genpoly@@YA_NAEAUcube@@HAEBUivec@@HHAEAU2@AEAHAEAUpoly@@@Z 00000001400e28b0 f   octa.obj
 0001:000e20b0       ?clippoly@@YA_NAEAUpoly@@AEBUfacebounds@@@Z 00000001400e30b0 f   octa.obj
 0001:000e2530       ?mincubeface@@YA_NAEBUcube@@HAEBUivec@@HAEAUfacebounds@@@Z 00000001400e3530 f   octa.obj
 0001:000e2650       ?mincubeface@@YAXAEBUcube@@HAEBUivec@@HAEBUfacebounds@@AEAU3@GG@Z 00000001400e3650 f   octa.obj
 0001:000e2ab0       ?mergefaces@@YAHHPEAUfacebounds@@H@Z 00000001400e3ab0 f   octa.obj
 0001:000e2d50       ?genclipplanes@@YAXAEBUcube@@AEBUivec@@HAEAUclipplanes@@_N@Z 00000001400e3d50 f   octa.obj
 0001:000e3470       ?calcvert@@YAXAEBUcube@@AEBUivec@@HAEAUvec@@H_N@Z 00000001400e4470 f   octa.obj
 0001:000e3500       ?classifyface@@YAHAEBUcube@@HAEBUivec@@H@Z 00000001400e4500 f   octa.obj
 0001:000e38f0       ?visibleface@@YA_NAEBUcube@@HAEBUivec@@HGGG@Z 00000001400e48f0 f   octa.obj
 0001:000e40a0       ?collapsedface@@YA_NAEBUcube@@H@Z 00000001400e50a0 f   octa.obj
 0001:000e56c0       ?faceedges@@YAIAEBUcube@@H@Z 00000001400e66c0 f   octa.obj
 0001:000e5780       ?faceconvexity@@YAHAEBUcube@@H@Z 00000001400e6780 f   octa.obj
 0001:000e5880       ?faceconvexity@@YAHQEBUivec@@AEAH@Z 00000001400e6880 f   octa.obj
 0001:000e59b0       ?notouchingface@@YA_NAEBUcube@@H@Z 00000001400e69b0 f   octa.obj
 0001:000e59f0       ?touchingface@@YA_NAEBUcube@@H@Z 00000001400e69f0 f   octa.obj
 0001:000e5a30       ?collideface@@YA_NAEBUcube@@H@Z 00000001400e6a30 f   octa.obj
 0001:000e5af0       ?edgespan2vectorcube@@YAXAEAUcube@@@Z 00000001400e6af0 f   octa.obj
 0001:000e6d60       ?genvertp@@YAXAEAUcube@@AEAUivec@@11AEAUplane@@_N@Z 00000001400e7d60 f   octa.obj
 0001:000e6f60       ?remip_@@YAXXZ             00000001400e7f60 f   octa.obj
 0001:000e6f80       ?remip@@YA_NAEAUcube@@AEBUivec@@H@Z 00000001400e7f80 f   octa.obj
 0001:000e76f0       ?visibleorient@@YAHAEBUcube@@H@Z 00000001400e86f0 f   octa.obj
 0001:000e77b0       ?crushededge@@YA_NEH@Z     00000001400e87b0 f   octa.obj
 0001:000e77d0       ?subdividecube@@YA_NAEAUcube@@_N1@Z 00000001400e87d0 f   octa.obj
 0001:000e84d0       ?forcemip@@YAXAEAUcube@@_N@Z 00000001400e94d0 f   octa.obj
 0001:000e86f0       ?getmippedtexture@@YAHAEBUcube@@H@Z 00000001400e96f0 f   octa.obj
 0001:000e8840       ?neighbourcube@@YAAEBUcube@@AEBU1@HAEBUivec@@HAEAU2@AEAH@Z 00000001400e9840 f   octa.obj
 0001:000e89d0       ?lookupmaterial@@YAHAEBUvec@@@Z 00000001400e99d0 f   octa.obj
 0001:000e8aa0       ?validatec@@YAXPEAUcube@@H@Z 00000001400e9aa0 f   octa.obj
 0001:000e8bc0       ?isvalidcube@@YA_NAEBUcube@@@Z 00000001400e9bc0 f   octa.obj
 0001:000e8cc0       ?printcube@@YAXXZ          00000001400e9cc0 f   octa.obj
 0001:000e8d70       ?optiface@@YAXPEAEAEAUcube@@@Z 00000001400e9d70 f   octa.obj
 0001:000e8ee0       ?setcubevector@@YAXAEAUcube@@HHHHAEBUivec@@@Z 00000001400e9ee0 f   octa.obj
 0001:000e8ff0       ?getcubevector@@YAXAEAUcube@@HHHHAEAUivec@@@Z 00000001400e9ff0 f   octa.obj
 0001:000e90c0       ?discardchildren@@YAXAEAUcube@@_NH@Z 00000001400ea0c0 f   octa.obj
 0001:000e9240       ?freecubeext@@YAXAEAUcube@@@Z 00000001400ea240 f   octa.obj
 0001:000e9270       ?familysize@@YAHAEBUcube@@@Z 00000001400ea270 f   octa.obj
 0001:000e92e0       ?newcubeext@@YAPEAUcubeext@@AEAUcube@@H_N@Z 00000001400ea2e0 f   octa.obj
 0001:000e93f0       ?growcubeext@@YAPEAUcubeext@@PEAU1@H@Z 00000001400ea3f0 f   octa.obj
 0001:000e9460       ?setcubeext@@YAXAEAUcube@@PEAUcubeext@@@Z 00000001400ea460 f   octa.obj
 0001:000e9480       ?calcmergedsize@@YAHHAEBUivec@@HPEBUvertinfo@@H@Z 00000001400ea480 f   octa.obj
 0001:000e9620       ?flataxisface@@YA_NAEBUcube@@H@Z 00000001400ea620 f   octa.obj
 0001:000e9660       ?faceconvexity@@YAHPEBUvertinfo@@HH@Z 00000001400ea660 f   octa.obj
 0001:000e9790       ?genfaceverts@@YAXAEBUcube@@HQEAUivec@@@Z 00000001400ea790 f   octa.obj
 0001:000e9b70       ?faceconvexity@@YAHQEBUivec@@@Z 00000001400eab70 f   octa.obj
 0001:000e9c40       ?visibletris@@YAHAEBUcube@@HAEBUivec@@HGG@Z 00000001400eac40 f   octa.obj
 0001:000ea2e0       ?invalidatemerges@@YAXAEAUcube@@AEBUivec@@H_N@Z 00000001400eb2e0 f   octa.obj
 0001:000ea330       ?lookupcube@@YAAEAUcube@@AEBUivec@@HAEAU2@AEAH@Z 00000001400eb330 f   octa.obj
 0001:000ea4e0       ?mpremip@@YAX_N@Z          00000001400eb4e0 f   octa.obj
 0001:000ea600       ?freeocta@@YAXPEAUcube@@@Z 00000001400eb600 f   octa.obj
 0001:000ea710       ?newcubes@@YAPEAUcube@@IH@Z 00000001400eb710 f   octa.obj
 0001:000eb820       ?rendertexturepanel@@YAXHH@Z 00000001400ec820 f   octaedit.obj
 0001:000ec5a0       ?showtexgui@@YAXPEAH@Z     00000001400ed5a0 f   octaedit.obj
 0001:000ec6c0       ?g3d_texturemenu@@YAXXZ    00000001400ed6c0 f   octaedit.obj
 0001:000ec780       ?editmat@@YAXPEAD0@Z       00000001400ed780 f   octaedit.obj
 0001:000ec960       ?mpeditmat@@YAXHHAEAUselinfo@@_N@Z 00000001400ed960 f   octaedit.obj
 0001:000ecdf0       ?setmat@@YAXAEAUcube@@GGGGH@Z 00000001400eddf0 f   octaedit.obj
 0001:000ecf60       ?rotate@@YAXPEAH@Z         00000001400edf60 f   octaedit.obj
 0001:000ed060       ?mprotate@@YAXHAEAUselinfo@@_N@Z 00000001400ee060 f   octaedit.obj
 0001:000ed8e0       ?flip@@YAXXZ               00000001400ee8e0 f   octaedit.obj
 0001:000ed9e0       ?mpflip@@YAXAEAUselinfo@@_N@Z 00000001400ee9e0 f   octaedit.obj
 0001:000ee000       ?rotatecube@@YAXAEAUcube@@H@Z 00000001400ef000 f   octaedit.obj
 0001:000ee2a0       ?rotatequad@@YAXAEAUcube@@000@Z 00000001400ef2a0 f   octaedit.obj
 0001:000ee310       ?flipcube@@YAXAEAUcube@@H@Z 00000001400ef310 f   octaedit.obj
 0001:000ee680       ?mflip@@YAII@Z             00000001400ef680 f   octaedit.obj
 0001:000ee6b0       ?rflip@@YAII@Z             00000001400ef6b0 f   octaedit.obj
 0001:000ee6c0       ?cflip@@YAII@Z             00000001400ef6c0 f   octaedit.obj
 0001:000ee6e0       ?dflip@@YAII@Z             00000001400ef6e0 f   octaedit.obj
 0001:000ee710       ?run@?$_icmd_replacesel@$0JKF@@@SAXXZ 00000001400ef710 f   octaedit.obj
 0001:000ee720       ?run@?$_icmd_replace@$0JKE@@@SAXXZ 00000001400ef720 f   octaedit.obj
 0001:000ee730       ?replace@@YAX_N@Z          00000001400ef730 f   octaedit.obj
 0001:000ee860       ?mpreplacetex@@YA_NHH_NAEAUselinfo@@AEAU?$databuf@E@@@Z 00000001400ef860 f   octaedit.obj
 0001:000ee920       ?mpreplacetex@@YAXHH_NAEAUselinfo@@0@Z 00000001400ef920 f   octaedit.obj
 0001:000eed90       ?replacetexcube@@YAXAEAUcube@@HH@Z 00000001400efd90 f   octaedit.obj
 0001:000eee50       ?run@?$_icmd_getreptex@$0JHN@@@SAXXZ 00000001400efe50 f   octaedit.obj
 0001:000eef70       ?gettexname@@YAXPEAH0@Z    00000001400eff70 f   octaedit.obj
 0001:000ef020       ?getseltex@@YAXXZ          00000001400f0020 f   octaedit.obj
 0001:000ef0a0       ?getcurtex@@YAXXZ          00000001400f00a0 f   octaedit.obj
 0001:000ef110       ?gettex@@YAXXZ             00000001400f0110 f   octaedit.obj
 0001:000ef380       ?edittex_@@YAXPEAH@Z       00000001400f0380 f   octaedit.obj
 0001:000ef570       ?edittex@@YAXH_N@Z         00000001400f0570 f   octaedit.obj
 0001:000ef5e0       ?compactmruvslots@@YAXXZ   00000001400f05e0 f   octaedit.obj
 0001:000ef740       ?filltexlist@@YAXXZ        00000001400f0740 f   octaedit.obj
 0001:000ef950       ?mpedittex@@YA_NHHAEAUselinfo@@AEAU?$databuf@E@@@Z 00000001400f0950 f   octaedit.obj
 0001:000ef9b0       ?shouldpacktex@@YAHH@Z     00000001400f09b0 f   octaedit.obj
 0001:000efb40       ?mpedittex@@YAXHHAEAUselinfo@@_N@Z 00000001400f0b40 f   octaedit.obj
 0001:000f0030       ?vshaderparam@@YAXPEBDPEAM111@Z 00000001400f1030 f   octaedit.obj
 0001:000f02f0       ?vreset@@YAXXZ             00000001400f12f0 f   octaedit.obj
 0001:000f0490       ?vcolor@@YAXPEAM00@Z       00000001400f1490 f   octaedit.obj
 0001:000f0680       ?valpha@@YAXPEAM0@Z        00000001400f1680 f   octaedit.obj
 0001:000f0850       ?vlayer@@YAXPEAH@Z         00000001400f1850 f   octaedit.obj
 0001:000f0a70       ?vscale@@YAXPEAM@Z         00000001400f1a70 f   octaedit.obj
 0001:000f0c40       ?vscroll@@YAXPEAM0@Z       00000001400f1c40 f   octaedit.obj
 0001:000f0e10       ?voffset@@YAXPEAH0@Z       00000001400f1e10 f   octaedit.obj
 0001:000f0ff0       ?vrotate@@YAXPEAH@Z        00000001400f1ff0 f   octaedit.obj
 0001:000f11b0       ?vdelta@@YAXPEAD@Z         00000001400f21b0 f   octaedit.obj
 0001:000f12b0       ?mpeditvslot@@YA_NHHAEAUselinfo@@AEAU?$databuf@E@@@Z 00000001400f22b0 f   octaedit.obj
 0001:000f13c0       ?mpeditvslot@@YAXHAEAUVSlot@@HAEAUselinfo@@_N@Z 00000001400f23c0 f   octaedit.obj
 0001:000f1a00       ?edittexcube@@YAXAEAUcube@@HHAEA_N@Z 00000001400f2a00 f   octaedit.obj
 0001:000f2030       ?tofronttex@@YAXXZ         00000001400f3030 f   octaedit.obj
 0001:000f2110       ?delcube@@YAXXZ            00000001400f3110 f   octaedit.obj
 0001:000f2210       ?mpdelcube@@YAXAEAUselinfo@@_N@Z 00000001400f3210 f   octaedit.obj
 0001:000f25a0       ?pushsel@@YAXPEAH@Z        00000001400f35a0 f   octaedit.obj
 0001:000f2650       ?editface@@YAXPEAH0@Z      00000001400f3650 f   octaedit.obj
 0001:000f2700       ?mpeditface@@YAXHHAEAUselinfo@@_N@Z 00000001400f3700 f   octaedit.obj
 0001:000f3050       ?linkedpush@@YAXAEAUcube@@HHHHH@Z 00000001400f4050 f   octaedit.obj
 0001:000f3290       ?pushedge@@YAXAEAEHH@Z     00000001400f4290 f   octaedit.obj
 0001:000f3350       ?bounded@@YAHH@Z           00000001400f4350 f   octaedit.obj
 0001:000f3370       ?edithmap@@YAXHH@Z         00000001400f4370 f   octaedit.obj
 0001:000f33c0       ?run@hmap@@YAXHH@Z         00000001400f43c0 f   octaedit.obj
 0001:000f3ad0       ?rippleandset@hmap@@YAXXZ  00000001400f4ad0 f   octaedit.obj
 0001:000f3b40       ?smooth@hmap@@YAXXZ        00000001400f4b40 f   octaedit.obj
 0001:000f3c80       ?paint@hmap@@YAXXZ         00000001400f4c80 f   octaedit.obj
 0001:000f3e60       ?ripple@hmap@@YAXHHH_N@Z   00000001400f4e60 f   octaedit.obj
 0001:000f4680       ?select@hmap@@YAXHHH@Z     00000001400f5680 f   octaedit.obj
 0001:000f4c40       ?addpoint@hmap@@YAXHHHH@Z  00000001400f5c40 f   octaedit.obj
 0001:000f4c80       ?pushside@hmap@@YAXAEAUcube@@HHHH@Z 00000001400f5c80 f   octaedit.obj
 0001:000f4df0       ?getface@hmap@@YAIPEAUcube@@H@Z 00000001400f5df0 f   octaedit.obj
 0001:000f4e20       ?getcube@hmap@@YAPEAUcube@@Uivec@@H@Z 00000001400f5e20 f   octaedit.obj
 0001:000f4f80       ?run@?$_icmd_hmapselect@$0GCM@@@SAXXZ 00000001400f5f80 f   octaedit.obj
 0001:000f5060       ?hmapcancel@@YAXXZ         00000001400f6060 f   octaedit.obj
 0001:000f5080       ?brushvert@@YAXPEAH00@Z    00000001400f6080 f   octaedit.obj
 0001:000f51c0       ?clearbrush@@YAXXZ         00000001400f61c0 f   octaedit.obj
 0001:000f5210       ?compacteditvslots@@YAXXZ  00000001400f6210 f   octaedit.obj
 0001:000f53c0       ?paste@@YAXXZ              00000001400f63c0 f   octaedit.obj
 0001:000f54c0       ?pastehilite@@YAXXZ        00000001400f64c0 f   octaedit.obj
 0001:000f5560       ?copy@@YAXXZ               00000001400f6560 f   octaedit.obj
 0001:000f55a0       ?mppaste@@YAXAEAPEAUeditinfo@@AEAUselinfo@@_N@Z 00000001400f65a0 f   octaedit.obj
 0001:000f56d0       ?mpcopy@@YAXAEAPEAUeditinfo@@AEAUselinfo@@_N@Z 00000001400f66d0 f   octaedit.obj
 0001:000f5980       ?previewprefab@@YAXPEBDAEBUvec@@@Z 00000001400f6980 f   octaedit.obj
 0001:000f6160       ?genprefabmesh@@YAXAEAUprefab@@@Z 00000001400f7160 f   octaedit.obj
 0001:000f6ef0       ?pasteprefab@@YAXPEAD@Z    00000001400f7ef0 f   octaedit.obj
 0001:000f6f70       ?loadprefab@@YAPEAUprefab@@PEBD_N@Z 00000001400f7f70 f   octaedit.obj
 0001:000f73e0       ?pasteblock@@YAXAEAUblock3@@AEAUselinfo@@_N@Z 00000001400f83e0 f   octaedit.obj
 0001:000f7730       ?saveprefab@@YAXPEAD@Z     00000001400f8730 f   octaedit.obj
 0001:000f7bf0       ?delprefab@@YAXPEAD@Z      00000001400f8bf0 f   octaedit.obj
 0001:000f7d30       ?cleanupprefabs@@YAXXZ     00000001400f8d30 f   octaedit.obj
 0001:000f7e00       ?packundo@@YA_NHAEAHAEAPEAE0@Z 00000001400f8e00 f   octaedit.obj
 0001:000f7e50       ?unpackundo@@YA_NPEBEHH@Z  00000001400f8e50 f   octaedit.obj
 0001:000f8040       ?packundo@@YA_NPEAUundoblock@@AEAHAEAPEAE1@Z 00000001400f9040 f   octaedit.obj
 0001:000f8350       ?freeeditinfo@@YAXAEAPEAUeditinfo@@@Z 00000001400f9350 f   octaedit.obj
 0001:000f8420       ?unpackeditinfo@@YA_NAEAPEAUeditinfo@@PEBEHH@Z 00000001400f9420 f   octaedit.obj
 0001:000f8550       ?packeditinfo@@YA_NPEAUeditinfo@@AEAHAEAPEAE1@Z 00000001400f9550 f   octaedit.obj
 0001:000f8e90       ?editredo@@YAXXZ           00000001400f9e90 f   octaedit.obj
 0001:000f8eb0       ?editundo@@YAXXZ           00000001400f9eb0 f   octaedit.obj
 0001:000f8ed0       ?swapundo@@YAXAEAUundolist@@0H@Z 00000001400f9ed0 f   octaedit.obj
 0001:000f95f0       ?makeundo@@YAXXZ           00000001400fa5f0 f   octaedit.obj
 0001:000f96d0       ?makeundo@@YAXAEAUselinfo@@@Z 00000001400fa6d0 f   octaedit.obj
 0001:000f9700       ?addundo@@YAXPEAUundoblock@@@Z 00000001400fa700 f   octaedit.obj
 0001:000f97f0       ?newundocube@@YAPEAUundoblock@@AEAUselinfo@@@Z 00000001400fa7f0 f   octaedit.obj
 0001:000f98f0       ?clearundos@@YAXXZ         00000001400fa8f0 f   octaedit.obj
 0001:000f9900       ?pruneundos@@YAXH@Z        00000001400fa900 f   octaedit.obj
 0001:000f9a70       ?pasteundo@@YAXPEAUundoblock@@@Z 00000001400faa70 f   octaedit.obj
 0001:000f9bd0       ?pasteundoblock@@YAXPEAUblock3@@PEAE@Z 00000001400fabd0 f   octaedit.obj
 0001:000f9d30       ?freeundo@@YAXPEAUundoblock@@@Z 00000001400fad30 f   octaedit.obj
 0001:000f9d60       ?selgridmap@@YAXAEAUselinfo@@PEAE@Z 00000001400fad60 f   octaedit.obj
 0001:000f9f60       ?freeblock@@YAXPEAUblock3@@_N@Z 00000001400faf60 f   octaedit.obj
 0001:000fa0a0       ?blockcopy@@YAPEAUblock3@@AEBU1@H@Z 00000001400fb0a0 f   octaedit.obj
 0001:000fa120       ?blockcopy@@YAXAEBUblock3@@HPEAU1@@Z 00000001400fb120 f   octaedit.obj
 0001:000fa420       ?changed@@YAXAEBUblock3@@_N@Z 00000001400fb420 f   octaedit.obj
 0001:000fa500       ?readychanges@@YAXAEBUivec@@0PEAUcube@@0H@Z 00000001400fb500 f   octaedit.obj
 0001:000fa740       ?tryedit@@YAXXZ            00000001400fb740 f   octaedit.obj
 0001:000fa7d0       ?rendereditcursor@@YAXXZ   00000001400fb7d0 f   octaedit.obj
 0001:000fb9c0       ?editmoveplane@@YA_NAEBUvec@@0HMAEAU1@1_N@Z 00000001400fc9c0 f   octaedit.obj
 0001:000fbb10       ?updateselection@@YAXXZ    00000001400fcb10 f   octaedit.obj
 0001:000fbbc0       ?normalizelookupcube@@YAXAEBUivec@@@Z 00000001400fcbc0 f   octaedit.obj
 0001:000fbc60       ?countselchild@@YAXPEAUcube@@AEBUivec@@H@Z 00000001400fcc60 f   octaedit.obj
 0001:000fbe10       ?run@?$_icmd_havesel@$0BAD@@@SAXXZ 00000001400fce10 f   octaedit.obj
 0001:000fbe40       ?blockcube@@YAAEAUcube@@HHHAEBUblock3@@H@Z 00000001400fce40 f   octaedit.obj
 0001:000fbf10       ?run@?$_icmd_selswap@$0ON@@@SAXXZ 00000001400fcf10 f   octaedit.obj
 0001:000fbfa0       ?run@?$_icmd_selrestore@$0OM@@@SAXXZ 00000001400fcfa0 f   octaedit.obj
 0001:000fc000       ?run@?$_icmd_selsave@$0OL@@@SAXXZ 00000001400fd000 f   octaedit.obj
 0001:000fc060       ?run@?$_icmd_selmoved@$0OK@@@SAXXZ 00000001400fd060 f   octaedit.obj
 0001:000fc0d0       ?run@?$_icmd_edittoggle@$0OD@@@SAXXZ 00000001400fd0d0 f   octaedit.obj
 0001:000fc0e0       ?selextend@@YAXXZ          00000001400fd0e0 f   octaedit.obj
 0001:000fc1f0       ?reorient@@YAXXZ           00000001400fd1f0 f   octaedit.obj
 0001:000fc260       ?toggleedit@@YAX_N@Z       00000001400fd260 f   octaedit.obj
 0001:000fc510       ?cancelsel@@YAXXZ          00000001400fd510 f   octaedit.obj
 0001:000fc550       ?cubecancel@@YAXXZ         00000001400fd550 f   octaedit.obj
 0001:000fc590       ?forcenextundo@@YAXXZ      00000001400fd590 f   octaedit.obj
 0001:000fc5b0       ?var_hmapedit@@YAXXZ       00000001400fd5b0 f   octaedit.obj
 0001:000fc5d0       ?var_gridpower@@YAXXZ      00000001400fd5d0 f   octaedit.obj
 0001:000fc640       ?run@?$_icmd_moving@$0HN@@@SAXPEAH@Z 00000001400fd640 f   octaedit.obj
 0001:000fc700       ?var_dragging@@YAXXZ       00000001400fd700 f   octaedit.obj
 0001:000fc770       ?boxsgrid@@YAXHUvec@@0H@Z  00000001400fd770 f   octaedit.obj
 0001:000fcef0       ?boxs3D@@YAXAEBUvec@@U1@H@Z 00000001400fdef0 f   octaedit.obj
 0001:000fcf70       ?boxs@@YAXHUvec@@AEBU1@@Z  00000001400fdf70 f   octaedit.obj
 0001:000fd170       ?boxs@@YAXHUvec@@AEBU1@M@Z 00000001400fe170 f   octaedit.obj
 0001:000fd7b0       ?commitchanges@@YAX_N@Z    00000001400fe7b0 f   octaedit.obj
 0001:000fd880       ?noedit@@YA_N_N0@Z         00000001400fe880 f   octaedit.obj
 0001:000fe100       ?recalc@@YAXXZ             00000001400ff100 f   octarender.obj
 0001:000fe110       ?precachetextures@@YAXXZ   00000001400ff110 f   octarender.obj
 0001:000fe310       ?findtjoints@@YAXHAEBUedgegroup@@@Z 00000001400ff310 f   octarender.obj
 0001:000fe490       ?addtjoint@@YAXAEBUedgegroup@@AEBUcubeedge@@H@Z 00000001400ff490 f   octarender.obj
 0001:000fe660       ?updateva@@YAHPEAUcube@@AEBUivec@@HH@Z 00000001400ff660 f   octarender.obj
 0001:000feec0       ?var_vacubesize@@YAXXZ     00000001400ffec0 f   octarender.obj
 0001:000feed0       ?var_vafacemin@@YAXXZ      00000001400ffed0 f   octarender.obj
 0001:000feee0       ?var_vafacemax@@YAXXZ      00000001400ffee0 f   octarender.obj
 0001:000ff0e0       ?setva@@YAXAEAUcube@@AEBUivec@@HH@Z 00000001401000e0 f   octarender.obj
 0001:000ff820       ?calcmatbb@@YAXAEBUivec@@HAEAU1@1@Z 0000000140100820 f   octarender.obj
 0001:000ff970       ?calcgeombb@@YAXAEBUivec@@HAEAU1@1@Z 0000000140100970 f   octarender.obj
 0001:000ffb90       ?rendercube@@YAXAEAUcube@@AEBUivec@@HHAEAH@Z 0000000140100b90 f   octarender.obj
 0001:000ffe60       ?addmergedverts@@YAXHAEBUivec@@@Z 0000000140100e60 f   octarender.obj
 0001:001002d0       ?findmergedfaces@@YAHAEAUcube@@AEBUivec@@HHH@Z 00000001401012d0 f   octarender.obj
 0001:00100420       ?genmergedfaces@@YAHAEAUcube@@AEBUivec@@HH@Z 0000000140101420 f   octarender.obj
 0001:001008b0       ?updatevabb@@YAXPEAUvtxarray@@_N@Z 00000001401018b0 f   octarender.obj
 0001:00100ca0       ?clearvas@@YAXPEAUcube@@@Z 0000000140101ca0 f   octarender.obj
 0001:00100ef0       ?newva@@YAPEAUvtxarray@@AEBUivec@@H@Z 0000000140101ef0 f   octarender.obj
 0001:00101080       ?addskyverts@@YAXAEBUivec@@H@Z 0000000140102080 f   octarender.obj
 0001:00101890       ?genskyfaces@@YAXAEAUcube@@AEBUivec@@H@Z 0000000140102890 f   octarender.obj
 0001:00101ba0       ?minskyface@@YAXAEAUcube@@HAEBUivec@@HAEAUfacebounds@@@Z 0000000140102ba0 f   octarender.obj
 0001:00101ef0       ?gencubeverts@@YAXAEAUcube@@AEBUivec@@HH@Z 0000000140102ef0 f   octarender.obj
 0001:00102960       ?gencubeedges@@YAXPEAUcube@@AEBUivec@@H@Z 0000000140103960 f   octarender.obj
 0001:00102aa0       ?gencubeedges@@YAXAEAUcube@@AEBUivec@@H@Z 0000000140103aa0 f   octarender.obj
 0001:001033b0       ?addcubeverts@@YAXAEAUVSlot@@HHPEAUvec@@HGGPEAUvertinfo@@HHGH_NH@Z 00000001401043b0 f   octarender.obj
 0001:00103d10       ?decodenormal@@YA?AUvec@@G@Z 0000000140104d10 f   octarender.obj
 0001:00103f00       ?addgrasstri@@YAXHPEAUvertex@@HGG@Z 0000000140104f00 f   octarender.obj
 0001:001047b0       ?addtris@@YAXAEBUsortkey@@HPEAUvertex@@PEAHHHHH@Z 00000001401057b0 f   octarender.obj
 0001:00105490       ?var_filltjoints@@YAXXZ    0000000140106490 f   octarender.obj
 0001:001054a0       ?calcshadowmask@@YAHPEAUvec@@H@Z 00000001401064a0 f   octarender.obj
 0001:001059f0       ?addvbo@@YAPEAEPEAUvtxarray@@HHH@Z 00000001401069f0 f   octarender.obj
 0001:00105a80       ?flushvbo@@YAXH@Z          0000000140106a80 f   octarender.obj
 0001:00105c60       ?readva@@YA_NPEAUvtxarray@@AEAPEAGAEAPEAUvertex@@@Z 0000000140106c60 f   octarender.obj
 0001:00105db0       ?genvbo@@YAXHPEAXHPEAPEAUvtxarray@@H@Z 0000000140106db0 f   octarender.obj
 0001:00105f00       ?destroyvbo@@YAXI@Z        0000000140106f00 f   octarender.obj
 0001:00105fd0       ?var_vbosize@@YAXXZ        0000000140106fd0 f   octarender.obj
 0001:00105fe0       ?octarender@@YAXXZ         0000000140106fe0 f   octarender.obj
 0001:001060d0       ?updatevabbs@@YAX_N@Z      00000001401070d0 f   octarender.obj
 0001:00106130       ?guessnormals@@YAXPEBUvec@@HPEAU1@@Z 0000000140107130 f   octarender.obj
 0001:001065a0       ?reduceslope@@YAXAEAUivec@@@Z 00000001401075a0 f   octarender.obj
 0001:001066c0       ?findtjoints@@YAXXZ        00000001401076c0 f   octarender.obj
 0001:001067e0       ?encodenormal@@YAGAEBUvec@@@Z 00000001401077e0 f   octarender.obj
 0001:001068c0       ?destroyva@@YAXPEAUvtxarray@@_N@Z 00000001401078c0 f   octarender.obj
 0001:00106bf0       ?allchanged@@YAX_N@Z       0000000140107bf0 f   octarender.obj
 0001:0010b810       ?run@?$_icmd_attack@$0HMD@@@SAXPEAH@Z 000000014010c810 f   physics.obj
 0001:0010b850       ?run@?$_icmd_jump@$0HMC@@@SAXPEAH@Z 000000014010c850 f   physics.obj
 0001:0010b8a0       ?run@?$_icmd_right@$0HMA@@@SAXPEAH@Z 000000014010c8a0 f   physics.obj
 0001:0010b8e0       ?run@?$_icmd_left@$0HLP@@@SAXPEAH@Z 000000014010c8e0 f   physics.obj
 0001:0010b920       ?run@?$_icmd_forward@$0HLO@@@SAXPEAH@Z 000000014010c920 f   physics.obj
 0001:0010b960       ?run@?$_icmd_backward@$0HLN@@@SAXPEAH@Z 000000014010c960 f   physics.obj
 0001:0010b9a0       ?moveplatform@@YA_NPEAUphysent@@AEBUvec@@@Z 000000014010c9a0 f   physics.obj
 0001:0010caf0       ?platformcollide@@YA_NPEAUphysent@@0AEBUvec@@M@Z 000000014010daf0 f   physics.obj
 0001:0010cbb0       ?updatephysstate@@YAXPEAUphysent@@@Z 000000014010dbb0 f   physics.obj
 0001:0010cd60       ?bounce@@YA_NPEAUphysent@@MMM@Z 000000014010dd60 f   physics.obj
 0001:0010ceb0       ?moveplayer@@YAXPEAUphysent@@H_N@Z 000000014010deb0 f   physics.obj
 0001:0010cfd0       ?interppos@@YAXPEAUphysent@@@Z 000000014010dfd0 f   physics.obj
 0001:0010d080       ?physicsframe@@YAXXZ       000000014010e080 f   physics.obj
 0001:0010d150       ?moveplayer@@YA_NPEAUphysent@@H_NH@Z 000000014010e150 f   physics.obj
 0001:0010d640       ?modifygravity@@YAXPEAUphysent@@_NH@Z 000000014010e640 f   physics.obj
 0001:0010d820       ?modifyvelocity@@YAXPEAUphysent@@_N11H@Z 000000014010e820 f   physics.obj
 0001:0010dbf0       ?vectoyawpitch@@YAXAEBUvec@@AEAM1@Z 000000014010ebf0 f   physics.obj
 0001:0010dcc0       ?vecfromyawpitch@@YAXMMHHAEAUvec@@@Z 000000014010ecc0 f   physics.obj
 0001:0010de40       ?phystest@@YAXXZ           000000014010ee40 f   physics.obj
 0001:0010dfd0       ?dropheight@@YAMAEAUentity@@@Z 000000014010efd0 f   physics.obj
 0001:0010e0b0       ?droptofloor@@YA_NAEAUvec@@MM@Z 000000014010f0b0 f   physics.obj
 0001:0010e360       ?movecamera@@YA_NPEAUphysent@@AEBUvec@@MM@Z 000000014010f360 f   physics.obj
 0001:0010e590       ?avoidcollision@@YAXPEAUphysent@@AEBUvec@@0M@Z 000000014010f590 f   physics.obj
 0001:0010e780       ?bounce@@YA_NPEAUphysent@@MMMM@Z 000000014010f780 f   physics.obj
 0001:0010ede0       ?move@@YA_NPEAUphysent@@AEAUvec@@@Z 000000014010fde0 f   physics.obj
 0001:0010f590       ?findfloor@@YA_NPEAUphysent@@_NAEBUvec@@AEA_NAEAU2@@Z 0000000140110590 f   physics.obj
 0001:0010f860       ?landing@@YAXPEAUphysent@@AEAUvec@@AEBU2@_N@Z 0000000140110860 f   physics.obj
 0001:0010f8c0       ?falling@@YAXPEAUphysent@@AEAUvec@@AEBU2@@Z 00000001401108c0 f   physics.obj
 0001:0010f9c0       ?trystepdown@@YA_NPEAUphysent@@AEAUvec@@_N@Z 00000001401109c0 f   physics.obj
 0001:0010fae0       ?trystepdown@@YA_NPEAUphysent@@AEAUvec@@MMM_N@Z 0000000140110ae0 f   physics.obj
 0001:0010fee0       ?trystepup@@YA_NPEAUphysent@@AEAUvec@@AEBU2@M2@Z 0000000140110ee0 f   physics.obj
 0001:00110500       ?switchfloor@@YAXPEAUphysent@@AEAUvec@@AEBU2@@Z 0000000140111500 f   physics.obj
 0001:00110750       ?slideagainst@@YAXPEAUphysent@@AEAUvec@@AEBU2@_N3@Z 0000000140111750 f   physics.obj
 0001:001108f0       ?recalcdir@@YAXPEAUphysent@@AEBUvec@@AEAU2@@Z 00000001401118f0 f   physics.obj
 0001:001109e0       ?collide@@YA_NPEAUphysent@@AEBUvec@@M_N2@Z 00000001401119e0 f   physics.obj
 0001:00111190       ?mmcollide@@YA_NPEAUphysent@@AEBUvec@@AEAUoctaentities@@@Z 0000000140112190 f   physics.obj
 0001:001115d0       ?rotatebb@@YAXAEAUvec@@0H@Z 00000001401125d0 f   physics.obj
 0001:001116c0       ?plcollide@@YA_NPEAUphysent@@AEBUvec@@_N@Z 00000001401126c0 f   physics.obj
 0001:00111ad0       ?overlapsdynent@@YA_NAEBUvec@@M@Z 0000000140112ad0 f   physics.obj
 0001:00111c50       ?updatedynentcache@@YAXPEAUphysent@@@Z 0000000140112c50 f   physics.obj
 0001:00111e80       ?checkdynentcache@@YAAEBU?$vector@PEAUphysent@@@@HH@Z 0000000140112e80 f   physics.obj
 0001:00112040       ?var_dynentsize@@YAXXZ     0000000140113040 f   physics.obj
 0001:00112090       ?cleardynentcache@@YAXXZ   0000000140113090 f   physics.obj
 0001:001120e0       ?ellipsecollide@@YA_NPEAUphysent@@AEBUvec@@11MMMMM@Z 00000001401130e0 f   physics.obj
 0001:00112500       ?ellipseboxcollide@@YA_NPEAUphysent@@AEBUvec@@11MMMMM@Z 0000000140113500 f   physics.obj
 0001:00112940       ?rayfloor@@YAMAEBUvec@@AEAU1@HM@Z 0000000140113940 f   physics.obj
 0001:001129f0       ?raycubelos@@YA_NAEBUvec@@0AEAU1@@Z 00000001401139f0 f   physics.obj
 0001:00112b20       ?raycubepos@@YAMAEBUvec@@0AEAU1@MHH@Z 0000000140113b20 f   physics.obj
 0001:00112bd0       ?raycube@@YAMAEBUvec@@0MHHPEAUextentity@@@Z 0000000140113bd0 f   physics.obj
 0001:001142b0       ?entinmap@@YA_NPEAUdynent@@_N@Z 00000001401152b0 f   physics.obj
 0001:001145d0       ?rayent@@YAMAEBUvec@@0MHHAEAH1@Z 00000001401155d0 f   physics.obj
 0001:00114870       ?resetclipplanes@@YAXXZ    0000000140115870 f   physics.obj
 0001:001148b0       ?shadowray@@YAMPEAUShadowRayCache@@AEBUvec@@1MHPEAUextentity@@@Z 00000001401158b0 f   physics.obj
 0001:001151d0       ?shadowray@@YAMAEBUvec@@0MHPEAUextentity@@@Z 00000001401161d0 f   physics.obj
 0001:00115b20       ?newshadowraycache@@YAPEAUShadowRayCache@@XZ 0000000140116b20 f   physics.obj
 0001:00115b60       ?freeshadowraycache@@YAXAEAPEAUShadowRayCache@@@Z 0000000140116b60 f   physics.obj
 0001:00115b90       ?resetshadowraycache@@YAXPEAUShadowRayCache@@@Z 0000000140116b90 f   physics.obj
 0001:00115bd0       ?dropenttofloor@@YAXPEAUentity@@@Z 0000000140116bd0 f   physics.obj
 0001:00115d20       ?getnumviewcells@@YAHXZ    0000000140116d20 f   pvs.obj
 0001:00115d30       ?loadpvs@@YAXPEAUstream@@H@Z 0000000140116d30 f   pvs.obj
 0001:00115f80       ?loadviewcells@@YAPEAUviewcellnode@@PEAUstream@@@Z 0000000140116f80 f   pvs.obj
 0001:00116060       ?savepvs@@YAXPEAUstream@@@Z 0000000140117060 f   pvs.obj
 0001:001161d0       ?saveviewcells@@YAXPEAUstream@@AEAUviewcellnode@@@Z 00000001401171d0 f   pvs.obj
 0001:00116250       ?waterpvsoccluded@@YA_NH@Z 0000000140117250 f   pvs.obj
 0001:001162c0       ?pvsoccludedsphere@@YA_NAEBUvec@@M@Z 00000001401172c0 f   pvs.obj
 0001:00116370       ?pvsoccluded@@YA_NAEBUivec@@0@Z 0000000140117370 f   pvs.obj
 0001:00116760       ?pvsstats@@YAXXZ           0000000140117760 f   pvs.obj
 0001:001167b0       ?genpvs@@YAXPEAH@Z         00000001401177b0 f   pvs.obj
 0001:00116f20       ?testpvs@@YAXPEAH@Z        0000000140117f20 f   pvs.obj
 0001:00117950       ?clearpvs@@YAXXZ           0000000140118950 f   pvs.obj
 0001:001179c0       ?setviewcell@@YAXAEBUvec@@@Z 00000001401189c0 f   pvs.obj
 0001:00117ac0       ?var_lockpvs@@YAXXZ        0000000140118ac0 f   pvs.obj
 0001:00119090       ?getworldsize@@YAHXZ       000000014011a090 f   world.obj
 0001:001190a0       ?mpeditent@@YAXHAEBUvec@@HHHHHH_N@Z 000000014011a0a0 f   world.obj
 0001:00119220       ?mapname@@YAXXZ            000000014011a220 f   world.obj
 0001:001192a0       ?mapenlarge@@YAXXZ         000000014011a2a0 f   world.obj
 0001:001192e0       ?newmap@@YAXPEAH@Z         000000014011a2e0 f   world.obj
 0001:00119360       ?shrinkmap@@YAXXZ          000000014011a360 f   world.obj
 0001:001196b0       ?enlargemap@@YA_N_N@Z      000000014011a6b0 f   world.obj
 0001:00119840       ?resetmap@@YAXXZ           000000014011a840 f   world.obj
 0001:00119aa0       ?splitocta@@YAXPEAUcube@@H@Z 000000014011aaa0 f   world.obj
 0001:00119b80       ?findplayerspawn@@YAXPEAUdynent@@HH@Z 000000014011ab80 f   world.obj
 0001:00119d00       ?findentity@@YAHHHHH@Z     000000014011ad00 f   world.obj
 0001:00119dd0       ?entattr@@YAXPEAH00@Z      000000014011add0 f   world.obj
 0001:0011a300       ?enttype@@YAXPEADPEAH@Z    000000014011b300 f   world.obj
 0001:0011a710       ?run@?$_icmd_entindex@$0EDH@@@SAXXZ 000000014011b710 f   world.obj
 0001:0011a730       ?run@?$_icmd_entget@$0EDG@@@SAXXZ 000000014011b730 f   world.obj
 0001:0011a7e0       ?run@?$_icmd_insel@$0EDF@@@SAXXZ 000000014011b7e0 f   world.obj
 0001:0011a820       ?run@?$_icmd_entloop@$0EDE@@@SAXPEAI@Z 000000014011b820 f   world.obj
 0001:0011aaf0       ?run@?$_icmd_entselect@$0EDD@@@SAXPEAI@Z 000000014011baf0 f   world.obj
 0001:0011ac60       ?run@?$_icmd_enthavesel@$0EDC@@@SAXXZ 000000014011bc60 f   world.obj
 0001:0011acd0       ?nearestent@@YAXXZ         000000014011bcd0 f   world.obj
 0001:0011ade0       ?printent@@YAXAEAUextentity@@PEADH@Z 000000014011bde0 f   world.obj
 0001:0011af90       ?entset@@YAXPEADPEAH1111@Z 000000014011bf90 f   world.obj
 0001:0011b490       ?entpaste@@YAXXZ           000000014011c490 f   world.obj
 0001:0011b8a0       ?entcopy@@YAXXZ            000000014011c8a0 f   world.obj
 0001:0011ba40       ?newent@@YAXPEADPEAH1111@Z 000000014011ca40 f   world.obj
 0001:0011bc00       ?newentity@@YAXHHHHHH@Z    000000014011cc00 f   world.obj
 0001:0011bd70       ?newentity@@YAPEAUextentity@@_NAEBUvec@@HHHHHHAEAH@Z 000000014011cd70 f   world.obj
 0001:0011c180       ?attachent@@YAXXZ          000000014011d180 f   world.obj
 0001:0011c560       ?dropent@@YAXXZ            000000014011d560 f   world.obj
 0001:0011c940       ?dropentity@@YA_NAEAUentity@@H@Z 000000014011d940 f   world.obj
 0001:0011cc60       ?findtype@@YAHPEAD@Z       000000014011dc60 f   world.obj
 0001:0011cce0       ?delent@@YAXXZ             000000014011dce0 f   world.obj
 0001:0011d750       ?entautoview@@YAXPEAH@Z    000000014011e750 f   world.obj
 0001:0011d8b0       ?entpush@@YAXPEAH@Z        000000014011e8b0 f   world.obj
 0001:0011de70       ?run@?$_icmd_entmoving@$0DCD@@@SAXPEAH@Z 000000014011ee70 f   world.obj
 0001:0011df30       ?run@?$_icmd_enttoggle@$0DBF@@@SAXXZ 000000014011ef30 f   world.obj
 0001:0011dfc0       ?run@?$_icmd_entadd@$0DAP@@@SAXXZ 000000014011efc0 f   world.obj
 0001:0011e050       ?enttoggle@@YA_NH@Z        000000014011f050 f   world.obj
 0001:0011e830       ?renderentradius@@YAXAEAUextentity@@_N@Z 000000014011f830 f   world.obj
 0001:0011ec70       ?renderentcone@@YAXAEBUextentity@@AEBUvec@@MM@Z 000000014011fc70 f   world.obj
 0001:0011f320       ?renderentarrow@@YAXAEBUextentity@@AEBUvec@@M@Z 0000000140120320 f   world.obj
 0001:0011f800       ?renderentattachment@@YAXAEBUextentity@@@Z 0000000140120800 f   world.obj
 0001:0011f8f0       ?renderentsphere@@YAXAEBUextentity@@M@Z 00000001401208f0 f   world.obj
 0001:0011fca0       ?renderentring@@YAXAEBUextentity@@MH@Z 0000000140120ca0 f   world.obj
 0001:00120010       ?entrotate@@YAXPEAH@Z      0000000140121010 f   world.obj
 0001:00120440       ?entflip@@YAXXZ            0000000140121440 f   world.obj
 0001:001206e0       ?getselpos@@YA?AUvec@@XZ   00000001401216e0 f   world.obj
 0001:00120780       ?attachentities@@YAXXZ     0000000140121780 f   world.obj
 0001:00120a70       ?attachentity@@YAXAEAUextentity@@@Z 0000000140121a70 f   world.obj
 0001:00120b60       ?detachentity@@YAXAEAUextentity@@@Z 0000000140121b60 f   world.obj
 0001:00120b80       ?makeundoent@@YAXXZ        0000000140121b80 f   world.obj
 0001:00120bd0       ?newundoent@@YAPEAUundoblock@@XZ 0000000140121bd0 f   world.obj
 0001:00120c80       ?entadd@@YAXH@Z            0000000140121c80 f   world.obj
 0001:00120ce0       ?noentedit@@YA_NXZ         0000000140121ce0 f   world.obj
 0001:00120d20       ?var_entediting@@YAXXZ     0000000140121d20 f   world.obj
 0001:00120d50       ?entname@@YAPEADAEAUentity@@@Z 0000000140121d50 f   world.obj
 0001:00120dc0       ?findents@@YAXHH_NAEBUvec@@1AEAU?$vector@H@@@Z 0000000140121dc0 f   world.obj
 0001:001216b0       ?modifyoctaentity@@YAXHHAEAUextentity@@PEAUcube@@AEBUivec@@H22HPEAUvtxarray@@@Z 00000001401226b0 f   world.obj
 0001:00121e80       ?getentboundingbox@@YA_NAEBUextentity@@AEAUivec@@1@Z 0000000140122e80 f   world.obj
 0001:001221a0       ?entselectionbox@@YAXAEBUentity@@AEAUvec@@1@Z 00000001401231a0 f   world.obj
 0001:00122420       ?pointinsel@@YA_NAEBUselinfo@@AEBUvec@@@Z 0000000140123420 f   world.obj
 0001:001224c0       ?entcancel@@YAXXZ          00000001401234c0 f   world.obj
 0001:001224e0       ?haveselent@@YA_NXZ        00000001401234e0 f   world.obj
 0001:00122500       ?entdrag@@YAXAEBUvec@@@Z   0000000140123500 f   world.obj
 0001:00122950       ?hoveringonent@@YA_NHH@Z   0000000140123950 f   world.obj
 0001:001229e0       ?renderentselection@@YAXAEBUvec@@0_N@Z 00000001401239e0 f   world.obj
 0001:00123010       ?pasteundoents@@YAXPEAUundoblock@@@Z 0000000140124010 f   world.obj
 0001:00123130       ?copyundoents@@YAPEAUundoblock@@PEAU1@@Z 0000000140124130 f   world.obj
 0001:001232a0       ?pasteundoent@@YAXHAEBUentity@@@Z 00000001401242a0 f   world.obj
 0001:001234c0       ?freeoctaentities@@YAXAEAUcube@@@Z 00000001401244c0 f   world.obj
 0001:001235d0       ?emptymap@@YA_NH_NPEBD0@Z  00000001401245d0 f   world.obj
 0001:001238e0       ?entitiesinoctanodes@@YAXXZ 00000001401248e0 f   world.obj
 0001:00123b60       ?startmap@@YAXPEBD@Z       0000000140124b60 f   world.obj
 0001:00124110       ?writeobj@@YAXPEAD@Z       0000000140125110 f   worldio.obj
 0001:00125110       ?savemap@@YAXPEAD@Z        0000000140126110 f   worldio.obj
 0001:00125120       ?savecurrentmap@@YAXXZ     0000000140126120 f   worldio.obj
 0001:00125140       ?load_world@@YA_NPEBD0@Z   0000000140126140 f   worldio.obj
 0001:00126590       ?getmapcrc@@YAIXZ          0000000140127590 f   worldio.obj
 0001:001265a0       ?save_world@@YA_NPEBD_N@Z  00000001401275a0 f   worldio.obj
 0001:00127120       ?loadvslots@@YAXPEAUstream@@H@Z 0000000140128120 f   worldio.obj
 0001:001275b0       ?loadvslot@@YAXPEAUstream@@AEAUVSlot@@H@Z 00000001401285b0 f   worldio.obj
 0001:00127950       ?savevslots@@YAXPEAUstream@@H@Z 0000000140128950 f   worldio.obj
 0001:00127ac0       ?savevslot@@YAXPEAUstream@@AEAUVSlot@@H@Z 0000000140128ac0 f   worldio.obj
 0001:00127d70       ?loadchildren@@YAPEAUcube@@PEAUstream@@AEBUivec@@HAEA_N@Z 0000000140128d70 f   worldio.obj
 0001:00127e40       ?loadc@@YAXPEAUstream@@AEAUcube@@AEBUivec@@HAEA_N@Z 0000000140128e40 f   worldio.obj
 0001:001290e0       ?convertoldsurfaces@@YAXAEAUcube@@AEBUivec@@HPEAUsurfacecompat@@HPEAUnormalscompat@@HPEAUmergecompat@@H@Z 000000014012a0e0 f   worldio.obj
 0001:0012a1e0       ?savec@@YAXPEAUcube@@AEBUivec@@HPEAUstream@@_N@Z 000000014012b1e0 f   worldio.obj
 0001:0012ae20       ?backup@@YAXPEAD0@Z        000000014012be20 f   worldio.obj
 0001:0012aeb0       ?mapcfgname@@YAXXZ         000000014012beb0 f   worldio.obj
 0001:0012af80       ?setmapfilenames@@YAXPEBD0@Z 000000014012bf80 f   worldio.obj
 0001:0012b070       ?loadents@@YA_NPEBDAEAU?$vector@Uentity@@@@PEAI@Z 000000014012c070 f   worldio.obj
 0001:0012b750       ?getmapfilenames@@YAXPEBD0PEAD11@Z 000000014012c750 f   worldio.obj
 0001:0012b990       ?fixmapname@@YAXPEAD@Z     000000014012c990 f   worldio.obj
 0001:0012ba10       ?validmapname@@YAXPEADPEBD11_K@Z 000000014012ca10 f   worldio.obj
 0001:0012baf0       ?clearmapcrc@@YAXXZ        000000014012caf0 f   worldio.obj
 0001:0012bb00       ?gets2c@@YAXXZ             000000014012cb00 f   client.obj
 0001:0012bf00       ?clientkeepalive@@YAXXZ    000000014012cf00 f   client.obj
 0001:0012bf20       ?localservertoclient@@YAXHPEAU_ENetPacket@@@Z 000000014012cf20 f   client.obj
 0001:0012bfd0       ?neterr@@YAXPEBD_N@Z       000000014012cfd0 f   client.obj
 0001:0012c010       ?flushclient@@YAXXZ        000000014012d010 f   client.obj
 0001:0012c030       ?sendclientpacket@@YAXPEAU_ENetPacket@@H@Z 000000014012d030 f   client.obj
 0001:0012c0a0       ?run@?$_icmd_localdisconnect@$0LM@@@SAXXZ 000000014012d0a0 f   client.obj
 0001:0012c0c0       ?run@?$_icmd_localconnect@$0LL@@@SAXXZ 000000014012d0c0 f   client.obj
 0001:0012c0e0       ?run@?$_icmd_disconnect@$0LK@@@SAXPEAH@Z 000000014012d0e0 f   client.obj
 0001:0012c160       ?run@?$_icmd_lanconnect@$0LI@@@SAXPEAHPEAD@Z 000000014012d160 f   client.obj
 0001:0012c180       ?run@?$_icmd_connect@$0LH@@@SAXPEADPEAH0@Z 000000014012d180 f   client.obj
 0001:0012c190       ?trydisconnect@@YAX_N@Z    000000014012d190 f   client.obj
 0001:0012c210       ?disconnect@@YAX_N0@Z      000000014012d210 f   client.obj
 0001:0012c2e0       ?reconnect@@YAXPEBD@Z      000000014012d2e0 f   client.obj
 0001:0012c320       ?connectserv@@YAXPEBDH0@Z  000000014012d320 f   client.obj
 0001:0012c660       ?abortconnect@@YAXXZ       000000014012d660 f   client.obj
 0001:0012c6d0       ?run@?$_icmd_connectedport@$0DM@@@SAXXZ 000000014012d6d0 f   client.obj
 0001:0012c720       ?run@?$_icmd_connectedip@$0DG@@@SAXXZ 000000014012d720 f   client.obj
 0001:0012c780       ?connectedpeer@@YAPEBU_ENetAddress@@XZ 000000014012d780 f   client.obj
 0001:0012c7a0       ?run@?$_icmd_isconnected@$0CK@@@SAXPEAH0@Z 000000014012d7a0 f   client.obj
 0001:0012c800       ?throttle@@YAXXZ           000000014012d800 f   client.obj
 0001:0012c830       ?var_throttle_decel@@YAXXZ 000000014012d830 f   client.obj
 0001:0012c860       ?var_throttle_accel@@YAXXZ 000000014012d860 f   client.obj
 0001:0012c890       ?var_throttle_interval@@YAXXZ 000000014012d890 f   client.obj
 0001:0012c8c0       ?var_rate@@YAXXZ           000000014012d8c0 f   client.obj
 0001:0012c8f0       ?setrate@@YAXH@Z           000000014012d8f0 f   client.obj
 0001:0012c920       ?isconnected@@YA_N_N0@Z    000000014012d920 f   client.obj
 0001:0012c960       ?multiplayer@@YA_N_N@Z     000000014012d960 f   client.obj
 0001:0012ca60       ?serveroption@@YA_NPEAD@Z  000000014012da60 f   server.obj
 0001:0012cb50       ?stoplistenserver@@YAXXZ   000000014012db50 f   server.obj
 0001:0012cbb0       ?startlistenserver@@YAXPEAH@Z 000000014012dbb0 f   server.obj
 0001:0012cc30       ?initserver@@YAX_N0@Z      000000014012dc30 f   server.obj
 0001:0012cce0       ?setuplistenserver@@YA_N_N@Z 000000014012dce0 f   server.obj
 0001:0012cf30       ?servererror@@YA_N_NPEBD@Z 000000014012df30 f   server.obj
 0001:0012cf70       ?rundedicatedserver@@YAXXZ 000000014012df70 f   server.obj
 0001:0012d020       ?isdedicatedserver@@YA_NXZ 000000014012e020 f   server.obj
 0001:0012d030       ?logoutfv@@YAXPEBDPEAD@Z   000000014012e030 f   server.obj
 0001:0012d1b0       WinMain                    000000014012e1b0 f   server.obj
 0001:0012de10       ?flushserver@@YAX_N@Z      000000014012ee10 f   server.obj
 0001:0012de40       ?serverslice@@YAX_NI@Z     000000014012ee40 f   server.obj
 0001:0012e460       ?updatetime@@YAXXZ         000000014012f460 f   server.obj
 0001:0012e4b0       ?updatemasterserver@@YAXXZ 000000014012f4b0 f   server.obj
 0001:0012e520       ?var_serverport@@YAXXZ     000000014012f520 f   server.obj
 0001:0012e540       ?checkserversockets@@YAXXZ 000000014012f540 f   server.obj
 0001:0012e7f0       ?sendserverinforeply@@YAXAEAU?$databuf@E@@@Z 000000014012f7f0 f   server.obj
 0001:0012e830       ?flushmasterinput@@YAXXZ   000000014012f830 f   server.obj
 0001:0012ea30       ?flushmasteroutput@@YAXXZ  000000014012fa30 f   server.obj
 0001:0012eaf0       ?processmasterinput@@YAXXZ 000000014012faf0 f   server.obj
 0001:0012ec60       ?requestmasterf@@YA_NPEBDZZ 000000014012fc60 f   server.obj
 0001:0012ed80       ?requestmaster@@YA_NPEBD@Z 000000014012fd80 f   server.obj
 0001:0012ee40       ?connectmaster@@YA_K_N@Z   000000014012fe40 f   server.obj
 0001:0012f0d0       ?var_masterport@@YAXXZ     00000001401300d0 f   server.obj
 0001:0012f0e0       ?var_mastername@@YAXXZ     00000001401300e0 f   server.obj
 0001:0012f0f0       ?disconnectmaster@@YAXXZ   00000001401300f0 f   server.obj
 0001:0012f200       ?process@@YAXPEAU_ENetPacket@@HH@Z 0000000140130200 f   server.obj
 0001:0012f2a0       ?kicknonlocalclients@@YAXH@Z 00000001401302a0 f   server.obj
 0001:0012f3d0       ?disconnect_client@@YAXHH@Z 00000001401303d0 f   server.obj
 0001:0012f4e0       ?sendfile@@YAPEAU_ENetPacket@@HHPEAUstream@@PEBDZZ 00000001401304e0 f   server.obj
 0001:0012f790       ?sendf@@YAPEAU_ENetPacket@@HHPEBDZZ 0000000140130790 f   server.obj
 0001:0012fbb0       ?sendpacket@@YAXHHPEAU_ENetPacket@@H@Z 0000000140130bb0 f   server.obj
 0001:0012fd00       ?getclientip@@YAIH@Z       0000000140130d00 f   server.obj
 0001:0012fd30       ?getclientpeer@@YAPEAU_ENetPeer@@H@Z 0000000140130d30 f   server.obj
 0001:0012fd60       ?getclientinfo@@YAPEAXH@Z  0000000140130d60 f   server.obj
 0001:0012fd90       ?getservermtu@@YAHXZ       0000000140130d90 f   server.obj
 0001:0012fdb0       ?var_maxdupclients@@YAXXZ  0000000140130db0 f   server.obj
 0001:0012fde0       ?var_maxclients@@YAXXZ     0000000140130de0 f   server.obj
 0001:0012fe00       ?cleanupserver@@YAXXZ      0000000140130e00 f   server.obj
 0001:0012fe70       ?delclient@@YAXPEAUclient@@@Z 0000000140130e70 f   server.obj
 0001:0012ff00       ?addclient@@YAAEAUclient@@H@Z 0000000140130f00 f   server.obj
 0001:00130320       ?logoutf@@YAXPEBDZZ        0000000140131320 f   server.obj
 0001:001304a0       ?setlogfile@@YAXPEBD@Z     00000001401314a0 f   server.obj
 0001:00130530       ?getlogfile@@YAPEAU_iobuf@@XZ 0000000140131530 f   server.obj
 0001:00130540       ?closelogfile@@YAXXZ       0000000140131540 f   server.obj
 0001:00130570       ?hasnonlocalclients@@YA_NXZ 0000000140131570 f   server.obj
 0001:00130590       ?localdisconnect@@YAX_N@Z  0000000140131590 f   server.obj
 0001:001306d0       ?localconnect@@YAXXZ       00000001401316d0 f   server.obj
 0001:001307f0       ?localclienttoserver@@YAXHPEAU_ENetPacket@@@Z 00000001401317f0 f   server.obj
 0001:001308d0       ?disconnectreason@@YAPEBDH@Z 00000001401318d0 f   server.obj
 0001:00130970       ?haslocalclients@@YA_NXZ   0000000140131970 f   server.obj
 0001:00130df0       ?writeservercfg@@YAXXZ     0000000140131df0 f   serverbrowser.obj
 0001:001310a0       ?run@?$_icmd_clearservers@$0CLK@@@SAXPEAH@Z 00000001401320a0 f   serverbrowser.obj
 0001:001310c0       ?run@?$_icmd_keepserver@$0CLJ@@@SAXPEBDPEAH0@Z 00000001401320c0 f   serverbrowser.obj
 0001:001310e0       ?run@?$_icmd_addserver@$0CLI@@@SAXPEBDPEAH0@Z 00000001401320e0 f   serverbrowser.obj
 0001:00131100       ?initservers@@YAXXZ        0000000140132100 f   serverbrowser.obj
 0001:00131130       ?updatefrommaster@@YAXXZ   0000000140132130 f   serverbrowser.obj
 0001:001311b0       ?retrieveservers@@YAXAEAU?$vector@D@@@Z 00000001401321b0 f   serverbrowser.obj
 0001:00131440       ?clearservers@@YAX_N@Z     0000000140132440 f   serverbrowser.obj
 0001:001316a0       ?connectselected@@YAXXZ    00000001401326a0 f   serverbrowser.obj
 0001:001316e0       ?showservers@@YAPEBDPEAUg3d_gui@@PEAIHH@Z 00000001401326e0 f   serverbrowser.obj
 0001:00131a10       ?refreshservers@@YAXXZ     0000000140132a10 f   serverbrowser.obj
 0001:00131d10       ?sortservers@@YAXXZ        0000000140132d10 f   serverbrowser.obj
 0001:00131d30       ?checkpings@@YAXXZ         0000000140132d30 f   serverbrowser.obj
 0001:00132190       ?checkresolver@@YAXXZ      0000000140133190 f   serverbrowser.obj
 0001:00132390       ?pingservers@@YAXXZ        0000000140133390 f   serverbrowser.obj
 0001:00132920       ?resolvercheck@@YA_NPEAPEBDPEAU_ENetAddress@@@Z 0000000140133920 f   serverbrowser.obj
 0001:00132a10       ?resolverquery@@YAXPEBD@Z  0000000140133a10 f   serverbrowser.obj
 0001:00132a70       ?resolverclear@@YAXXZ      0000000140133a70 f   serverbrowser.obj
 0001:00132b80       ?resolverstop@@YAXAEAUresolverthread@@@Z 0000000140133b80 f   serverbrowser.obj
 0001:00132c00       ?resolverinit@@YAXXZ       0000000140133c00 f   serverbrowser.obj
 0001:00132db0       ?resolverloop@@YAHPEAX@Z   0000000140133db0 f   serverbrowser.obj
 0001:00133000       ?connectwithtimeout@@YAH_KPEBDAEBU_ENetAddress@@@Z 0000000140134000 f   serverbrowser.obj
 0001:00133190       ?addserver@@YAXPEBDH0_N@Z  0000000140134190 f   serverbrowser.obj
 0001:001332e0       ?resolverwait@@YA_NPEBDPEAU_ENetAddress@@@Z 00000001401342e0 f   serverbrowser.obj
 0001:00135170       ?consolebox@@YAXHHHH@Z     0000000140136170 f   3dgui.obj
 0001:00135420       ?g3d_render@@YAXXZ         0000000140136420 f   3dgui.obj
 0001:001359b0       ?g3d_limitscale@@YAXM@Z    00000001401369b0 f   3dgui.obj
 0001:001359c0       ?g3d_movecursor@@YA_NHH@Z  00000001401369c0 f   3dgui.obj
 0001:00135a70       ?g3d_resetcursor@@YAXXZ    0000000140136a70 f   3dgui.obj
 0001:00135a90       ?g3d_cursorpos@@YAXAEAM0@Z 0000000140136a90 f   3dgui.obj
 0001:00135ad0       ?g3d_key@@YA_NH_N@Z        0000000140136ad0 f   3dgui.obj
 0001:00136100       ?g3d_input@@YA_NPEBDH@Z    0000000140137100 f   3dgui.obj
 0001:00136160       ?run@?$_icmd_textexec@$0CPO@@@SAXPEAH@Z 0000000140137160 f   3dgui.obj
 0001:001362a0       ?run@?$_icmd_textcurrentline@$0CPI@@@SAXXZ 00000001401372a0 f   3dgui.obj
 0001:00136300       ?run@?$_icmd_textclear@$0CPH@@@SAXXZ 0000000140137300 f   3dgui.obj
 0001:00136340       ?run@?$_icmd_textselectall@$0CPG@@@SAXXZ 0000000140137340 f   3dgui.obj
 0001:00136390       ?run@?$_icmd_textmark@$0CPF@@@SAXPEAH@Z 0000000140137390 f   3dgui.obj
 0001:00136420       ?run@?$_icmd_textpaste@$0CPB@@@SAXXZ 0000000140137420 f   3dgui.obj
 0001:00136490       ?run@?$_icmd_textcopy@$0CPA@@@SAXXZ 0000000140137490 f   3dgui.obj
 0001:00136500       ?run@?$_icmd_textinit@$0COM@@@SAXPEAD00@Z 0000000140137500 f   3dgui.obj
 0001:001369f0       ?run@?$_icmd_textload@$0COC@@@SAXPEAD@Z 00000001401379f0 f   3dgui.obj
 0001:00136e50       ?run@?$_icmd_textsave@$0CNK@@@SAXPEAD@Z 0000000140137e50 f   3dgui.obj
 0001:00136f50       ?run@?$_icmd_textmode@$0CNG@@@SAXPEAH@Z 0000000140137f50 f   3dgui.obj
 0001:00136fa0       ?run@?$_icmd_textprev@$0CNC@@@SAXXZ 0000000140137fa0 f   3dgui.obj
 0001:00137040       ?run@?$_icmd_textfocus@$0CNB@@@SAXPEADPEAH@Z 0000000140138040 f   3dgui.obj
 0001:001370b0       ?run@?$_icmd_textshow@$0CMN@@@SAXXZ 00000001401380b0 f   3dgui.obj
 0001:00137140       ?run@?$_icmd_textlist@$0CMH@@@SAXXZ 0000000140138140 f   3dgui.obj
 0001:001375f0       ?g3d_windowhit@@YA_N_N0@Z  00000001401385f0 f   3dgui.obj
 0001:001376a0       ?g3d_addgui@@YAXPEAUg3d_callback@@AEAUvec@@H@Z 00000001401386a0 f   3dgui.obj
 0001:00137a30       ??1BIH@@QEAA@XZ            0000000140138a30 f   bih.obj
 0001:00137a70       ??0BIH@@QEAA@AEAU?$vector@Umesh@BIH@@@@@Z 0000000140138a70 f   bih.obj
 0001:00138b60       ?build@BIH@@QEAAXAEAUmesh@1@PEAGHAEBUivec@@2@Z 0000000140139b60 f   bih.obj
 0001:00139260       ?triintersect@BIH@@QEAA_NAEBUmesh@1@HAEBUvec@@1MAEAMH@Z 000000014013a260 f   bih.obj
 0001:00139820       ?mmintersect@@YA_NAEBUextentity@@AEBUvec@@1MHAEAM@Z 000000014013a820 f   bih.obj
 0001:00139e00       ?cleanupblobs@@YAXXZ       000000014013ae00 f   blob.obj
 0001:00139eb0       ?flushblobs@@YAXXZ         000000014013aeb0 f   blob.obj
 0001:00139fc0       ?renderblob@@YAXHAEBUvec@@MM@Z 000000014013afc0 f   blob.obj
 0001:0013a030       ?initblobs@@YAXH@Z         000000014013b030 f   blob.obj
 0001:0013a0b0       ?var_blobdyntris@@YAXXZ    000000014013b0b0 f   blob.obj
 0001:0013a0e0       ?var_blobstattris@@YAXXZ   000000014013b0e0 f   blob.obj
 0001:0013a110       ?var_blobmargin@@YAXXZ     000000014013b110 f   blob.obj
 0001:0013a130       ?var_blobfadehigh@@YAXXZ   000000014013b130 f   blob.obj
 0001:0013a150       ?var_blobfadelow@@YAXXZ    000000014013b150 f   blob.obj
 0001:0013a170       ?var_blobheight@@YAXXZ     000000014013b170 f   blob.obj
 0001:0013a190       ?var_blobintensity@@YAXXZ  000000014013b190 f   blob.obj
 0001:0013a1b0       ?resetblobs@@YAXXZ         000000014013b1b0 f   blob.obj
 0001:0013a450       ?adddecal@@YAXHAEBUvec@@0MAEBUbvec@@H@Z 000000014013b450 f   decal.obj
 0001:0013a4f0       ?renderdecals@@YAX_N@Z     000000014013b4f0 f   decal.obj
 0001:0013aac0       ?cleanupdecals@@YAXXZ      000000014013bac0 f   decal.obj
 0001:0013ab20       ?initdecals@@YAXXZ         000000014013bb20 f   decal.obj
 0001:0013ac30       ?var_maxdecaltris@@YAXXZ   000000014013bc30 f   decal.obj
 0001:0013ac40       ?cleardecals@@YAXXZ        000000014013bc40 f   decal.obj
 0001:0013ad00       ?setdynlights@@YAHPEAUvtxarray@@@Z 000000014013bd00 f   dynlight.obj
 0001:0013b000       ?calcdynlightmask@@YAXPEAUvtxarray@@@Z 000000014013c000 f   dynlight.obj
 0001:0013b140       ?dynlightreaching@@YAXAEBUvec@@AEAU1@1_N@Z 000000014013c140 f   dynlight.obj
 0001:0013b620       ?finddynlights@@YAHXZ      000000014013c620 f   dynlight.obj
 0001:0013bb40       ?updatedynlights@@YAXXZ    000000014013cb40 f   dynlight.obj
 0001:0013c200       ?removetrackeddynlights@@YAXPEAUphysent@@@Z 000000014013d200 f   dynlight.obj
 0001:0013c300       ?cleardynlights@@YAXXZ     000000014013d300 f   dynlight.obj
 0001:0013c400       ?adddynlight@@YAXAEBUvec@@M0HHHM0PEAUphysent@@@Z 000000014013d400 f   dynlight.obj
 0001:0013c8b0       ?addglare@@YAXXZ           000000014013d8b0 f   glare.obj
 0001:0013c9c0       ?drawglaretex@@YAXXZ       000000014013d9c0 f   glare.obj
 0001:0013ca20       ?viewglaretex@@YAXXZ       000000014013da20 f   glare.obj
 0001:0013ca40       ?var_glaresize@@YAXXZ      000000014013da40 f   glare.obj
 0001:0013ca50       ?cleanupglare@@YAXXZ       000000014013da50 f   glare.obj
 0001:0013d2c0       ?cleanupgrass@@YAXXZ       000000014013e2c0 f   grass.obj
 0001:0013d310       ?rendergrass@@YAXXZ        000000014013e310 f   grass.obj
 0001:0013d6b0       ?generategrass@@YAXXZ      000000014013e6b0 f   grass.obj
 0001:0013f120       ?var_grasscolour@@YAXXZ    0000000140140120 f   grass.obj
 0001:0013fce0       ?rendermaterials@@YAXXZ    0000000140140ce0 f   material.obj
 0001:001411a0       ?var_waterfallenv@@YAXXZ   00000001401421a0 f   material.obj
 0001:00142990       ?getglasscolor@@YAAEBUbvec@@H@Z 0000000140143990 f   material.obj
 0001:001429d0       ?var_glass4colour@@YAXXZ   00000001401439d0 f   material.obj
 0001:00142a10       ?var_glass3colour@@YAXXZ   0000000140143a10 f   material.obj
 0001:00142a50       ?var_glass2colour@@YAXXZ   0000000140143a50 f   material.obj
 0001:00142a90       ?var_glasscolour@@YAXXZ    0000000140143a90 f   material.obj
 0001:00142ad0       ?rendermatgrid@@YAXAEAU?$vector@PEAUmaterialsurface@@@@@Z 0000000140143ad0 f   material.obj
 0001:00142ca0       ?sortmaterials@@YAXAEAU?$vector@PEAUmaterialsurface@@@@@Z 0000000140143ca0 f   material.obj
 0001:00143310       ?var_optmats@@YAXXZ        0000000140144310 f   material.obj
 0001:00143810       ?visiblematerial@@YAHAEBUcube@@HAEBUivec@@HG@Z 0000000140144810 f   material.obj
 0001:001438d0       ?getmaterialdesc@@YAPEBDHPEBD@Z 00000001401448d0 f   material.obj
 0001:00143d20       ?findmaterialname@@YAPEBDH@Z 0000000140144d20 f   material.obj
 0001:00145090       ?optimizematsurfs@@YAHPEAUmaterialsurface@@H@Z 0000000140146090 f   material.obj
 0001:001456d0       ?genmatsurfs@@YAXAEBUcube@@AEBUivec@@HAEAU?$vector@Umaterialsurface@@@@@Z 00000001401466d0 f   material.obj
 0001:00145870       ?setupmaterials@@YAXHH@Z   0000000140146870 f   material.obj
 0001:00146650       ?findmaterial@@YAHPEBD@Z   0000000140147650 f   material.obj
 0001:00146c40       ?cleanupgl@@YAXXZ          0000000140147c40 f   rendergl.obj
 0001:00146d40       ?gl_drawhud@@YAXXZ         0000000140147d40 f   rendergl.obj
 0001:00148030       ?drawcrosshair@@YAXHH@Z    0000000140149030 f   rendergl.obj
 0001:001484b0       ?writecrosshairs@@YAXPEAUstream@@@Z 00000001401494b0 f   rendergl.obj
 0001:00148830       ?run@?$_icmd_getcrosshair@$0IDH@@@SAXPEAH@Z 0000000140149830 f   rendergl.obj
 0001:001488b0       ?loadcrosshair_@@YAXPEBDPEAH@Z 00000001401498b0 f   rendergl.obj
 0001:00148950       ?loadcrosshair@@YAXPEBDH@Z 0000000140149950 f   rendergl.obj
 0001:001489f0       ?drawdamagescreen@@YAXHH@Z 00000001401499f0 f   rendergl.obj
 0001:00148b40       ?damageblend@@YAXH@Z       0000000140149b40 f   rendergl.obj
 0001:00148ba0       ?var_damagescreen@@YAXXZ   0000000140149ba0 f   rendergl.obj
 0001:00148bc0       ?drawdamagecompass@@YAXHH@Z 0000000140149bc0 f   rendergl.obj
 0001:00148ff0       ?damagecompass@@YAXHAEBUvec@@@Z 0000000140149ff0 f   rendergl.obj
 0001:001491a0       ?gl_drawmainmenu@@YAXXZ    000000014014a1a0 f   rendergl.obj
 0001:001491f0       ?gl_drawframe@@YAXXZ       000000014014a1f0 f   rendergl.obj
 0001:00149ae0       ?addmotionblur@@YAXXZ      000000014014aae0 f   rendergl.obj
 0001:00149df0       ?var_motionblur@@YAXXZ     000000014014adf0 f   rendergl.obj
 0001:00149e50       ?cleanupmotionblur@@YAXXZ  000000014014ae50 f   rendergl.obj
 0001:00149ea0       ?drawminimap@@YAXXZ        000000014014aea0 f   rendergl.obj
 0001:0014a8a0       ?clipminimap@@YAXAEAUivec@@0PEAUcube@@AEBU1@H@Z 000000014014b8a0 f   rendergl.obj
 0001:0014a9e0       ?bindminimap@@YAXXZ        000000014014b9e0 f   rendergl.obj
 0001:0014aa00       ?var_minimapsize@@YAXXZ    000000014014ba00 f   rendergl.obj
 0001:0014aa20       ?var_minimapcolour@@YAXXZ  000000014014ba20 f   rendergl.obj
 0001:0014aa50       ?clearminimap@@YAXXZ       000000014014ba50 f   rendergl.obj
 0001:0014aa90       ?drawcubemap@@YAXHAEBUvec@@MMAEBUcubemapside@@@Z 000000014014ba90 f   rendergl.obj
 0001:0014b080       ?drawreflection@@YAXM_NHAEBUbvec@@@Z 000000014014c080 f   rendergl.obj
 0001:0014bae0       ?rendergame@@YAX_N@Z       000000014014cae0 f   rendergl.obj
 0001:0014bb10       ?drawfogoverlay@@YAXHMH@Z  000000014014cb10 f   rendergl.obj
 0001:0014c030       ?popfogdist@@YAXXZ         000000014014d030 f   rendergl.obj
 0001:0014c060       ?pushfogdist@@YAXMM@Z      000000014014d060 f   rendergl.obj
 0001:0014c0a0       ?resetfogdist@@YAXXZ       000000014014d0a0 f   rendergl.obj
 0001:0014c0c0       ?clearfogdist@@YAXXZ       000000014014d0c0 f   rendergl.obj
 0001:0014c0e0       ?setfogdist@@YAXMM@Z       000000014014d0e0 f   rendergl.obj
 0001:0014c1a0       ?popfogcolor@@YAXXZ        000000014014d1a0 f   rendergl.obj
 0001:0014c1d0       ?pushfogcolor@@YAXAEBUvec@@@Z 000000014014d1d0 f   rendergl.obj
 0001:0014c220       ?setfogcolor@@YAXAEBUvec@@@Z 000000014014d220 f   rendergl.obj
 0001:0014c790       ?var_fogcolour@@YAXXZ      000000014014d790 f   rendergl.obj
 0001:0014c7c0       ?screenquadflipped@@YAXMM@Z 000000014014d7c0 f   rendergl.obj
 0001:0014c860       ?screenquad@@YAXXZ         000000014014d860 f   rendergl.obj
 0001:0014ca60       ?calcspherescissor@@YAXAEBUvec@@MAEAM111@Z 000000014014da60 f   rendergl.obj
 0001:0014ce30       ?renderavatar@@YAXXZ       000000014014de30 f   rendergl.obj
 0001:0014cf80       ?calcavatarpos@@YA?AUvec@@AEBU1@M@Z 000000014014df80 f   rendergl.obj
 0001:0014d280       ?recomputecamera@@YAXXZ    000000014014e280 f   rendergl.obj
 0001:0014dca0       ?mousemove@@YAXHH@Z        000000014014eca0 f   rendergl.obj
 0001:0014de90       ?fixcamerarange@@YAXXZ     000000014014ee90 f   rendergl.obj
 0001:0014df00       ?isthirdperson@@YA_NXZ     000000014014ef00 f   rendergl.obj
 0001:0014df30       ?computezoom@@YAXXZ        000000014014ef30 f   rendergl.obj
 0001:0014e080       ?disablezoom@@YAXXZ        000000014014f080 f   rendergl.obj
 0001:0014e0a0       ?setcamprojmatrix@@YAX_N0@Z 000000014014f0a0 f   rendergl.obj
 0001:0014e340       ?setcammatrix@@YAXXZ       000000014014f340 f   rendergl.obj
 0001:0014e740       ?run@?$_icmd_getcampos@$0CHH@@@SAXXZ 000000014014f740 f   rendergl.obj
 0001:0014e810       ?run@?$_icmd_getcamroll@$0CHC@@@SAXXZ 000000014014f810 f   rendergl.obj
 0001:0014e840       ?run@?$_icmd_getcampitch@$0CHB@@@SAXXZ 000000014014f840 f   rendergl.obj
 0001:0014e870       ?run@?$_icmd_getcamyaw@$0CHA@@@SAXXZ 000000014014f870 f   rendergl.obj
 0001:0014e8a0       ?gl_init@@YAXXZ            000000014014f8a0 f   rendergl.obj
 0001:0014eb10       ?gl_resize@@YAXXZ          000000014014fb10 f   rendergl.obj
 0001:0014eb30       ?glext@@YAXPEAD@Z          000000014014fb30 f   rendergl.obj
 0001:0014eb60       ?gl_checkextensions@@YAXXZ 000000014014fb60 f   rendergl.obj
 0001:0014fdb0       ?hasext@@YA_NPEBD@Z        0000000140150db0 f   rendergl.obj
 0001:0014fe40       ?parseglexts@@YAXXZ        0000000140150e40 f   rendergl.obj
 0001:001500b0       ?getprocaddress@@YAPEAXPEBD@Z 00000001401510b0 f   rendergl.obj
 0001:001500c0       ?screenquad@@YAXMM@Z       00000001401510c0 f   rendergl.obj
 0001:00150110       ?hudquad@@YAXMMMMMMMM@Z    0000000140151110 f   rendergl.obj
 0001:00150350       ?drawglare@@YAXXZ          0000000140151350 f   rendergl.obj
 0001:00150480       ?zerofogcolor@@YAXXZ       0000000140151480 f   rendergl.obj
 0001:001504b0       ?resetfogcolor@@YAXXZ      00000001401514b0 f   rendergl.obj
 0001:001504d0       ?start@modelpreview@@YAXHHHH_N@Z 00000001401514d0 f   rendergl.obj
 0001:001507b0       ?end@modelpreview@@YAXXZ   00000001401517b0 f   rendergl.obj
 0001:001508a0       ?resethudmatrix@@YAXXZ     00000001401518a0 f   rendergl.obj
 0001:00150950       ?drawtextures@@YAXXZ       0000000140151950 f   rendergl.obj
 0001:00150a70       ?enablepolygonoffset@@YAXI@Z 0000000140151a70 f   rendergl.obj
 0001:00150b70       ?disablepolygonoffset@@YAXI@Z 0000000140151b70 f   rendergl.obj
 0001:00150bd0       ?invalidatepostfx@@YAXXZ   0000000140151bd0 f   rendergl.obj
 0001:00150be0       ?calcmodelpreviewpos@@YA?AUvec@@AEBU1@AEAM@Z 0000000140151be0 f   rendergl.obj
 0001:00150d10       ?pushhudmatrix@@YAXXZ      0000000140151d10 f   rendergl.obj
 0001:00150d70       ?flushhudmatrix@@YAX_N@Z   0000000140151d70 f   rendergl.obj
 0001:00150e40       ?pophudmatrix@@YAX_N0@Z    0000000140151e40 f   rendergl.obj
 0001:001524b0       ?setbbfrommodel@@YAXPEAUdynent@@PEBD@Z 00000001401534b0 f   rendermodel.obj
 0001:001525d0       ?renderclient@@YAXPEAUdynent@@PEBDPEAUmodelattach@@HHHHHM_N@Z 00000001401535d0 f   rendermodel.obj
 0001:00152980       ?loadskin@@YAXPEBD0AEAPEAUTexture@@1@Z 0000000140153980 f   rendermodel.obj
 0001:00152eb0       ?run@?$_icmd_findanims@$0DPM@@@SAXPEAD@Z 0000000140153eb0 f   rendermodel.obj
 0001:001531b0       ?findanims@@YAXPEBDAEAU?$vector@H@@@Z 00000001401541b0 f   rendermodel.obj
 0001:001532c0       ?matchanim@@YA_NPEBD0@Z    00000001401542c0 f   rendermodel.obj
 0001:00153390       ?abovemodel@@YAXAEAUvec@@PEBD@Z 0000000140154390 f   rendermodel.obj
 0001:00153ab0       ?endmodelquery@@YAXXZ      0000000140154ab0 f   rendermodel.obj
 0001:00153c50       ?startmodelquery@@YAXPEAUoccludequery@@@Z 0000000140154c50 f   rendermodel.obj
 0001:00153c60       ?endmodelbatches@@YAXXZ    0000000140154c60 f   rendermodel.obj
 0001:00154280       ?renderbatchedmodel@@YAXPEAUmodel@@AEAUbatchedmodel@@@Z 0000000140155280 f   rendermodel.obj
 0001:001543f0       ?addbatchedmodel@@YAAEAUmodelbatch@@PEAUmodel@@@Z 00000001401553f0 f   rendermodel.obj
 0001:00154590       ?startmodelbatches@@YAXXZ  0000000140155590 f   rendermodel.obj
 0001:001545b0       ?renderellipse@@YAXAEAUvec@@MMM@Z 00000001401555b0 f   rendermodel.obj
 0001:00154900       ?render3dbox@@YAXAEAUvec@@MMMM@Z 0000000140155900 f   rendermodel.obj
 0001:00154a70       ?render2dbox@@YAXAEAUvec@@MMM@Z 0000000140155a70 f   rendermodel.obj
 0001:00154be0       ?modeloccluded@@YA_NAEBUvec@@M@Z 0000000140155be0 f   rendermodel.obj
 0001:00154ca0       ?clearmodel@@YAXPEAD@Z     0000000140155ca0 f   rendermodel.obj
 0001:00154e90       ?cleanupmodels@@YAXXZ      0000000140155e90 f   rendermodel.obj
 0001:00154f00       ?clear_mdls@@YAXXZ         0000000140155f00 f   rendermodel.obj
 0001:00154f80       ?preloadmodelshaders@@YAX_N@Z 0000000140155f80 f   rendermodel.obj
 0001:00155010       ?preloadmodel@@YAXPEBD@Z   0000000140156010 f   rendermodel.obj
 0001:00155060       ?run@?$_icmd_nummapmodels@$0BGA@@@SAXXZ 0000000140156060 f   rendermodel.obj
 0001:00155080       ?run@?$_icmd_mapmodelname@$0BFP@@@SAXPEAH@Z 0000000140156080 f   rendermodel.obj
 0001:001550d0       ?mapmodelname@@YAPEBDH@Z   00000001401560d0 f   rendermodel.obj
 0001:00155100       ?getmminfo@@YAPEAUmapmodelinfo@@H@Z 0000000140156100 f   rendermodel.obj
 0001:00155130       ?mapmodelreset@@YAXPEAH@Z  0000000140156130 f   rendermodel.obj
 0001:00155180       ?mapmodelcompat@@YAXPEAH00PEAD1@Z 0000000140156180 f   rendermodel.obj
 0001:00155190       ?mmodel@@YAXPEAD@Z         0000000140156190 f   rendermodel.obj
 0001:001552e0       ?rdanimjoints@@YAXPEAH@Z   00000001401562e0 f   rendermodel.obj
 0001:001553e0       ?rdlimitrot@@YAXPEAH0PEAM1111@Z 00000001401563e0 f   rendermodel.obj
 0001:00155650       ?rdlimitdist@@YAXPEAH0PEAM1@Z 0000000140156650 f   rendermodel.obj
 0001:00155840       ?rdjoint@@YAXPEAH0000@Z    0000000140156840 f   rendermodel.obj
 0001:00155a60       ?rdtri@@YAXPEAH00@Z        0000000140156a60 f   rendermodel.obj
 0001:00155c40       ?rdeye@@YAXPEAH@Z          0000000140156c40 f   rendermodel.obj
 0001:00155d40       ?rdvert@@YAXPEAM000@Z      0000000140156d40 f   rendermodel.obj
 0001:00155f60       ?mdlname@@YAXXZ            0000000140156f60 f   rendermodel.obj
 0001:00155fb0       ?mdlextendbb@@YAXPEAM00@Z  0000000140156fb0 f   rendermodel.obj
 0001:00155ff0       ?mdlbb@@YAXPEAM00@Z        0000000140156ff0 f   rendermodel.obj
 0001:00156030       ?mdlshadow@@YAXPEAH@Z      0000000140157030 f   rendermodel.obj
 0001:00156060       ?mdlpitch@@YAXPEAM@Z       0000000140157060 f   rendermodel.obj
 0001:00156090       ?mdlyaw@@YAXPEAM@Z         0000000140157090 f   rendermodel.obj
 0001:001560c0       ?mdltrans@@YAXPEAM00@Z     00000001401570c0 f   rendermodel.obj
 0001:00156100       ?mdlscale@@YAXPEAH@Z       0000000140157100 f   rendermodel.obj
 0001:00156150       ?mdlspin@@YAXPEAM0@Z       0000000140157150 f   rendermodel.obj
 0001:00156180       ?mdlshader@@YAXPEAD@Z      0000000140157180 f   rendermodel.obj
 0001:001561e0       ?mdlfullbright@@YAXPEAM@Z  00000001401571e0 f   rendermodel.obj
 0001:00156220       ?mdlenvmap@@YAXPEAM0PEAD@Z 0000000140157220 f   rendermodel.obj
 0001:001562a0       ?mdlglare@@YAXPEAM0@Z      00000001401572a0 f   rendermodel.obj
 0001:001562e0       ?mdlglow@@YAXPEAH0PEAM@Z   00000001401572e0 f   rendermodel.obj
 0001:00156370       ?mdldepthoffset@@YAXPEAH@Z 0000000140157370 f   rendermodel.obj
 0001:001563a0       ?mdlalphadepth@@YAXPEAH@Z  00000001401573a0 f   rendermodel.obj
 0001:001563d0       ?mdlalphablend@@YAXPEAH@Z  00000001401573d0 f   rendermodel.obj
 0001:00156410       ?mdlalphatest@@YAXPEAM@Z   0000000140157410 f   rendermodel.obj
 0001:00156450       ?mdlambient@@YAXPEAH@Z     0000000140157450 f   rendermodel.obj
 0001:001564b0       ?mdlspec@@YAXPEAH@Z        00000001401574b0 f   rendermodel.obj
 0001:00156510       ?mdlellipsecollide@@YAXPEAH@Z 0000000140157510 f   rendermodel.obj
 0001:00156540       ?mdlcollide@@YAXPEAH@Z     0000000140157540 f   rendermodel.obj
 0001:00156570       ?mdlcullface@@YAXPEAH@Z    0000000140157570 f   rendermodel.obj
 0001:00156920       ?var_bumpmodels@@YAXXZ     0000000140157920 f   rendermodel.obj
 0001:00156930       ?var_envmapmodels@@YAXXZ   0000000140157930 f   rendermodel.obj
 0001:00156940       ?cleanragdoll@@YAXPEAUdynent@@@Z 0000000140157940 f   rendermodel.obj
 0001:00156980       ?moveragdoll@@YAXPEAUdynent@@@Z 0000000140157980 f   rendermodel.obj
 0001:00156b60       ?move@ragdolldata@@QEAAXPEAUdynent@@M@Z 0000000140157b60 f   rendermodel.obj
 0001:00157480       ?constrain@ragdolldata@@QEAAXXZ 0000000140158480 f   rendermodel.obj
 0001:001574e0       ?updatepos@ragdolldata@@QEAAXXZ 00000001401584e0 f   rendermodel.obj
 0001:001579c0       ?tryunstick@ragdolldata@@QEAAXM@Z 00000001401589c0 f   rendermodel.obj
 0001:00157e50       ?applyrotfriction@ragdolldata@@QEAAXM@Z 0000000140158e50 f   rendermodel.obj
 0001:001584a0       ?calcrotfriction@ragdolldata@@QEAAXXZ 00000001401594a0 f   rendermodel.obj
 0001:001586b0       ?constrainrot@ragdolldata@@QEAAXXZ 00000001401596b0 f   rendermodel.obj
 0001:00158bb0       ?constraindist@ragdolldata@@QEAAXXZ 0000000140159bb0 f   rendermodel.obj
 0001:00158df0       ?rendermodel@@YAXPEAUentitylight@@PEBDHAEBUvec@@MMHPEAUdynent@@PEAUmodelattach@@HHM@Z 0000000140159df0 f   rendermodel.obj
 0001:00159ba0       ?flushpreloadedmodels@@YAX_N@Z 000000014015aba0 f   rendermodel.obj
 0001:00159c80       ?preloadusedmapmodels@@YAX_N0@Z 000000014015ac80 f   rendermodel.obj
 0001:00159f10       ?loadmodel@@YAPEAUmodel@@PEBDH_N@Z 000000014015af10 f   rendermodel.obj
 0001:0015ab40       ?updateparticles@@YAXXZ    000000014015bb40 f   renderparticles.obj
 0001:0015bbb0       ?regular_particle_flame@@YAXHAEBUvec@@MMHHMMMH@Z 000000014015cbb0 f   renderparticles.obj
 0001:0015beb0       ?regularshape@@YAXHHHHHHAEBUvec@@MHH@Z 000000014015ceb0 f   renderparticles.obj
 0001:0015cb10       ?particle_fireball@@YAXAEBUvec@@MHHHM@Z 000000014015db10 f   renderparticles.obj
 0001:0015cc30       ?particle_flare@@YAXAEBUvec@@0HHHMPEAUphysent@@@Z 000000014015dc30 f   renderparticles.obj
 0001:0015cc90       ?particle_meter@@YAXAEBUvec@@MHHHHM@Z 000000014015dc90 f   renderparticles.obj
 0001:0015cde0       ?particle_icon@@YAXAEBUvec@@HHHHHMH@Z 000000014015dde0 f   renderparticles.obj
 0001:0015cef0       ?particle_textcopy@@YAXAEBUvec@@PEBDHHHMH@Z 000000014015def0 f   renderparticles.obj
 0001:0015d060       ?particle_text@@YAXAEBUvec@@PEBDHHHMH@Z 000000014015e060 f   renderparticles.obj
 0001:0015d1c0       ?particle_trail@@YAXHHAEBUvec@@0HMH@Z 000000014015e1c0 f   renderparticles.obj
 0001:0015d4a0       ?particle_splash@@YAXHHHAEBUvec@@HMHH@Z 000000014015e4a0 f   renderparticles.obj
 0001:0015d4f0       ?regular_particle_splash@@YAXHHHAEBUvec@@HMHHH@Z 000000014015e4f0 f   renderparticles.obj
 0001:0015d580       ?canaddparticles@@YA_NXZ   000000014015e580 f   renderparticles.obj
 0001:0015d9a0       ?removetrackedparticles@@YAXPEAUphysent@@@Z 000000014015e9a0 f   renderparticles.obj
 0001:0015d9f0       ?cleanupparticles@@YAXXZ   000000014015e9f0 f   renderparticles.obj
 0001:0015da30       ?initparticles@@YAXXZ      000000014015ea30 f   renderparticles.obj
 0001:0015db00       ?var_fewparticles@@YAXXZ   000000014015eb00 f   renderparticles.obj
 0001:0015db10       ?var_maxparticles@@YAXXZ   000000014015eb10 f   renderparticles.obj
 0001:0015e660       ?cleanup@sphere@@YAXXZ     000000014015f660 f   renderparticles.obj
 0001:0015e6c0       ?disable@sphere@@YAXXZ     000000014015f6c0 f   renderparticles.obj
 0001:0015e700       ?draw@sphere@@YAXXZ        000000014015f700 f   renderparticles.obj
 0001:0015e760       ?enable@sphere@@YAXXZ      000000014015f760 f   renderparticles.obj
 0001:0015e850       ?init@sphere@@YAXHH@Z      000000014015f850 f   renderparticles.obj
 0001:0015ec90       ?binddepthfxparams@@YAXMM_NPEAX@Z 000000014015fc90 f   renderparticles.obj
 0001:0015ef40       ?binddepthfxtex@@YA_NXZ    000000014015ff40 f   renderparticles.obj
 0001:0015efb0       ?cleanupdepthfx@@YAXXZ     000000014015ffb0 f   renderparticles.obj
 0001:0015f0a0       ?var_depthfxsize@@YAXXZ    00000001401600a0 f   renderparticles.obj
 0001:0015f0b0       ?var_fpdepthfx@@YAXXZ      00000001401600b0 f   renderparticles.obj
 0001:0015f780       ?addparticleemitters@@YAXXZ 0000000140160780 f   renderparticles.obj
 0001:0015f980       ?finddepthfxranges@@YAXXZ  0000000140160980 f   renderparticles.obj
 0001:0015fd60       ?renderparticles@@YAX_N@Z  0000000140160d60 f   renderparticles.obj
 0001:001601f0       ?drawdepthfxtex@@YAXXZ     00000001401611f0 f   renderparticles.obj
 0001:00160250       ?viewdepthfxtex@@YAXXZ     0000000140161250 f   renderparticles.obj
 0001:00160270       ?debugparticles@@YAXXZ     0000000140161270 f   renderparticles.obj
 0001:00160480       ?clearparticleemitters@@YAXXZ 0000000140161480 f   renderparticles.obj
 0001:001604a0       ?printparticles@@YA_NAEAUextentity@@PEADH@Z 00000001401614a0 f   renderparticles.obj
 0001:00160640       ?clearparticles@@YAXXZ     0000000140161640 f   renderparticles.obj
 0001:00160690       ?seedparticles@@YAXXZ      0000000140161690 f   renderparticles.obj
 0001:00161650       ?drawskyoutline@@YAXXZ     0000000140162650 f   rendersky.obj
 0001:00161790       ?drawskylimits@@YA_N_N@Z   0000000140162790 f   rendersky.obj
 0001:00161820       ?cleanupsky@@YAXXZ         0000000140162820 f   rendersky.obj
 0001:00161880       ?draw@fogdome@@YAXXZ       0000000140162880 f   rendersky.obj
 0001:00161b20       ?cleanup@fogdome@@YAXXZ    0000000140162b20 f   rendersky.obj
 0001:00161b80       ?init@fogdome@@YAXAEBUbvec@@MMMMHH@Z 0000000140162b80 f   rendersky.obj
 0001:001629d0       ?sortcap@fogdome@@YAHGG@Z  00000001401639d0 f   rendersky.obj
 0001:00162a30       ?subdivide@fogdome@@YAXHH@Z 0000000140163a30 f   rendersky.obj
 0001:00162e10       ?genface@fogdome@@YAXHHHH@Z 0000000140163e10 f   rendersky.obj
 0001:00162e50       ?var_fogdomecolour@@YAXXZ  0000000140163e50 f   rendersky.obj
 0001:00162e80       ?drawenvoverlay@@YAXHPEAUTexture@@MM@Z 0000000140163e80 f   rendersky.obj
 0001:001633c0       ?drawenvbox@@YAXHMMHPEAPEAUTexture@@@Z 00000001401643c0 f   rendersky.obj
 0001:00163880       ?drawenvboxface@@YAXMMHHHMMHHHMMHHHMMHHHPEAUTexture@@@Z 0000000140164880 f   rendersky.obj
 0001:00163ba0       ?var_cloudlayer@@YAXXZ     0000000140164ba0 f   rendersky.obj
 0001:00163d20       ?var_cloudbox@@YAXXZ       0000000140164d20 f   rendersky.obj
 0001:00163d40       ?var_skybox@@YAXXZ         0000000140164d40 f   rendersky.obj
 0001:00163d60       ?loadskyoverlay@@YAPEAUTexture@@PEBD@Z 0000000140164d60 f   rendersky.obj
 0001:00163ec0       ?loadsky@@YAXPEBDQEAPEAUTexture@@@Z 0000000140164ec0 f   rendersky.obj
 0001:00164180       ?drawskybox@@YAXH_N@Z      0000000140165180 f   rendersky.obj
 0001:00164ed0       ?limitsky@@YA_NXZ          0000000140165ed0 f   rendersky.obj
 0001:001651b0       ?reloadfonts@@YAXXZ        00000001401661b0 f   rendertext.obj
 0001:00165ad0       ?tabify@@YAXPEBDPEAH@Z     0000000140166ad0 f   rendertext.obj
 0001:00165c00       ?popfont@@YA_NXZ           0000000140166c00 f   rendertext.obj
 0001:00165c40       ?pushfont@@YAXXZ           0000000140166c40 f   rendertext.obj
 0001:00165d30       ?setfont@@YA_NPEBD@Z       0000000140166d30 f   rendertext.obj
 0001:00165d70       ?fontalias@@YAXPEBD0@Z     0000000140166d70 f   rendertext.obj
 0001:00165f60       ?fontskip@@YAXPEAH@Z       0000000140166f60 f   rendertext.obj
 0001:00166010       ?fontchar@@YAXPEAH000000@Z 0000000140167010 f   rendertext.obj
 0001:00166110       ?fonttex@@YAXPEAD@Z        0000000140167110 f   rendertext.obj
 0001:001661c0       ?fontscale@@YAXPEAH@Z      00000001401671c0 f   rendertext.obj
 0001:001661e0       ?fontoffset@@YAXPEAD@Z     00000001401671e0 f   rendertext.obj
 0001:00166200       ?newfont@@YAXPEAD0PEAH1@Z  0000000140167200 f   rendertext.obj
 0001:00166360       ?gettextres@@YAXAEAH0@Z    0000000140167360 f   rendertext.obj
 0001:001663c0       ?draw_textf@@YAXPEBDHHZZ   00000001401673c0 f   rendertext.obj
 0001:00166470       ?text_posf@@YAXPEBDHAEAM1H@Z 0000000140167470 f   rendertext.obj
 0001:00166760       ?text_visible@@YAHPEBDMMH@Z 0000000140167760 f   rendertext.obj
 0001:00166a60       ?text_boundsf@@YAXPEBDAEAM1H@Z 0000000140167a60 f   rendertext.obj
 0001:00166ce0       ?draw_text@@YAXPEBDHHHHHHHH@Z 0000000140167ce0 f   rendertext.obj
 0001:00167540       ?text_widthf@@YAMPEBD@Z    0000000140168540 f   rendertext.obj
 0001:00167a80       ?renderreflectedskyvas@@YAXAEAU?$vector@PEAUvtxarray@@@@H@Z 0000000140168a80 f   renderva.obj
 0001:00167bf0       ?renderskyva@@YAXPEAUvtxarray@@_N@Z 0000000140168bf0 f   renderva.obj
 0001:00167d60       ?findreflectedvas@@YAXAEAU?$vector@PEAUvtxarray@@@@H@Z 0000000140168d60 f   renderva.obj
 0001:001680c0       ?cleanupgeom@@YAXAEAUrenderstate@@@Z 00000001401690c0 f   renderva.obj
 0001:00168140       ?setupgeom@@YAXAEAUrenderstate@@@Z 0000000140169140 f   renderva.obj
 0001:001683c0       ?setupcaustics@@YAXM@Z     00000001401693c0 f   renderva.obj
 0001:00168870       ?var_caustics@@YAXXZ       0000000140169870 f   renderva.obj
 0001:00168880       ?cleanupva@@YAXXZ          0000000140169880 f   renderva.obj
 0001:001689c0       ?renderva@@YAXAEAUrenderstate@@PEAUvtxarray@@H_N2@Z 00000001401699c0 f   renderva.obj
 0001:00168e40       ?renderfoggedvas@@YAXAEAUrenderstate@@_N@Z 0000000140169e40 f   renderva.obj
 0001:00169060       ?renderzpass@@YAXAEAUrenderstate@@PEAUvtxarray@@@Z 000000014016a060 f   renderva.obj
 0001:0016aaa0       ?rendershadowmapreceivers@@YAXXZ 000000014016baa0 f   renderva.obj
 0001:0016af00       ?rendermapmodel@@YAXAEAUextentity@@@Z 000000014016bf00 f   renderva.obj
 0001:0016aff0       ?findvisiblemms@@YAXAEBU?$vector@PEAUextentity@@@@_N@Z 000000014016bff0 f   renderva.obj
 0001:0016b610       ?clearqueries@@YAXXZ       000000014016c610 f   renderva.obj
 0001:0016b6b0       ?flipqueries@@YAXXZ        000000014016c6b0 f   renderva.obj
 0001:0016b7a0       ?restorevfcP@@YAXXZ        000000014016c7a0 f   renderva.obj
 0001:0016b800       ?savevfcP@@YAXXZ           000000014016c800 f   renderva.obj
 0001:0016b850       ?setvfcP@@YAXMAEBUvec@@0@Z 000000014016c850 f   renderva.obj
 0001:0016bd90       ?calcvfcD@@YAXXZ           000000014016cd90 f   renderva.obj
 0001:0016be60       ?findvisiblevas@@YAXAEAU?$vector@PEAUvtxarray@@@@_N@Z 000000014016ce60 f   renderva.obj
 0001:0016c150       ?sortvisiblevas@@YAXXZ     000000014016d150 f   renderva.obj
 0001:0016c480       ?addvisibleva@@YAXPEAUvtxarray@@@Z 000000014016d480 f   renderva.obj
 0001:0016c520       ?vadist@@YAMPEAUvtxarray@@AEBUvec@@@Z 000000014016d520 f   renderva.obj
 0001:0016c540       ?isvisiblecube@@YAHAEBUivec@@H@Z 000000014016d540 f   renderva.obj
 0001:0016c8b0       ?rendersky@@YA_N_N@Z       000000014016d8b0 f   renderva.obj
 0001:0016ca50       ?renderdepthobstacles@@YAXAEBUvec@@0MPEAMH@Z 000000014016da50 f   renderva.obj
 0001:0016d450       ?bboccluded@@YA_NAEBUivec@@0@Z 000000014016e450 f   renderva.obj
 0001:0016d680       ?endquery@@YAXPEAUoccludequery@@@Z 000000014016e680 f   renderva.obj
 0001:0016d6a0       ?startquery@@YAXPEAUoccludequery@@@Z 000000014016e6a0 f   renderva.obj
 0001:0016d6c0       ?startbb@@YAX_N@Z          000000014016e6c0 f   renderva.obj
 0001:0016d800       ?newquery@@YAPEAUoccludequery@@PEAX@Z 000000014016e800 f   renderva.obj
 0001:0016d890       ?drawbb@@YAXAEBUivec@@0@Z  000000014016e890 f   renderva.obj
 0001:0016dd10       ?endbb@@YAX_N@Z            000000014016ed10 f   renderva.obj
 0001:0016dd70       ?checkquery@@YA_NPEAUoccludequery@@_N@Z 000000014016ed70 f   renderva.obj
 0001:0016dde0       ?rendergeom@@YAXM_N@Z      000000014016ede0 f   renderva.obj
 0001:0016f0c0       ?renderreflectedmapmodels@@YAXXZ 00000001401700c0 f   renderva.obj
 0001:0016f3d0       ?renderalphageom@@YAX_N@Z  00000001401703d0 f   renderva.obj
 0001:0016f990       ?renderreflectedgeom@@YAX_N0@Z 0000000140170990 f   renderva.obj
 0001:0016f9e0       ?visiblecubes@@YAX_N@Z     00000001401709e0 f   renderva.obj
 0001:0016fb30       ?rendermapmodels@@YAXXZ    0000000140170b30 f   renderva.obj
 0001:0016ff70       ?renderoutline@@YAXXZ      0000000140170f70 f   renderva.obj
 0001:001702c0       ?getnumqueries@@YAHXZ      00000001401712c0 f   renderva.obj
 0001:001702e0       ?loadcaustics@@YAX_N@Z     00000001401712e0 f   renderva.obj
 0001:001703c0       ?isfoggedsphere@@YA_NMAEBUvec@@@Z 00000001401713c0 f   renderva.obj
 0001:001704a0       ?resetqueries@@YAXXZ       00000001401714a0 f   renderva.obj
 0001:00170510       ?isvisiblesphere@@YAHMAEBUvec@@@Z 0000000140171510 f   renderva.obj
 0001:001705e0       ?renderblendbrush@@YAXIMMMM@Z 00000001401715e0 f   renderva.obj
 0001:00170e20       ?reloadshaders@@YAXXZ      0000000140171e20 f   shader.obj
 0001:00171000       ?cleanupshaders@@YAXXZ     0000000140172000 f   shader.obj
 0001:00171140       ?run@?$_icmd_setpostfx@$0FKA@@@SAXPEADPEAM111@Z 0000000140172140 f   shader.obj
 0001:001711e0       ?run@?$_icmd_addpostfx@$0FJK@@@SAXPEADPEAH10PEAM222@Z 00000001401721e0 f   shader.obj
 0001:00171320       ?clearpostfx@@YAXXZ        0000000140172320 f   shader.obj
 0001:001715a0       ?cleanuppostfx@@YAX_N@Z    00000001401725a0 f   shader.obj
 0001:001718a0       ?run@?$_icmd_defuniformparam@$0EOK@@@SAXPEADPEAM111@Z 00000001401728a0 f   shader.obj
 0001:001718d0       ?run@?$_icmd_setshaderparam@$0EOJ@@@SAXPEADPEAM111@Z 00000001401728d0 f   shader.obj
 0001:00171900       ?run@?$_icmd_setuniformparam@$0EOI@@@SAXPEADPEAM111@Z 0000000140172900 f   shader.obj
 0001:00171930       ?addslotparam@@YAXPEBDMMMM@Z 0000000140172930 f   shader.obj
 0001:00171a40       ?run@?$_icmd_isshaderdefined@$0EMK@@@SAXPEAD@Z 0000000140172a40 f   shader.obj
 0001:00171a90       ?run@?$_icmd_forceshader@$0EMI@@@SAXPEBD@Z 0000000140172a90 f   shader.obj
 0001:00171ae0       ?fastshader@@YAXPEAD0PEAH@Z 0000000140172ae0 f   shader.obj
 0001:00171c20       ?altshader@@YAXPEAD0@Z     0000000140172c20 f   shader.obj
 0001:00171d10       ?linkvslotshader@@YAXAEAUVSlot@@_N@Z 0000000140172d10 f   shader.obj
 0001:00171ee0       ?linkslotshader@@YAXAEAUSlot@@_N@Z 0000000140172ee0 f   shader.obj
 0001:00172030       ?setslotshader@@YAXAEAUSlot@@@Z 0000000140173030 f   shader.obj
 0001:001720f0       ?resetslotshader@@YAXXZ    00000001401730f0 f   shader.obj
 0001:00172120       ?setshader@@YAXPEAD@Z      0000000140173120 f   shader.obj
 0001:00172180       ?variantshader@@YAXPEAHPEAD011@Z 0000000140173180 f   shader.obj
 0001:00172520       ?shader@@YAXPEAHPEAD11@Z   0000000140173520 f   shader.obj
 0001:00172880       ?fixdetailshader@Shader@@QEAAX_N0@Z 0000000140173880 f   shader.obj
 0001:00172a40       ?var_shaderdetail@@YAXXZ   0000000140173a40 f   shader.obj
 0001:00172b10       ?fixshaderdetail@@YAXXZ    0000000140173b10 f   shader.obj
 0001:00172be0       ?force@Shader@@QEAAXXZ     0000000140173be0 f   shader.obj
 0001:00172ce0       ?defershader@@YAXPEAHPEBD1@Z 0000000140173ce0 f   shader.obj
 0001:00175440       ?newshader@@YAPEAUShader@@HPEBD00PEAU1@H@Z 0000000140176440 f   shader.obj
 0001:00176140       ?cleanup@Shader@@QEAAX_N@Z 0000000140177140 f   shader.obj
 0001:001762b0       ?compile@Shader@@QEAA_NXZ  00000001401772b0 f   shader.obj
 0001:001777f0       ?loadshaders@@YAXXZ        00000001401787f0 f   shader.obj
 0001:00177a30       ?setslotparams@Shader@@QEAAXAEAUSlot@@AEAUVSlot@@@Z 0000000140178a30 f   shader.obj
 0001:001781b0       ?generateshader@@YAPEAUShader@@PEBD0ZZ 00000001401791b0 f   shader.obj
 0001:001782b0       ?uniformlocversion@Shader@@SAHXZ 00000001401792b0 f   shader.obj
 0001:00178350       ?setupshaders@@YAXXZ       0000000140179350 f   shader.obj
 0001:00178490       ?renderpostfx@@YAXXZ       0000000140179490 f   shader.obj
 0001:00178e30       ?getlocalparam@@YAHPEBD@Z  0000000140179e30 f   shader.obj
 0001:00178ee0       ?setupblurkernel@@YAXHMPEAM0@Z 0000000140179ee0 f   shader.obj
 0001:00179480       ?setblurshader@@YAXHHHPEAM0@Z 000000014017a480 f   shader.obj
 0001:00179750       ?minimizedynlighttcusage@@YA_NXZ 000000014017a750 f   shader.obj
 0001:00179780       ?allocparams@Shader@@QEAAXPEAUSlot@@@Z 000000014017a780 f   shader.obj
 0001:001799b0       ?bindprograms@Shader@@QEAAXXZ 000000014017a9b0 f   shader.obj
 0001:001799f0       ?useshaderbyname@@YAPEAUShader@@PEBD@Z 000000014017a9f0 f   shader.obj
 0001:00179a40       ?resetversions@GlobalShaderParamState@@QEAAXXZ 000000014017aa40 f   shader.obj
 0001:00179bc0       ?getglobalparam@@YAPEAUGlobalShaderParamState@@PEBD@Z 000000014017abc0 f   shader.obj
 0001:00179cb0       ?lookupshaderbyname@@YAPEAUShader@@PEBD@Z 000000014017acb0 f   shader.obj
 0001:00179ce0       ?getshaderparamname@@YAPEBDPEBD_N@Z 000000014017ace0 f   shader.obj
 0001:00179ea0       ?calcshadowmapbb@@YAXAEBUvec@@MMAEAM111@Z 000000014017aea0 f   shadowmap.obj
 0001:0017a110       ?cleanshadowmap@@YAXXZ     000000014017b110 f   shadowmap.obj
 0001:0017a200       ?var_shadowmapangle@@YAXXZ 000000014017b200 f   shadowmap.obj
 0001:0017a260       ?setshadowdir@@YAXH@Z      000000014017b260 f   shadowmap.obj
 0001:0017a2c0       ?var_shadowmapambient@@YAXXZ 000000014017b2c0 f   shadowmap.obj
 0001:0017a310       ?var_shadowmapprecision@@YAXXZ 000000014017b310 f   shadowmap.obj
 0001:0017a320       ?var_fpshadowmap@@YAXXZ    000000014017b320 f   shadowmap.obj
 0001:0017a330       ?var_shadowmapsize@@YAXXZ  000000014017b330 f   shadowmap.obj
 0001:0017a340       ?isshadowmapreceiver@@YA_NPEAUvtxarray@@@Z 000000014017b340 f   shadowmap.obj
 0001:0017a650       ?rendershadowmap@@YAXXZ    000000014017b650 f   shadowmap.obj
 0001:0017a6b0       ?pushshadowmap@@YAXXZ      000000014017b6b0 f   shadowmap.obj
 0001:0017aa20       ?popshadowmap@@YAXXZ       000000014017ba20 f   shadowmap.obj
 0001:0017aa30       ?isshadowmapcaster@@YA_NAEBUvec@@M@Z 000000014017ba30 f   shadowmap.obj
 0001:0017ab50       ?addshadowmapcaster@@YA_NAEBUvec@@MM@Z 000000014017bb50 f   shadowmap.obj
 0001:0017ac30       ?viewshadowmap@@YAXXZ      000000014017bc30 f   shadowmap.obj
 0001:0017ac50       ?guessshadowdir@@YAXXZ     000000014017bc50 f   shadowmap.obj
 0001:0017eaf0       ?mergenormalmaps@@YAXPEAD0@Z 000000014017faf0 f   texture.obj
 0001:0017efe0       ?flipnormalmapy@@YAXPEAD0@Z 000000014017ffe0 f   texture.obj
 0001:0017f270       ?screenshot@@YAXPEAD@Z     0000000140180270 f   texture.obj
 0001:0017f600       ?saveimage@@YAXPEBDHAEAUImageData@@_N@Z 0000000140180600 f   texture.obj
 0001:0017f810       ?guessimageformat@@YAHPEBDH@Z 0000000140180810 f   texture.obj
 0001:0017f8c0       ?savetga@@YAXPEBDAEAUImageData@@_N@Z 00000001401808c0 f   texture.obj
 0001:0017fc10       ?writepngchunk@@YAXPEAUstream@@PEBDPEAEI@Z 0000000140180c10 f   texture.obj
 0001:0017fce0       ?gendds@@YAXPEAD0@Z        0000000140180ce0 f   texture.obj
 0001:001803a0       ?loaddds@@YA_NPEBDAEAUImageData@@H@Z 00000001401813a0 f   texture.obj
 0001:00181e60       ?reloadtextures@@YAXXZ     0000000140182e60 f   texture.obj
 0001:00181f20       ?reloadtex@@YAXPEAD@Z      0000000140182f20 f   texture.obj
 0001:001820c0       ?reloadtexture@@YA_NPEBD@Z 00000001401830c0 f   texture.obj
 0001:001821b0       ?cleanuptextures@@YAXXZ    00000001401831b0 f   texture.obj
 0001:001828d0       ?cleanuptexture@@YAXPEAUTexture@@@Z 00000001401838d0 f   texture.obj
 0001:001829f0       ?genenvmap@@YAIAEBUvec@@HH@Z 00000001401839f0 f   texture.obj
 0001:00182d70       ?clearenvmaps@@YAXXZ       0000000140183d70 f   texture.obj
 0001:00182e00       ?cubemaploadwildcard@@YAPEAUTexture@@PEAU1@PEBD_N22@Z 0000000140183e00 f   texture.obj
 0001:001838b0       ?var_envmapsize@@YAXXZ     00000001401848b0 f   texture.obj
 0001:001838c0       ?forcecubemapload@@YAXI@Z  00000001401848c0 f   texture.obj
 0001:00185850       ?texcolor@@YAXPEAM00@Z     0000000140186850 f   texture.obj
 0001:001858d0       ?texalpha@@YAXPEAM0@Z      00000001401868d0 f   texture.obj
 0001:00185940       ?texlayer@@YAXPEAHPEAD0PEAM@Z 0000000140186940 f   texture.obj
 0001:00185a10       ?texscale@@YAXPEAM@Z       0000000140186a10 f   texture.obj
 0001:00185a70       ?texrotate_@@YAXPEAH@Z     0000000140186a70 f   texture.obj
 0001:00185ac0       ?texoffset_@@YAXPEAH0@Z    0000000140186ac0 f   texture.obj
 0001:00185b20       ?texscroll@@YAXPEAM0@Z     0000000140186b20 f   texture.obj
 0001:00185b80       ?autograss@@YAXPEAD@Z      0000000140186b80 f   texture.obj
 0001:00185c00       ?texture@@YAXPEAD0PEAH11PEAM@Z 0000000140186c00 f   texture.obj
 0001:00186180       ?findslottex@@YAHPEBD@Z    0000000140187180 f   texture.obj
 0001:00186200       ?run@?$_icmd_fixinsidefaces@$0HNE@@@SAXPEAH@Z 0000000140187200 f   texture.obj
 0001:00186480       ?packvslot@@YAXAEAU?$vector@E@@PEBUVSlot@@@Z 0000000140187480 f   texture.obj
 0001:001864e0       ?packvslot@@YAXAEAU?$vector@E@@H@Z 00000001401874e0 f   texture.obj
 0001:00186d30       ?run@?$_icmd_compactvslots@$0GIO@@@SAXXZ 0000000140187d30 f   texture.obj
 0001:00186e20       ?materialreset@@YAXXZ      0000000140187e20 f   texture.obj
 0001:00186e90       ?texturereset@@YAXPEAH@Z   0000000140187e90 f   texture.obj
 0001:00187040       ?settexture@@YA_NPEBDH@Z   0000000140188040 f   texture.obj
 0001:00188300       ?loadsurface@@YAPEAUSDL_Surface@@PEBD@Z 0000000140189300 f   texture.obj
 0001:00188540       ?canloadsurface@@YA_NPEBD@Z 0000000140189540 f   texture.obj
 0001:001885a0       ?scaleimage@@YAXAEAUImageData@@HH@Z 00000001401895a0 f   texture.obj
 0001:00188700       ?texblur@@YAXAEAUImageData@@HH@Z 0000000140189700 f   texture.obj
 0001:00188880       ?texnormal@@YAXAEAUImageData@@H@Z 0000000140189880 f   texture.obj
 0001:00188b90       ?texflip@@YAXAEAUImageData@@@Z 0000000140189b90 f   texture.obj
 0001:00188d10       ?fixsurfaceformat@@YAPEAUSDL_Surface@@PEAU1@@Z 0000000140189d10 f   texture.obj
 0001:00188e70       ?checkgrayscale@@YA_NPEAUSDL_Surface@@@Z 0000000140189e70 f   texture.obj
 0001:00188f00       ?creatergbasurface@@YAPEAUSDL_Surface@@PEAU1@@Z 0000000140189f00 f   texture.obj
 0001:00188f90       ?creatergbsurface@@YAPEAUSDL_Surface@@PEAU1@@Z 0000000140189f90 f   texture.obj
 0001:00189010       ?wrapsurface@@YAPEAUSDL_Surface@@PEAXHHH@Z 000000014018a010 f   texture.obj
 0001:00189700       ?createcompressedtexture@@YAXHHHPEAEHHHHHII_N@Z 000000014018a700 f   texture.obj
 0001:00189c10       ?swizzlemask@@YAPEBHI@Z    000000014018ac10 f   texture.obj
 0001:00189c40       ?uncompressedformat@@YAII@Z 000000014018ac40 f   texture.obj
 0001:00189cf0       ?textarget@@YAII@Z         000000014018acf0 f   texture.obj
 0001:00189d40       ?uploadcompressedtexture@@YAXIIIHHPEAEHHH_N@Z 000000014018ad40 f   texture.obj
 0001:00189ef0       ?uploadtexture@@YAXIIHHIIPEAXHHH_N@Z 000000014018aef0 f   texture.obj
 0001:0018a2c0       ?resizetexture@@YAXHH_N0IHAEAH1@Z 000000014018b2c0 f   texture.obj
 0001:0018a430       ?var_usenp2@@YAXXZ         000000014018b430 f   texture.obj
 0001:0018a460       ?formatsize@@YAHI@Z        000000014018b460 f   texture.obj
 0001:0018a4b0       ?compressedformat@@YAIIHHH@Z 000000014018b4b0 f   texture.obj
 0001:0018a610       ?var_aniso@@YAXXZ          000000014018b610 f   texture.obj
 0001:0018a640       ?var_bilinear@@YAXXZ       000000014018b640 f   texture.obj
 0001:0018a670       ?var_trilinear@@YAXXZ      000000014018b670 f   texture.obj
 0001:0018a6a0       ?var_texcompressquality@@YAXXZ 000000014018b6a0 f   texture.obj
 0001:0018a6f0       ?var_texcompress@@YAXXZ    000000014018b6f0 f   texture.obj
 0001:0018a720       ?var_texreduce@@YAXXZ      000000014018b720 f   texture.obj
 0001:0018a750       ?var_reducefilter@@YAXXZ   000000014018b750 f   texture.obj
 0001:0018a780       ?var_maxtexsize@@YAXXZ     000000014018b780 f   texture.obj
 0001:0018a7b0       ?texagrad@@YAXAEAUImageData@@MMMM@Z 000000014018b7b0 f   texture.obj
 0001:0018a990       ?texpremul@@YAXAEAUImageData@@@Z 000000014018b990 f   texture.obj
 0001:0018aae0       ?texgrey@@YAXAEAUImageData@@@Z 000000014018bae0 f   texture.obj
 0001:0018acf0       ?texmix@@YAXAEAUImageData@@HHHH@Z 000000014018bcf0 f   texture.obj
 0001:0018aef0       ?texdup@@YAXAEAUImageData@@HH@Z 000000014018bef0 f   texture.obj
 0001:0018af90       ?texcolormask@@YAXAEAUImageData@@AEBUvec@@1@Z 000000014018bf90 f   texture.obj
 0001:0018b240       ?texcolorify@@YAXAEAUImageData@@AEBUvec@@U2@@Z 000000014018c240 f   texture.obj
 0001:0018b3b0       ?texmad@@YAXAEAUImageData@@AEBUvec@@1@Z 000000014018c3b0 f   texture.obj
 0001:0018b5e0       ?texoffset@@YAXAEAUImageData@@HH@Z 000000014018c5e0 f   texture.obj
 0001:0018b7b0       ?texrotate@@YAXAEAUImageData@@HH@Z 000000014018c7b0 f   texture.obj
 0001:0018b800       ?texreorient@@YAXAEAUImageData@@_N11H@Z 000000014018c800 f   texture.obj
 0001:0018bdc0       ?swizzleimage@@YAXAEAUImageData@@@Z 000000014018cdc0 f   texture.obj
 0001:0018c0f0       ?forcergbimage@@YAXAEAUImageData@@@Z 000000014018d0f0 f   texture.obj
 0001:0018da40       ?linkslotshaders@@YAXXZ    000000014018ea40 f   texture.obj
 0001:0018db80       ?reloadtexture@@YA_NAEAUTexture@@@Z 000000014018eb80 f   texture.obj
 0001:0018e0b0       ?cubemapload@@YAPEAUTexture@@PEBD_N11@Z 000000014018f0b0 f   texture.obj
 0001:0018e210       ?setuptexcompress@@YAXXZ   000000014018f210 f   texture.obj
 0001:0018e260       ?setuptexparameters@@YAXHPEAXHHII_N@Z 000000014018f260 f   texture.obj
 0001:0018e410       ?genenvmaps@@YAXXZ         000000014018f410 f   texture.obj
 0001:0018e510       ?closestenvmap@@YAGAEBUvec@@@Z 000000014018f510 f   texture.obj
 0001:0018e5c0       ?lookupmaterialslot@@YAAEAUMSlot@@H_N@Z 000000014018f5c0 f   texture.obj
 0001:0018e620       ?lookupenvmap@@YAIAEAUSlot@@@Z 000000014018f620 f   texture.obj
 0001:0018e690       ?lookupenvmap@@YAIG@Z      000000014018f690 f   texture.obj
 0001:0018e6e0       ?loadalphamask@@YAPEAEPEAUTexture@@@Z 000000014018f6e0 f   texture.obj
 0001:0018e870       ?compactvslots@@YAHXZ      000000014018f870 f   texture.obj
 0001:0018ed60       ?textureload@@YAPEAUTexture@@PEBDH_N1@Z 000000014018fd60 f   texture.obj
 0001:0018f390       ?clearslots@@YAXXZ         0000000140190390 f   texture.obj
 0001:0018f4f0       ?closestenvmap@@YAGHAEBUivec@@H@Z 00000001401904f0 f   texture.obj
 0001:0018f5a0       ?initenvmaps@@YAXXZ        00000001401905a0 f   texture.obj
 0001:0018f7d0       ?packvslot@@YAXAEAU?$vector@E@@AEBUVSlot@@@Z 00000001401907d0 f   texture.obj
 0001:0018fc50       ?lookupslot@@YAAEAUSlot@@H_N@Z 0000000140190c50 f   texture.obj
 0001:0018fc90       ?unpackvslot@@YA_NAEAU?$databuf@E@@AEAUVSlot@@_N@Z 0000000140190c90 f   texture.obj
 0001:0018ffc0       ?editvslot@@YAPEAUVSlot@@AEBU1@0@Z 0000000140190fc0 f   texture.obj
 0001:001900e0       ?compactvslot@@YAXAEAH@Z   00000001401910e0 f   texture.obj
 0001:00190130       ?compactvslot@@YAXAEAUVSlot@@@Z 0000000140191130 f   texture.obj
 0001:00190180       ?compactvslots@@YAXPEAUcube@@H@Z 0000000140191180 f   texture.obj
 0001:001902d0       ?mergevslot@@YAXAEAUVSlot@@AEBU1@1@Z 00000001401912d0 f   texture.obj
 0001:001903e0       ?findvslot@@YAPEAUVSlot@@AEAUSlot@@AEBU1@1@Z 00000001401913e0 f   texture.obj
 0001:001905a0       ?loadthumbnail@@YAPEAUTexture@@AEAUSlot@@@Z 00000001401915a0 f   texture.obj
 0001:00191660       ?texalign@@YAHPEBXHH@Z     0000000140192660 f   texture.obj
 0001:00191690       ?blurtexture@@YAXHHHHPEAEPEBEH@Z 0000000140192690 f   texture.obj
 0001:00191750       ?blurnormals@@YAXHHHPEAUbvec@@PEBU1@H@Z 0000000140192750 f   texture.obj
 0001:001917d0       ?lookupvslot@@YAAEAUVSlot@@H_N@Z 00000001401927d0 f   texture.obj
 0001:00191860       ?loadlayermasks@@YAXXZ     0000000140192860 f   texture.obj
 0001:00191940       ?savepng@@YAXPEBDAEAUImageData@@_N@Z 0000000140192940 f   texture.obj
 0001:00191e50       ?createtexture@@YAXHHHPEAXHHIIHHH_NI1@Z 0000000140192e50 f   texture.obj
 0001:001923a0       ?loadimage@@YA_NPEBDAEAUImageData@@@Z 00000001401933a0 f   texture.obj
 0001:00192f40       ?maskreflection@@YAXAEAUReflection@@M_N1@Z 0000000140193f40 f   water.obj
 0001:00193210       ?queryreflection@@YAXAEAUReflection@@_N@Z 0000000140194210 f   water.obj
 0001:00193700       ?addreflection@@YAXAEAUmaterialsurface@@@Z 0000000140194700 f   water.obj
 0001:00193870       ?addwaterfallrefraction@@YAXAEAUmaterialsurface@@@Z 0000000140194870 f   water.obj
 0001:001938f0       ?genwatertex@@YAXAEAI00_N@Z 00000001401948f0 f   water.obj
 0001:00193c20       ?var_reflectsize@@YAXXZ    0000000140194c20 f   water.obj
 0001:00193c30       ?cleanreflection@@YAXAEAUReflection@@@Z 0000000140194c30 f   water.obj
 0001:00193c90       ?var_waterfade@@YAXXZ      0000000140194c90 f   water.obj
 0001:00193cb0       ?setprojtexmatrix@@YAXAEAUReflection@@@Z 0000000140194cb0 f   water.obj
 0001:00193df0       ?var_lava4colour@@YAXXZ    0000000140194df0 f   water.obj
 0001:00193e30       ?var_lava3colour@@YAXXZ    0000000140194e30 f   water.obj
 0001:00193e70       ?var_lava2colour@@YAXXZ    0000000140194e70 f   water.obj
 0001:00193eb0       ?var_lavacolour@@YAXXZ     0000000140194eb0 f   water.obj
 0001:00193ef0       ?getwaterspec@@YAHH@Z      0000000140194ef0 f   water.obj
 0001:00193f30       ?var_water4fallcolour@@YAXXZ 0000000140194f30 f   water.obj
 0001:00193f60       ?var_water4colour@@YAXXZ   0000000140194f60 f   water.obj
 0001:00193fa0       ?var_water3fallcolour@@YAXXZ 0000000140194fa0 f   water.obj
 0001:00193fd0       ?var_water3colour@@YAXXZ   0000000140194fd0 f   water.obj
 0001:00194010       ?var_water2fallcolour@@YAXXZ 0000000140195010 f   water.obj
 0001:00194040       ?var_water2colour@@YAXXZ   0000000140195040 f   water.obj
 0001:00194080       ?var_waterfallcolour@@YAXXZ 0000000140195080 f   water.obj
 0001:001940b0       ?var_watercolour@@YAXXZ    00000001401950b0 f   water.obj
 0001:00194320       ?var_vertwater@@YAXXZ      0000000140195320 f   water.obj
 0001:00194330       ?renderflatwater@@YAXHHHHHH@Z 0000000140195330 f   water.obj
 0001:001944f0       ?renderwaterlod@@YAHHHHHH@Z 00000001401954f0 f   water.obj
 0001:00194710       ?calcwatersubdiv@@YAHHHHH@Z 0000000140195710 f   water.obj
 0001:00194820       ?rendervertwater@@YAXHHHHHH@Z 0000000140195820 f   water.obj
 0001:001959c0       ?var_waterfallrefract@@YAXXZ 00000001401969c0 f   water.obj
 0001:001959e0       ?var_waterenvmap@@YAXXZ    00000001401969e0 f   water.obj
 0001:00195a00       ?var_waterrefract@@YAXXZ   0000000140196a00 f   water.obj
 0001:00195a20       ?var_waterreflect@@YAXXZ   0000000140196a20 f   water.obj
 0001:00195a40       ?getlavacolor@@YAAEBUbvec@@H@Z 0000000140196a40 f   water.obj
 0001:00195a80       ?getlavafog@@YAHH@Z        0000000140196a80 f   water.obj
 0001:00195ac0       ?renderwater@@YAXXZ        0000000140196ac0 f   water.obj
 0001:00196f90       ?queryreflections@@YAXXZ   0000000140197f90 f   water.obj
 0001:001975d0       ?drawreflections@@YAXXZ    00000001401985d0 f   water.obj
 0001:00197e90       ?preloadwatershaders@@YAX_N@Z 0000000140198e90 f   water.obj
 0001:00198090       ?getwaterfallcolor@@YAAEBUbvec@@H@Z 0000000140199090 f   water.obj
 0001:001980d0       ?getwatercolor@@YAAEBUbvec@@H@Z 00000001401990d0 f   water.obj
 0001:00198110       ?getwaterfog@@YAHH@Z       0000000140199110 f   water.obj
 0001:00198150       ?renderlava@@YAXAEBUmaterialsurface@@PEAUTexture@@M@Z 0000000140199150 f   water.obj
 0001:001981c0       ?setupwaterfallrefract@@YAXXZ 00000001401991c0 f   water.obj
 0001:00198200       ?cleanreflections@@YAXXZ   0000000140199200 f   water.obj
 0001:00199780       ?clearsleep_@@YAXPEAH@Z    000000014019a780 f   command.obj
 0001:001997b0       ?checksleep@@YAXH@Z        000000014019a7b0 f   command.obj
 0001:00199900       ?addsleep@@YAXPEAHPEAD@Z   000000014019a900 f   command.obj
 0001:00199a50       ?run@?$_stdcmd@$0MFJ@@@SAXPEAH@Z 000000014019aa50 f   command.obj
 0001:00199a80       ?strsplice@@YAXPEBD0PEAH1@Z 000000014019aa80 f   command.obj
 0001:00199bb0       ?run@?$_stdcmd@$0MEI@@@SAXPEAD00@Z 000000014019abb0 f   command.obj
 0001:00199be0       ?strreplace@@YAPEADPEBD00@Z 000000014019abe0 f   command.obj
 0001:00199da0       ?run@?$_stdcmd@$0MCO@@@SAXPEAD@Z 000000014019ada0 f   command.obj
 0001:00199e40       ?run@?$_stdcmd@$0MCN@@@SAXPEAD@Z 000000014019ae40 f   command.obj
 0001:00199ee0       ?run@?$_stdcmd@$0MCB@@@SAXPEAH@Z 000000014019aee0 f   command.obj
 0001:00199f60       ?run@?$_stdcmd@$0MCA@@@SAXPEADPEAH@Z 000000014019af60 f   command.obj
 0001:00199fd0       ?run@?$_stdcmd@$0MBP@@@SAXPEAH@Z 000000014019afd0 f   command.obj
 0001:0019a020       ?run@?$_stdcmd@$0MBO@@@SAXPEADPEAH@Z 000000014019b020 f   command.obj
 0001:0019a080       ?run@?$_stdcmd@$0MBN@@@SAXPEAD@Z 000000014019b080 f   command.obj
 0001:0019a0b0       ?run@?$_stdcmd@$0MBM@@@SAXPEAD0@Z 000000014019b0b0 f   command.obj
 0001:0019a0f0       ?run@?$_stdcmd@$0MBL@@@SAXPEAD@Z 000000014019b0f0 f   command.obj
 0001:0019a110       ?run@?$_stdcmd@$0MBK@@@SAXPEAD@Z 000000014019b110 f   command.obj
 0001:0019a130       ?run@?$_stdcmd@$0MBJ@@@SAXPEAD0@Z 000000014019b130 f   command.obj
 0001:0019a170       ?run@?$_stdcmd@$0MBI@@@SAXPEAD0@Z 000000014019b170 f   command.obj
 0001:0019a1b0       ?run@?$_stdcmd@$0MBH@@@SAXPEAD0@Z 000000014019b1b0 f   command.obj
 0001:0019a1f0       ?run@?$_stdcmd@$0MBG@@@SAXPEAD0@Z 000000014019b1f0 f   command.obj
 0001:0019a240       ?run@?$_stdcmd@$0MBF@@@SAXPEAD0@Z 000000014019b240 f   command.obj
 0001:0019a280       ?run@?$_stdcmd@$0MBE@@@SAXPEAD0@Z 000000014019b280 f   command.obj
 0001:0019a2c0       ?run@?$_stdcmd@$0MBD@@@SAXPEAD0@Z 000000014019b2c0 f   command.obj
 0001:0019a300       ?run@?$_stdcmd@$0MBC@@@SAXPEAH0@Z 000000014019b300 f   command.obj
 0001:0019a350       ?run@?$_stdcmd@$0MBA@@@SAXPEAUtagval@@H@Z 000000014019b350 f   command.obj
 0001:0019a470       ?run@?$_stdcmd@$0MAP@@@SAXPEAUtagval@@H@Z 000000014019b470 f   command.obj
 0001:0019a570       ?run@?$_stdcmd@$0MAO@@@SAXPEAUtagval@@H@Z 000000014019b570 f   command.obj
 0001:0019a670       ?run@?$_stdcmd@$0LPP@@@SAXPEAUtagval@@H@Z 000000014019b670 f   command.obj
 0001:0019a760       ?run@?$_stdcmd@$0LOL@@@SAXPEAM@Z 000000014019b760 f   command.obj
 0001:0019a790       ?run@?$_stdcmd@$0LOK@@@SAXPEAH@Z 000000014019b790 f   command.obj
 0001:0019a7b0       ?run@?$_stdcmd@$0LOJ@@@SAXPEAUtagval@@H@Z 000000014019b7b0 f   command.obj
 0001:0019a8a0       ?run@?$_stdcmd@$0LOD@@@SAXPEAUtagval@@H@Z 000000014019b8a0 f   command.obj
 0001:0019a990       ?run@?$_stdcmd@$0LNN@@@SAXPEAUtagval@@H@Z 000000014019b990 f   command.obj
 0001:0019aa60       ?run@?$_stdcmd@$0LNH@@@SAXPEAUtagval@@H@Z 000000014019ba60 f   command.obj
 0001:0019ab30       ?run@?$_stdcmd@$0LNB@@@SAXPEAM@Z 000000014019bb30 f   command.obj
 0001:0019ab60       ?run@?$_stdcmd@$0LNA@@@SAXPEAM@Z 000000014019bb60 f   command.obj
 0001:0019ab90       ?run@?$_stdcmd@$0LMP@@@SAXPEAM@Z 000000014019bb90 f   command.obj
 0001:0019abd0       ?run@?$_stdcmd@$0LMO@@@SAXPEAM@Z 000000014019bbd0 f   command.obj
 0001:0019ac00       ?run@?$_stdcmd@$0LMN@@@SAXPEAM0@Z 000000014019bc00 f   command.obj
 0001:0019ac30       ?run@?$_stdcmd@$0LMM@@@SAXPEAM@Z 000000014019bc30 f   command.obj
 0001:0019ac50       ?run@?$_stdcmd@$0LML@@@SAXPEAM0@Z 000000014019bc50 f   command.obj
 0001:0019aca0       ?run@?$_stdcmd@$0LMK@@@SAXPEAM@Z 000000014019bca0 f   command.obj
 0001:0019ace0       ?run@?$_stdcmd@$0LMJ@@@SAXPEAM@Z 000000014019bce0 f   command.obj
 0001:0019ad20       ?run@?$_stdcmd@$0LMI@@@SAXPEAM@Z 000000014019bd20 f   command.obj
 0001:0019ad60       ?run@?$_stdcmd@$0LMH@@@SAXPEAM@Z 000000014019bd60 f   command.obj
 0001:0019ada0       ?run@?$_stdcmd@$0LMG@@@SAXPEAM@Z 000000014019bda0 f   command.obj
 0001:0019ade0       ?run@?$_stdcmd@$0LMF@@@SAXPEAM@Z 000000014019bde0 f   command.obj
 0001:0019ae20       ?run@?$_stdcmd@$0LME@@@SAXPEAM0@Z 000000014019be20 f   command.obj
 0001:0019ae60       ?run@?$_stdcmd@$0LMD@@@SAXPEAM0@Z 000000014019be60 f   command.obj
 0001:0019ae90       ?run@?$_stdcmd@$0LMC@@@SAXPEAH0@Z 000000014019be90 f   command.obj
 0001:0019aed0       ?run@?$_stdcmd@$0LMB@@@SAXPEAH0@Z 000000014019bed0 f   command.obj
 0001:0019af10       ?run@?$_stdcmd@$0LLP@@@SAXPEAUtagval@@H@Z 000000014019bf10 f   command.obj
 0001:0019b0b0       ?run@?$_stdcmd@$0LLF@@@SAXPEAUtagval@@H@Z 000000014019c0b0 f   command.obj
 0001:0019b250       ?run@?$_stdcmd@$0LKL@@@SAXPEAH0@Z 000000014019c250 f   command.obj
 0001:0019b280       ?run@?$_stdcmd@$0LKK@@@SAXPEAH0@Z 000000014019c280 f   command.obj
 0001:0019b2b0       ?run@?$_stdcmd@$0LKJ@@@SAXPEAH0@Z 000000014019c2b0 f   command.obj
 0001:0019b2e0       ?run@?$_stdcmd@$0LKI@@@SAXPEAH0@Z 000000014019c2e0 f   command.obj
 0001:0019b310       ?run@?$_stdcmd@$0LKH@@@SAXPEAH0@Z 000000014019c310 f   command.obj
 0001:0019b340       ?run@?$_stdcmd@$0LKG@@@SAXPEAH@Z 000000014019c340 f   command.obj
 0001:0019b360       ?run@?$_stdcmd@$0LKF@@@SAXPEAH0@Z 000000014019c360 f   command.obj
 0001:0019b380       ?run@?$_stdcmd@$0LKE@@@SAXPEAH0@Z 000000014019c380 f   command.obj
 0001:0019b3a0       ?run@?$_stdcmd@$0LKD@@@SAXPEAUtagval@@@Z 000000014019c3a0 f   command.obj
 0001:0019b3d0       ?run@?$_stdcmd@$0LKC@@@SAXPEAH0@Z 000000014019c3d0 f   command.obj
 0001:0019b3f0       ?run@?$_stdcmd@$0LKB@@@SAXPEAM0@Z 000000014019c3f0 f   command.obj
 0001:0019b420       ?run@?$_stdcmd@$0LKA@@@SAXPEAM0@Z 000000014019c420 f   command.obj
 0001:0019b450       ?run@?$_stdcmd@$0LJP@@@SAXPEAM0@Z 000000014019c450 f   command.obj
 0001:0019b480       ?run@?$_stdcmd@$0LJO@@@SAXPEAM0@Z 000000014019c480 f   command.obj
 0001:0019b4b0       ?run@?$_stdcmd@$0LJN@@@SAXPEAM0@Z 000000014019c4b0 f   command.obj
 0001:0019b4e0       ?run@?$_stdcmd@$0LJM@@@SAXPEAM0@Z 000000014019c4e0 f   command.obj
 0001:0019b510       ?run@?$_stdcmd@$0LJL@@@SAXPEAH0@Z 000000014019c510 f   command.obj
 0001:0019b540       ?run@?$_stdcmd@$0LJK@@@SAXPEAH0@Z 000000014019c540 f   command.obj
 0001:0019b570       ?run@?$_stdcmd@$0LJJ@@@SAXPEAH0@Z 000000014019c570 f   command.obj
 0001:0019b5a0       ?run@?$_stdcmd@$0LJI@@@SAXPEAH0@Z 000000014019c5a0 f   command.obj
 0001:0019b5d0       ?run@?$_stdcmd@$0LJH@@@SAXPEAH0@Z 000000014019c5d0 f   command.obj
 0001:0019b600       ?run@?$_stdcmd@$0LJG@@@SAXPEAH0@Z 000000014019c600 f   command.obj
 0001:0019b630       ?run@?$_stdcmd@$0LJF@@@SAXPEAM0@Z 000000014019c630 f   command.obj
 0001:0019b660       ?run@?$_stdcmd@$0LJE@@@SAXPEAM0@Z 000000014019c660 f   command.obj
 0001:0019b690       ?run@?$_stdcmd@$0LJD@@@SAXPEAM0@Z 000000014019c690 f   command.obj
 0001:0019b6c0       ?run@?$_stdcmd@$0LJC@@@SAXPEAH0@Z 000000014019c6c0 f   command.obj
 0001:0019b6e0       ?run@?$_stdcmd@$0LJB@@@SAXPEAH0@Z 000000014019c6e0 f   command.obj
 0001:0019b700       ?run@?$_stdcmd@$0LJA@@@SAXPEAH0@Z 000000014019c700 f   command.obj
 0001:0019b720       ?sortlist@@YAXPEADPEAUident@@1PEAI@Z 000000014019c720 f   command.obj
 0001:0019bba0       ?findfile_@@YAXPEAD@Z      000000014019cba0 f   command.obj
 0001:0019bd00       ?run@?$_stdcmd@$0LDJ@@@SAXPEAUident@@PEAD1PEAI@Z 000000014019cd00 f   command.obj
 0001:0019bf30       ?listsplice@@YAXPEBD0PEAH1@Z 000000014019cf30 f   command.obj
 0001:0019c3c0       ?run@?$_stdcmd@$0KPM@@@SAXPEAD0@Z 000000014019d3c0 f   command.obj
 0001:0019c530       ?listdel@@YAPEADPEBD0@Z    000000014019d530 f   command.obj
 0001:0019c690       ?run@?$_stdcmd@$0KOM@@@SAXPEAD0@Z 000000014019d690 f   command.obj
 0001:0019c6d0       ?listincludes@@YAHPEBD0H@Z 000000014019d6d0 f   command.obj
 0001:0019ca50       ?prettylist@@YAXPEBD0@Z    000000014019da50 f   command.obj
 0001:0019cd80       ?listfilter@@YAXPEAUident@@PEBDPEBI@Z 000000014019dd80 f   command.obj
 0001:0019d0c0       ?run@?$_stdcmd@$0KLB@@@SAXPEAUident@@PEADPEAI@Z 000000014019e0c0 f   command.obj
 0001:0019d0d0       ?run@?$_stdcmd@$0KLA@@@SAXPEAUident@@PEADPEAI@Z 000000014019e0d0 f   command.obj
 0001:0019d0e0       ?looplistconc@@YAXPEAUident@@PEBDPEBI_N@Z 000000014019e0e0 f   command.obj
 0001:0019d470       ?looplist@@YAXPEAUident@@PEBDPEBI@Z 000000014019e470 f   command.obj
 0001:0019d6d0       ?listfind@@YAXPEAUident@@PEBDPEBI@Z 000000014019e6d0 f   command.obj
 0001:0019daa0       ?run@?$_stdcmd@$0KGD@@@SAXPEAD@Z 000000014019eaa0 f   command.obj
 0001:0019db50       ?sublist@@YAXPEBDPEAH11@Z  000000014019eb50 f   command.obj
 0001:0019dce0       ?substr@@YAXPEADPEAH11@Z   000000014019ece0 f   command.obj
 0001:0019dd50       ?at@@YAXPEAUtagval@@H@Z    000000014019ed50 f   command.obj
 0001:0019def0       ?run@?$_stdcmd@$0KDK@@@SAXPEAD@Z 000000014019eef0 f   command.obj
 0001:0019df20       ?listlen@@YAHPEBD@Z        000000014019ef20 f   command.obj
 0001:0019e280       ?indexlist@@YAPEADPEBDH@Z  000000014019f280 f   command.obj
 0001:0019e6a0       ?format@@YAXPEAUtagval@@H@Z 000000014019f6a0 f   command.obj
 0001:0019e930       ?run@?$_stdcmd@$0JNM@@@SAXPEAUtagval@@@Z 000000014019f930 f   command.obj
 0001:0019e950       ?result@@YAXAEAUtagval@@@Z 000000014019f950 f   command.obj
 0001:0019e970       ?run@?$_stdcmd@$0JMG@@@SAXPEAUident@@PEAUtagval@@@Z 000000014019f970 f   command.obj
 0001:0019e980       ?run@?$_stdcmd@$0JMF@@@SAXPEAUident@@PEAUtagval@@@Z 000000014019f980 f   command.obj
 0001:0019e990       ?append@@YAXPEAUident@@PEAUtagval@@_N@Z 000000014019f990 f   command.obj
 0001:0019eac0       ?concatword@@YAXPEAUtagval@@H@Z 000000014019fac0 f   command.obj
 0001:0019eb00       ?concat@@YAXPEAUtagval@@H@Z 000000014019fb00 f   command.obj
 0001:0019eb40       ?run@?$_stdcmd@$0JKF@@@SAXPEAUident@@PEAHPEAI@Z 000000014019fb40 f   command.obj
 0001:0019eb80       ?run@?$_stdcmd@$0JKA@@@SAXPEAUident@@PEAHPEAI@Z 000000014019fb80 f   command.obj
 0001:0019ebc0       ?loopconc@@YAPEADPEAUident@@HPEAI_N@Z 000000014019fbc0 f   command.obj
 0001:0019eec0       ?run@?$_stdcmd@$0JIH@@@SAXPEAI0@Z 000000014019fec0 f   command.obj
 0001:0019ef50       ?run@?$_stdcmd@$0JIG@@@SAXPEAUident@@PEAHPEAI2@Z 000000014019ff50 f   command.obj
 0001:0019f0f0       ?run@?$_stdcmd@$0JHK@@@SAXPEAUident@@PEAHPEAI@Z 00000001401a00f0 f   command.obj
 0001:0019f380       ?run@?$_stdcmd@$0JEG@@@SAXPEAUident@@PEAUtagval@@PEAI@Z 00000001401a0380 f   command.obj
 0001:0019f4b0       ?run@?$_stdcmd@$0JDI@@@SAXPEAUtagval@@00@Z 00000001401a04b0 f   command.obj
 0001:0019f4f0       ?run@?$_stdcmd@$0JDH@@@SAXPEAUtagval@@PEAI1@Z 00000001401a04f0 f   command.obj
 0001:0019f540       ?run@?$_stdcmd@$0JDG@@@SAXPEAI@Z 00000001401a0540 f   command.obj
 0001:0019f560       ?changedvars@@YAXXZ        00000001401a0560 f   command.obj
 0001:0019f710       ?writecfg@@YAXPEBD@Z       00000001401a0710 f   command.obj
 0001:0019fc10       ?validateblock@@YA_NPEBD@Z 00000001401a0c10 f   command.obj
 0001:0019fd90       ?run@?$_icmd_unescape@$0IMF@@@SAXPEAD@Z 00000001401a0d90 f   command.obj
 0001:0019fe50       ?run@?$_icmd_escape@$0ILO@@@SAXPEAD@Z 00000001401a0e50 f   command.obj
 0001:0019fe80       ?run@?$_icmd_exec@$0IKH@@@SAXPEADPEAH@Z 00000001401a0e80 f   command.obj
 0001:001a0070       ?executeret@@YAXPEBDAEAUtagval@@@Z 00000001401a1070 f   command.obj
 0001:001a02b0       ?executeret@@YAXPEBIAEAUtagval@@@Z 00000001401a12b0 f   command.obj
 0001:001a56d0       ?printvar@@YAXPEAUident@@@Z 00000001401a66d0 f   command.obj
 0001:001a5770       ?printsvar@@YAXPEAUident@@PEBD@Z 00000001401a6770 f   command.obj
 0001:001a57c0       ?printfvar@@YAXPEAUident@@M@Z 00000001401a67c0 f   command.obj
 0001:001a57f0       ?printvar@@YAXPEAUident@@H@Z 00000001401a67f0 f   command.obj
 0001:001a5890       ?freecode@@YAXPEAI@Z       00000001401a6890 f   command.obj
 0001:001a5910       ?compilecode@@YAPEAIPEBD@Z 00000001401a6910 f   command.obj
 0001:001a8f40       ?unescapestring@@YAHPEADPEBD1@Z 00000001401a9f40 f   command.obj
 0001:001a8fb0       ?parsestring@@YAPEBDPEBD@Z 00000001401a9fb0 f   command.obj
 0001:001a8ff0       ?addkeyword@@YA_NHPEBD@Z   00000001401a9ff0 f   command.obj
 0001:001a9040       ?setsvarchecked@@YAXPEAUident@@PEBD@Z 00000001401aa040 f   command.obj
 0001:001a9170       ?setfvarchecked@@YAXPEAUident@@M@Z 00000001401aa170 f   command.obj
 0001:001a92c0       ?clampfvar@@YAMPEAUident@@MMM@Z 00000001401aa2c0 f   command.obj
 0001:001a9350       ?setvarchecked@@YAXPEAUident@@H@Z 00000001401aa350 f   command.obj
 0001:001a9450       ?clampvar@@YAHPEAUident@@HHH@Z 00000001401aa450 f   command.obj
 0001:001a94d0       ?run@?$_icmd_getalias@$0CFI@@@SAXPEAD@Z 00000001401aa4d0 f   command.obj
 0001:001a9500       ?getalias@@YAPEBDPEBD@Z    00000001401aa500 f   command.obj
 0001:001a9590       ?run@?$_icmd_getfvarmax@$0CEA@@@SAXPEAD@Z 00000001401aa590 f   command.obj
 0001:001a95e0       ?run@?$_icmd_getfvarmin@$0CDP@@@SAXPEAD@Z 00000001401aa5e0 f   command.obj
 0001:001a9630       ?run@?$_icmd_getvarmax@$0CDO@@@SAXPEAD@Z 00000001401aa630 f   command.obj
 0001:001a9670       ?run@?$_icmd_getvarmin@$0CDN@@@SAXPEAD@Z 00000001401aa670 f   command.obj
 0001:001a96b0       ?getfvarmax@@YAMPEBD@Z     00000001401aa6b0 f   command.obj
 0001:001a96f0       ?getfvarmin@@YAMPEBD@Z     00000001401aa6f0 f   command.obj
 0001:001a9730       ?getvarmax@@YAHPEBD@Z      00000001401aa730 f   command.obj
 0001:001a9770       ?getvarmin@@YAHPEBD@Z      00000001401aa770 f   command.obj
 0001:001a97b0       ?run@?$_icmd_alias@$0BOB@@@SAXPEBDPEAUtagval@@@Z 00000001401aa7b0 f   command.obj
 0001:001a97e0       ?alias@@YAXPEBD0@Z         00000001401aa7e0 f   command.obj
 0001:001a9b10       ?resetvar@@YAXPEAD@Z       00000001401aab10 f   command.obj
 0001:001a9b60       ?readident@@YAPEAUident@@PEBD@Z 00000001401aab60 f   command.obj
 0001:001a9bb0       ?writeident@@YAPEAUident@@PEBDH@Z 00000001401aabb0 f   command.obj
 0001:001a9c70       ?newident@@YAPEAUident@@PEBDH@Z 00000001401aac70 f   command.obj
 0001:001a9e30       ?run@?$_icmd_push@$0BFH@@@SAXPEAUident@@PEAUtagval@@PEAI@Z 00000001401aae30 f   command.obj
 0001:001aa040       ?run@?$_icmd_nodebug@$0BDD@@@SAXPEAI@Z 00000001401ab040 f   command.obj
 0001:001aa780       ?clearoverride@@YAXAEAUident@@@Z 00000001401ab780 f   command.obj
 0001:001aa840       ?clear_command@@YAXXZ      00000001401ab840 f   command.obj
 0001:001aad40       ?stringret@@YAXPEAD@Z      00000001401abd40 f   command.obj
 0001:001aad60       ?explodelist@@YAXPEBDAEAU?$vector@PEAD@@H@Z 00000001401abd60 f   command.obj
 0001:001aaec0       ?floatret@@YAXM@Z          00000001401abec0 f   command.obj
 0001:001aaee0       ?floatstr@@YAPEBDM@Z       00000001401abee0 f   command.obj
 0001:001aaf70       ?executestr@@YAPEADPEBD@Z  00000001401abf70 f   command.obj
 0001:001aafb0       ?identexists@@YA_NPEBD@Z   00000001401abfb0 f   command.obj
 0001:001aafe0       ?intstr@@YAPEBDH@Z         00000001401abfe0 f   command.obj
 0001:001ab050       ?escapestring@@YAPEBDPEBD@Z 00000001401ac050 f   command.obj
 0001:001ab2f0       ?escapeid@@YAPEBDPEBD@Z    00000001401ac2f0 f   command.obj
 0001:001ab330       ?setsvar@@YAXPEBD0_N@Z     00000001401ac330 f   command.obj
 0001:001ab420       ?getident@@YAPEAUident@@PEBD@Z 00000001401ac420 f   command.obj
 0001:001ab440       ?setfvar@@YAXPEBDM_N1@Z    00000001401ac440 f   command.obj
 0001:001ab500       ?svariable@@YAPEADPEBD0PEAPEADP6AXXZH@Z 00000001401ac500 f   command.obj
 0001:001ab550       ?executebool@@YA_NPEBI@Z   00000001401ac550 f   command.obj
 0001:001ab5b0       ?execute@@YAHPEBI@Z        00000001401ac5b0 f   command.obj
 0001:001ab640       ?clearoverrides@@YAXXZ     00000001401ac640 f   command.obj
 0001:001ab780       ?clearsleep@@YAX_N@Z       00000001401ac780 f   command.obj
 0001:001ab830       ?setvar@@YAXPEBDH_N1@Z     00000001401ac830 f   command.obj
 0001:001ab910       ?execute@@YAHPEBD@Z        00000001401ac910 f   command.obj
 0001:001abbb0       ?fvariable@@YAMPEBDMMMPEAMP6AXXZH@Z 00000001401acbb0 f   command.obj
 0001:001abc30       ?execfile@@YA_NPEBD_N@Z    00000001401acc30 f   command.obj
 0001:001abe40       ?variable@@YAHPEBDHHHPEAHP6AXXZH@Z 00000001401ace40 f   command.obj
 0001:001abeb0       ?result@@YAXPEBD@Z         00000001401aceb0 f   command.obj
 0001:001abee0       ?intret@@YAXH@Z            00000001401acee0 f   command.obj
 0001:001abf00       ?addcommand@@YA_NPEBDP6AXXZ0@Z 00000001401acf00 f   command.obj
 0001:001acc20       ?complete@@YAXPEADHPEBD@Z  00000001401adc20 f   console.obj
 0001:001ad1e0       ?addlistcomplete@@YAXPEAD0@Z 00000001401ae1e0 f   console.obj
 0001:001ad200       ?addfilecomplete@@YAXPEAD00@Z 00000001401ae200 f   console.obj
 0001:001ad220       ?addcomplete@@YAXPEADH00@Z 00000001401ae220 f   console.obj
 0001:001ad660       ?resetcomplete@@YAXXZ      00000001401ae660 f   console.obj
 0001:001ad730       ?clear_console@@YAXXZ      00000001401ae730 f   console.obj
 0001:001ad7d0       ?processkey@@YAXH_N@Z      00000001401ae7d0 f   console.obj
 0001:001ad870       ?processtextinput@@YAXPEBDH@Z 00000001401ae870 f   console.obj
 0001:001ad9a0       ?consolekey@@YA_NH_N@Z     00000001401ae9a0 f   console.obj
 0001:001ae1f0       ?consoleinput@@YA_NPEBDH@Z 00000001401af1f0 f   console.obj
 0001:001ae2f0       ?execbind@@YAXAEAUkeym@@_N@Z 00000001401af2f0 f   console.obj
 0001:001ae460       ?onrelease@@YAXPEBD@Z      00000001401af460 f   console.obj
 0001:001ae480       ?history_@@YAXPEAH@Z       00000001401af480 f   console.obj
 0001:001ae4d0       ?pasteconsole@@YAXXZ       00000001401af4d0 f   console.obj
 0001:001ae570       ?run@?$_icmd_saycommand@$0BBE@@@SAXPEAD@Z 00000001401af570 f   console.obj
 0001:001ae6a0       ?inputcommand@@YAXPEAD000@Z 00000001401af6a0 f   console.obj
 0001:001ae860       ?run@?$_icmd_searcheditbinds@$0PN@@@SAXPEAD@Z 00000001401af860 f   console.obj
 0001:001ae870       ?run@?$_icmd_searchspecbinds@$0PM@@@SAXPEAD@Z 00000001401af870 f   console.obj
 0001:001ae880       ?run@?$_icmd_searchbinds@$0PL@@@SAXPEAD@Z 00000001401af880 f   console.obj
 0001:001ae890       ?run@?$_icmd_geteditbind@$0PK@@@SAXPEAD@Z 00000001401af890 f   console.obj
 0001:001ae8d0       ?run@?$_icmd_getspecbind@$0PJ@@@SAXPEAD@Z 00000001401af8d0 f   console.obj
 0001:001ae910       ?run@?$_icmd_getbind@$0PI@@@SAXPEAD@Z 00000001401af910 f   console.obj
 0001:001ae950       ?run@?$_icmd_editbind@$0PH@@@SAXPEAD0@Z 00000001401af950 f   console.obj
 0001:001ae970       ?run@?$_icmd_specbind@$0PG@@@SAXPEAD0@Z 00000001401af970 f   console.obj
 0001:001ae990       ?run@?$_icmd_bind@$0PF@@@SAXPEAD0@Z 00000001401af990 f   console.obj
 0001:001ae9b0       ?bindkey@@YAXPEAD0HPEBD@Z  00000001401af9b0 f   console.obj
 0001:001aead0       ?getbind@@YAXPEADH@Z       00000001401afad0 f   console.obj
 0001:001aeb20       ?findbind@@YAPEAUkeym@@PEAD@Z 00000001401afb20 f   console.obj
 0001:001aebc0       ?searchbinds@@YAXPEADH@Z   00000001401afbc0 f   console.obj
 0001:001aedb0       ?keymap@@YAXPEAHPEAD@Z     00000001401afdb0 f   console.obj
 0001:001aee60       ?drawconlines@@YAHHHHHHHHH@Z 00000001401afe60 f   console.obj
 0001:001af2e0       ?run@?$_icmd_clearconsole@$0GD@@@SAXXZ 00000001401b02e0 f   console.obj
 0001:001af360       ?run@?$_icmd_miniconskip@$0GB@@@SAXPEAH@Z 00000001401b0360 f   console.obj
 0001:001af380       ?run@?$_icmd_conskip@$0GA@@@SAXPEAH@Z 00000001401b0380 f   console.obj
 0001:001af3b0       ?setconskip@@YAXAEAHHH@Z   00000001401b03b0 f   console.obj
 0001:001af470       ?run@?$_icmd_toggleconsole@$0DG@@@SAXXZ 00000001401b0470 f   console.obj
 0001:001af480       ?conline@@YAXHPEBD@Z       00000001401b0480 f   console.obj
 0001:001af5a0       ?var_maxcon@@YAXXZ         00000001401b05a0 f   console.obj
 0001:001af630       ?conoutfv@@YAXHPEBDPEAD@Z  00000001401b0630 f   console.obj
 0001:001af7a0       ?addreleaseaction@@YAPEBDPEAD@Z 00000001401b07a0 f   console.obj
 0001:001af8e0       ?writebinds@@YAXPEAUstream@@@Z 00000001401b08e0 f   console.obj
 0001:001afb50       ?writecompletions@@YAXPEAUstream@@@Z 00000001401b0b50 f   console.obj
 0001:001afea0       ?rendercommand@@YAHHHH@Z   00000001401b0ea0 f   console.obj
 0001:001b0020       ?renderconsole@@YAHHHH@Z   00000001401b1020 f   console.obj
 0001:001b0490       ?getkeyname@@YAPEBDH@Z     00000001401b1490 f   console.obj
 0001:001b04e0       ?conoutf@@YAXPEBDZZ        00000001401b14e0 f   console.obj
 0001:001b0520       ?conoutf@@YAXHPEBDZZ       00000001401b1520 f   console.obj
 0001:001b0810       ?getclockmillis@@YAHXZ     00000001401b1810 f   main.obj
 0001:001b0870       ?var_clockfix@@YAXXZ       00000001401b1870 f   main.obj
 0001:001b08a0       ?var_clockerror@@YAXXZ     00000001401b18a0 f   main.obj
 0001:001b0970       ?getfps_@@YAXPEAH@Z        00000001401b1970 f   main.obj
 0001:001b09f0       ?updatefpshistory@@YAXH@Z  00000001401b19f0 f   main.obj
 0001:001b0a40       ?resetfpshistory@@YAXXZ    00000001401b1a40 f   main.obj
 0001:001b0ab0       ?stackdumper@@YAXIPEAU_EXCEPTION_POINTERS@@@Z 00000001401b1ab0 f   main.obj
 0001:001b0d10       ?limitfps@@YAXAEAHH@Z      00000001401b1d10 f   main.obj
 0001:001b0dd0       ?swapbuffers@@YAX_N@Z      00000001401b1dd0 f   main.obj
 0001:001b0f60       ?checkinput@@YAXXZ         00000001401b1f60 f   main.obj
 0001:001b1b60       ?pushevent@@YAXAEBTSDL_Event@@@Z 00000001401b2b60 f   main.obj
 0001:001b1b70       ?resetgl@@YAXXZ            00000001401b2b70 f   main.obj
 0001:001b29f0       ?setupscreen@@YAXXZ        00000001401b39f0 f   main.obj
 0001:001b2e80       ?var_vsynctear@@YAXXZ      00000001401b3e80 f   main.obj
 0001:001b2ea0       ?var_vsync@@YAXXZ          00000001401b3ea0 f   main.obj
 0001:001b2f00       ?restorevsync@@YAXXZ       00000001401b3f00 f   main.obj
 0001:001b2f60       ?cleargamma@@YAXXZ         00000001401b3f60 f   main.obj
 0001:001b2f90       ?restoregamma@@YAXXZ       00000001401b3f90 f   main.obj
 0001:001b2fb0       ?var_gamma@@YAXXZ          00000001401b3fb0 f   main.obj
 0001:001b3040       ?run@?$_icmd_screenres@$0CCG@@@SAXPEAH0@Z 00000001401b4040 f   main.obj
 0001:001b3140       ?screenres@@YAXHH@Z        00000001401b4140 f   main.obj
 0001:001b3250       ?var_fullscreendesktop@@YAXXZ 00000001401b4250 f   main.obj
 0001:001b3270       ?resetfullscreen@@YAXXZ    00000001401b4270 f   main.obj
 0001:001b3300       ?var_fullscreen@@YAXXZ     00000001401b4300 f   main.obj
 0001:001b3320       ?setfullscreen@@YAX_N@Z    00000001401b4320 f   main.obj
 0001:001b33b0       ?inputgrab@@YAX_N@Z        00000001401b43b0 f   main.obj
 0001:001b3480       ?bgquad@@YAXMMMMMMMM@Z     00000001401b4480 f   main.obj
 0001:001b3680       ?restorebackground@@YAX_N@Z 00000001401b4680 f   main.obj
 0001:001b3720       ?setbackgroundinfo@@YAXPEBDPEAUTexture@@00@Z 00000001401b4720 f   main.obj
 0001:001b3910       ?writeinitcfg@@YAXXZ       00000001401b4910 f   main.obj
 0001:001b3a60       ?var_fsaa@@YAXXZ           00000001401b4a60 f   main.obj
 0001:001b3a90       ?var_depthbits@@YAXXZ      00000001401b4a90 f   main.obj
 0001:001b3ac0       ?var_scr_h@@YAXXZ          00000001401b4ac0 f   main.obj
 0001:001b3af0       ?var_scr_w@@YAXXZ          00000001401b4af0 f   main.obj
 0001:001b3b20       ?quit@@YAXXZ               00000001401b4b20 f   main.obj
 0001:001b3b60       ?cleanup@@YAXXZ            00000001401b4b60 f   main.obj
 0001:001b3e60       ?initwarning@@YA_NPEBDHH@Z 00000001401b4e60 f   main.obj
 0001:001b3e90       ?getfps@@YAXAEAH00@Z       00000001401b4e90 f   main.obj
 0001:001b4030       ?textinput@@YAX_NH@Z       00000001401b5030 f   main.obj
 0001:001b4090       SDL_main                   00000001401b5090 f   main.obj
 0001:001b4990       ?keyrepeat@@YAX_NH@Z       00000001401b5990 f   main.obj
 0001:001b49b0       ?interceptkey@@YA_NH@Z     00000001401b59b0 f   main.obj
 0001:001b4ad0       ?renderprogress@@YAXMPEBDI_N@Z 00000001401b5ad0 f   main.obj
 0001:001b57d0       ?renderbackground@@YAXPEBDPEAUTexture@@00_N2@Z 00000001401b67d0 f   main.obj
 0001:001b6f50       ?fatal@@YAXPEBDZZ          00000001401b7f50 f   main.obj
 0001:001b7270       ?guiprefabpreview@@YAXPEADPEAH0PEAM1@Z 00000001401b8270 f   menus.obj
 0001:001b7360       ?guimodelpreview@@YAXPEAD00PEAMPEAH@Z 00000001401b8360 f   menus.obj
 0001:001b74b0       ?guiplayerpreview@@YAXPEAH00PEADPEAM0@Z 00000001401b84b0 f   menus.obj
 0001:001b7550       ?run@?$_icmd_cleargui@$0CED@@@SAXPEAH@Z 00000001401b8550 f   menus.obj
 0001:001b7580       ?notifywelcome@@YAXXZ      00000001401b8580 f   menus.obj
 0001:001b75d0       ?guiservers@@YAXPEAIPEAH1@Z 00000001401b85d0 f   menus.obj
 0001:001b7690       ?newgui@@YAXPEAD000@Z      00000001401b8690 f   menus.obj
 0001:001b79b0       ?guialign@@YAXPEAHPEAI@Z   00000001401b89b0 f   menus.obj
 0001:001b7a30       ?guilist@@YAXPEAI@Z        00000001401b8a30 f   menus.obj
 0001:001b7a80       ?guikeyfield@@YAXPEADPEAH0@Z 00000001401b8a80 f   menus.obj
 0001:001b7b10       ?guieditor@@YAXPEADPEAH11@Z 00000001401b8b10 f   menus.obj
 0001:001b7b80       ?guifield@@YAXPEADPEAH0@Z  00000001401b8b80 f   menus.obj
 0001:001b7c10       ?guibitfield@@YAXPEAD0PEAH0@Z 00000001401b8c10 f   menus.obj
 0001:001b7cb0       ?guiradio@@YAXPEAD0PEAM0@Z 00000001401b8cb0 f   menus.obj
 0001:001b7d50       ?guicheckbox@@YAXPEAD0PEAM10@Z 00000001401b8d50 f   menus.obj
 0001:001b7e10       ?guinameslider@@YAXPEAD000@Z 00000001401b8e10 f   menus.obj
 0001:001b80b0       ?guilistslider@@YAXPEAD00@Z 00000001401b90b0 f   menus.obj
 0001:001b82c0       ?guislider@@YAXPEADPEAH10@Z 00000001401b92c0 f   menus.obj
 0001:001b8580       ?guicolumn@@YAXPEAH@Z      00000001401b9580 f   menus.obj
 0001:001b85b0       ?guispring@@YAXPEAH@Z      00000001401b95b0 f   menus.obj
 0001:001b85e0       ?guistrut@@YAXPEAMPEAH@Z   00000001401b95e0 f   menus.obj
 0001:001b8620       ?guibar@@YAXXZ             00000001401b9620 f   menus.obj
 0001:001b8640       ?guitab@@YAXPEAD@Z         00000001401b9640 f   menus.obj
 0001:001b8670       ?guititle@@YAXPEAD@Z       00000001401b9670 f   menus.obj
 0001:001b86a0       ?guitext@@YAXPEAD0@Z       00000001401b96a0 f   menus.obj
 0001:001b8700       ?guitextbox@@YAXPEADPEAH11@Z 00000001401b9700 f   menus.obj
 0001:001b8760       ?guicolor@@YAXPEAH@Z       00000001401b9760 f   menus.obj
 0001:001b87c0       ?guiimage@@YAXPEAD0PEAMPEAH0@Z 00000001401b97c0 f   menus.obj
 0001:001b88f0       ?guibutton@@YAXPEAD00@Z    00000001401b98f0 f   menus.obj
 0001:001b8a10       ?guimerge@@YAXPEAI@Z       00000001401b9a10 f   menus.obj
 0001:001b8a70       ?guinoautotab@@YAXPEAI@Z   00000001401b9a70 f   menus.obj
 0001:001b8ac0       ?guistayopen@@YAXPEAI@Z    00000001401b9ac0 f   menus.obj
 0001:001b8af0       ?guionclear@@YAXPEAD@Z     00000001401b9af0 f   menus.obj
 0001:001b8bc0       ?clearguis@@YAXH@Z         00000001401b9bc0 f   menus.obj
 0001:001b8ca0       ?hidegui@@YAXPEBD@Z        00000001401b9ca0 f   menus.obj
 0001:001b8cd0       ?showgui@@YAXPEBD@Z        00000001401b9cd0 f   menus.obj
 0001:001b8df0       ?restoregui@@YAXH@Z        00000001401b9df0 f   menus.obj
 0001:001b8e60       ?pushgui@@YAXPEAUmenu@@H@Z 00000001401b9e60 f   menus.obj
 0001:001b8f50       ?removegui@@YAXPEAUmenu@@@Z 00000001401b9f50 f   menus.obj
 0001:001b8fd0       ?popgui@@YAXXZ             00000001401b9fd0 f   menus.obj
 0001:001b9000       ?addchange@@YAXPEBDH@Z     00000001401ba000 f   menus.obj
 0001:001b91b0       ?clearchanges@@YAXH@Z      00000001401ba1b0 f   menus.obj
 0001:001b9300       ?menuprocess@@YAXXZ        00000001401ba300 f   menus.obj
 0001:001b9570       ?cleargui@@YAHH@Z          00000001401ba570 f   menus.obj
 0001:001b9670       ?g3d_mainmenu@@YAXXZ       00000001401ba670 f   menus.obj
 0001:001b9730       ?clearmainmenu@@YAXXZ      00000001401ba730 f   menus.obj
 0001:001b9770       ?menuinfrontofplayer@@YA?AUvec@@XZ 00000001401ba770 f   menus.obj
 0001:001b9880       ?run@?$_icmd_movierecording@$0EII@@@SAXXZ 00000001401ba880 f   movie.obj
 0001:001b98b0       ?movie@@YAXPEAD@Z          00000001401ba8b0 f   movie.obj
 0001:001b9920       ?drawhud@recorder@@YAXXZ   00000001401ba920 f   movie.obj
 0001:001b9b90       ?readbuffer@recorder@@YA_NXZ 00000001401bab90 f   movie.obj
 0001:001b9cf0       ?readbuffer@recorder@@YAXAEAUvideobuffer@1@I@Z 00000001401bacf0 f   movie.obj
 0001:001ba8a0       ?start@recorder@@YAXPEBDHHH_N@Z 00000001401bb8a0 f   movie.obj
 0001:001bac90       ?soundencoder@recorder@@YAXPEAXPEAEH@Z 00000001401bbc90 f   movie.obj
 0001:001bae10       ?videoencoder@recorder@@YAHPEAX@Z 00000001401bbe10 f   movie.obj
 0001:001bb370       ?gettime@recorder@@YAHXZ   00000001401bc370 f   movie.obj
 0001:001bb390       ?calcquality@recorder@@YAMXZ 00000001401bc390 f   movie.obj
 0001:001bb3d0       ?isrecording@recorder@@YA_NXZ 00000001401bc3d0 f   movie.obj
 0001:001bb3f0       ?stop@recorder@@YAXXZ      00000001401bc3f0 f   movie.obj
 0001:001bb590       ?cleanup@recorder@@YAXXZ   00000001401bc590 f   movie.obj
 0001:001bb640       ?capture@recorder@@YAX_N@Z 00000001401bc640 f   movie.obj
 0001:001bb880       ?updatemumble@@YAXXZ       00000001401bc880 f   sound.obj
 0001:001bba50       ?closemumble@@YAXXZ        00000001401bca50 f   sound.obj
 0001:001bbaa0       ?var_mumble@@YAXXZ         00000001401bcaa0 f   sound.obj
 0001:001bbb00       ?resetsound@@YAXXZ         00000001401bcb00 f   sound.obj
 0001:001bbc60       ?sound@@YAXPEAH@Z          00000001401bcc60 f   sound.obj
 0001:001bbca0       ?stopsound@@YA_NHHH@Z      00000001401bcca0 f   sound.obj
 0001:001bbda0       ?playsound@@YAHHPEBUvec@@PEAUextentity@@HHHHHH@Z 00000001401bcda0 f   sound.obj
 0001:001bc250       ?preloadmapsound@@YAXH@Z   00000001401bd250 f   sound.obj
 0001:001bc2d0       ?preloadsound@@YAXH@Z      00000001401bd2d0 f   sound.obj
 0001:001bc350       ?syncchannels@@YAXXZ       00000001401bd350 f   sound.obj
 0001:001bc400       ?reclaimchannels@@YAXXZ    00000001401bd400 f   sound.obj
 0001:001bc490       ?updatechannel@@YA_NAEAUsoundchannel@@@Z 00000001401bd490 f   sound.obj
 0001:001bc6a0       ?checkmapsounds@@YAXXZ     00000001401bd6a0 f   sound.obj
 0001:001bc830       ?stopmapsound@@YAXPEAUextentity@@@Z 00000001401bd830 f   sound.obj
 0001:001bc8c0       ?stopmapsounds@@YAXXZ      00000001401bd8c0 f   sound.obj
 0001:001bc950       ?resetchannels@@YAXXZ      00000001401bd950 f   sound.obj
 0001:001bc9c0       ?mapsoundreset@@YAXXZ      00000001401bd9c0 f   sound.obj
 0001:001bc9e0       ?soundreset@@YAXXZ         00000001401bd9e0 f   sound.obj
 0001:001bca00       ?run@?$_icmd_nummapsounds@$0BIG@@@SAXXZ 00000001401bda00 f   sound.obj
 0001:001bca20       ?run@?$_icmd_numsounds@$0BIF@@@SAXXZ 00000001401bda20 f   sound.obj
 0001:001bca40       ?altmapsound@@YAXPEADPEAH@Z 00000001401bda40 f   sound.obj
 0001:001bca80       ?altsound@@YAXPEADPEAH@Z   00000001401bda80 f   sound.obj
 0001:001bcac0       ?mapsound@@YAXPEADPEAH1@Z  00000001401bdac0 f   sound.obj
 0001:001bcb10       ?registersound@@YAXPEADPEAH@Z 00000001401bdb10 f   sound.obj
 0001:001bcbe0       ?load@soundsample@@QEAA_N_N@Z 00000001401bdbe0 f   sound.obj
 0001:001bcea0       ?startmusic@@YAXPEAD0@Z    00000001401bdea0 f   sound.obj
 0001:001bd060       ?loadmusic@@YAPEAU_Mix_Music@@PEBD@Z 00000001401be060 f   sound.obj
 0001:001bd170       ?musicdone@@YAXXZ          00000001401be170 f   sound.obj
 0001:001bd230       ?var_soundbufferlen@@YAXXZ 00000001401be230 f   sound.obj
 0001:001bd260       ?var_soundfreq@@YAXXZ      00000001401be260 f   sound.obj
 0001:001bd290       ?var_soundchans@@YAXXZ     00000001401be290 f   sound.obj
 0001:001bd2c0       ?stopmusic@@YAXXZ          00000001401be2c0 f   sound.obj
 0001:001bd380       ?setmusicvol@@YAXH@Z       00000001401be380 f   sound.obj
 0001:001bd3c0       ?var_musicvol@@YAXXZ       00000001401be3c0 f   sound.obj
 0001:001bd410       ?var_soundvol@@YAXXZ       00000001401be410 f   sound.obj
 0001:001bd4d0       ?stopchannels@@YAXXZ       00000001401be4d0 f   sound.obj
 0001:001bd560       ?syncchannel@@YAXAEAUsoundchannel@@@Z 00000001401be560 f   sound.obj
 0001:001bd5b0       ?freechannel@@YAXH@Z       00000001401be5b0 f   sound.obj
 0001:001bd5f0       ?newchannel@@YAAEAUsoundchannel@@HPEAUsoundslot@@PEBUvec@@PEAUextentity@@HH@Z 00000001401be5f0 f   sound.obj
 0001:001bd840       ?stopsounds@@YAXXZ         00000001401be840 f   sound.obj
 0001:001bd8d0       ?initsound@@YAXXZ          00000001401be8d0 f   sound.obj
 0001:001bd990       ?initmumble@@YAXXZ         00000001401be990 f   sound.obj
 0001:001bda80       ?updatesounds@@YAXXZ       00000001401bea80 f   sound.obj
 0001:001bdf70       ?clear_sound@@YAXXZ        00000001401bef70 f   sound.obj
 0001:001be080       ?preloadmapsounds@@YAXXZ   00000001401bf080 f   sound.obj
 0001:001be160       ?clearmapsounds@@YAXXZ     00000001401bf160 f   sound.obj
 0001:001be1c0       ?checkchallenge@@YA_NPEBDPEAX@Z 00000001401bf1c0 f   crypto.obj
 0001:001be230       ?freechallenge@@YAXPEAX@Z  00000001401bf230 f   crypto.obj
 0001:001be240       ?genchallenge@@YAPEAXPEAXPEBXHAEAU?$vector@D@@@Z 00000001401bf240 f   crypto.obj
 0001:001be690       ?freepubkey@@YAXPEAX@Z     00000001401bf690 f   crypto.obj
 0001:001be6a0       ?parsepubkey@@YAPEAXPEBD@Z 00000001401bf6a0 f   crypto.obj
 0001:001be720       ?answerchallenge@@YAXPEBD0AEAU?$vector@D@@@Z 00000001401bf720 f   crypto.obj
 0001:001be840       ?hashstring@@YA_NPEBDPEADH@Z 00000001401bf840 f   crypto.obj
 0001:001beb10       ?genprivkey@@YAXPEBDAEAU?$vector@D@@1@Z 00000001401bfb10 f   crypto.obj
 0001:001beef0       ?hash@tiger@@YAXPEBEHAEAThashval@1@@Z 00000001401bfef0 f   crypto.obj
 0001:001bf070       ?gensboxes@tiger@@YAXXZ    00000001401c0070 f   crypto.obj
 0001:001bf2b0       ?compress@tiger@@YAXPEB_KQEA_K@Z 00000001401c02b0 f   crypto.obj
 0001:001bf980       ?linecylinderintersect@@YA_NAEBUvec@@000MAEAM@Z 00000001401c0980 f   geom.obj
 0001:001bfe00       ?invert@matrix4@@QEAA_NAEBU1@N@Z 00000001401c0e00 f   geom.obj
 0001:001c04f0       ?rayboxintersect@@YA_NAEBUvec@@000AEAMAEAH@Z 00000001401c14f0 f   geom.obj
 0001:001c09b0       ?multidraw@gle@@YAXXZ      00000001401c19b0 f   glemu.obj
 0001:001c0a90       ?setup@gle@@YAXXZ          00000001401c1a90 f   glemu.obj
 0001:001c0b20       ?cleanup@gle@@YAXXZ        00000001401c1b20 f   glemu.obj
 0001:001c0bc0       ?enablequads@gle@@YAXXZ    00000001401c1bc0 f   glemu.obj
 0001:001c0cb0       ?drawquads@gle@@YAXHH@Z    00000001401c1cb0 f   glemu.obj
 0001:001c0d50       ?disablequads@gle@@YAXXZ   00000001401c1d50 f   glemu.obj
 0001:001c0d80       ?begin@gle@@YAXIH@Z        00000001401c1d80 f   glemu.obj
 0001:001c0e90       ?defattrib@gle@@YAXHHH@Z   00000001401c1e90 f   glemu.obj
 0001:001c1080       ?begin@gle@@YAXI@Z         00000001401c2080 f   glemu.obj
 0001:001c1090       ?end@gle@@YAHXZ            00000001401c2090 f   glemu.obj
 0001:001c13a0       ?forcedisable@gle@@YAXXZ   00000001401c23a0 f   glemu.obj
 0001:001c1540       ?opentempfile@@YAPEAUstream@@PEBD0@Z 00000001401c2540 f   stream.obj
 0001:001c15f0       ?openrawfile@@YAPEAUstream@@PEBD0@Z 00000001401c25f0 f   stream.obj
 0001:001c1690       ?printf@stream@@UEAA_KPEBDZZ 00000001401c2690 f   stream.obj
 0001:001c1790       ?getline@stream@@UEAA_NPEAD_K@Z 00000001401c2790 f   stream.obj
 0001:001c1850       ?size@stream@@UEAA_JXZ     00000001401c2850 f   stream.obj
 0001:001c19a0       ?listdir@@YA_NPEBD_N0AEAU?$vector@PEAD@@@Z 00000001401c29a0 f   stream.obj
 0001:001c1c30       ?subhomedir@@YA_NPEADHPEBD@Z 00000001401c2c30 f   stream.obj
 0001:001c1d70       ?fixpackagedir@@YA_KPEAD@Z 00000001401c2d70 f   stream.obj
 0001:001c1db0       ?sethomedir@@YAPEBDPEBD@Z  00000001401c2db0 f   stream.obj
 0001:001c1ea0       ?addpackagedir@@YAPEBDPEBD@Z 00000001401c2ea0 f   stream.obj
 0001:001c21c0       ?decodeutf8@@YA_KPEAE_KPEBE1PEA_K@Z 00000001401c31c0 f   stream.obj
 0001:001c2420       ?loadfile@@YAPEADPEBDPEA_K_N@Z 00000001401c3420 f   stream.obj
 0001:001c2590       ?listfiles@@YAHPEBD0AEAU?$vector@PEAD@@@Z 00000001401c3590 f   stream.obj
 0001:001c2d70       ?rwops@stream@@QEAAPEAUSDL_RWops@@XZ 00000001401c3d70 f   stream.obj
 0001:001c2dd0       ?fileexists@@YA_NPEBD0@Z   00000001401c3dd0 f   stream.obj
 0001:001c2e20       ?createdir@@YA_NPEBD@Z     00000001401c3e20 f   stream.obj
 0001:001c2ea0       ?parentdir@@YAPEBDPEBD@Z   00000001401c3ea0 f   stream.obj
 0001:001c2f20       ?openutf8file@@YAPEAUstream@@PEBD0PEAU1@@Z 00000001401c3f20 f   stream.obj
 0001:001c3060       ?path@@YAPEADPEBD_N@Z      00000001401c4060 f   stream.obj
 0001:001c30c0       ?encodeutf8@@YA_KPEAE_KPEBE1PEA_K@Z 00000001401c40c0 f   stream.obj
 0001:001c3260       ?findfile@@YAPEBDPEBD0@Z   00000001401c4260 f   stream.obj
 0001:001c34f0       ?openfile@@YAPEAUstream@@PEBD0@Z 00000001401c44f0 f   stream.obj
 0001:001c3530       ?makerelpath@@YAPEADPEBD000@Z 00000001401c4530 f   stream.obj
 0001:001c3710       ?opengzfile@@YAPEAUstream@@PEBD0PEAU1@H@Z 00000001401c4710 f   stream.obj
 0001:001c3810       ?path@@YAPEADPEAD@Z        00000001401c4810 f   stream.obj
 0001:001c4710       ?parse@ipmask@@QEAAXPEBD@Z 00000001401c5710 f   tools.obj
 0001:001c4820       ?sendstring@@YAXPEBDAEAU?$databuf@E@@@Z 00000001401c5820 f   tools.obj
 0001:001c4860       ?putfloat@@YAXAEAU?$databuf@E@@M@Z 00000001401c5860 f   tools.obj
 0001:001c48d0       ?putuint@@YAXAEAUpacketbuf@@H@Z 00000001401c58d0 f   tools.obj
 0001:001c48e0       ?putuint@@YAXAEAU?$databuf@E@@H@Z 00000001401c58e0 f   tools.obj
 0001:001c48f0       ?seedMT@@YAXI@Z            00000001401c58f0 f   tools.obj
 0001:001c4940       ??3@YAXPEAX@Z              00000001401c5940 f   tools.obj
 0001:001c4960       ?sendstring@@YAXPEBDAEAU?$vector@E@@@Z 00000001401c5960 f   tools.obj
 0001:001c49c0       ?putfloat@@YAXAEAU?$vector@E@@M@Z 00000001401c59c0 f   tools.obj
 0001:001c4a10       ?putint@@YAXAEAU?$vector@E@@H@Z 00000001401c5a10 f   tools.obj
 0001:001c4a20       ?putuint@@YAXAEAU?$vector@E@@H@Z 00000001401c5a20 f   tools.obj
 0001:001c4a30       ?getfloat@@YAMAEAU?$databuf@E@@@Z 00000001401c5a30 f   tools.obj
 0001:001c4aa0       ?getuint@@YAHAEAU?$databuf@E@@@Z 00000001401c5aa0 f   tools.obj
 0001:001c4b80       ?getint@@YAHAEAU?$databuf@E@@@Z 00000001401c5b80 f   tools.obj
 0001:001c4cc0       ?putint@@YAXAEAU?$databuf@E@@H@Z 00000001401c5cc0 f   tools.obj
 0001:001c4cd0       ?getstring@@YAXPEADAEAU?$databuf@E@@_K@Z 00000001401c5cd0 f   tools.obj
 0001:001c4dd0       ?filtertext@@YAXPEADPEBD_N2_K@Z 00000001401c5dd0 f   tools.obj
 0001:001c4e60       ?putint@@YAXAEAUpacketbuf@@H@Z 00000001401c5e60 f   tools.obj
 0001:001c4e70       ?putfloat@@YAXAEAUpacketbuf@@M@Z 00000001401c5e70 f   tools.obj
 0001:001c4ea0       ?sendstring@@YAXPEBDAEAUpacketbuf@@@Z 00000001401c5ea0 f   tools.obj
 0001:001c4f00       ?randomMT@@YAIXZ           00000001401c5f00 f   tools.obj
 0001:001c5010       ??_U@YAPEAX_K_N@Z          00000001401c6010 f   tools.obj
 0001:001c5020       ??2@YAPEAX_K@Z             00000001401c6020 f   tools.obj
 0001:001c5040       ??_U@YAPEAX_K@Z            00000001401c6040 f   tools.obj
 0001:001c5060       ??_V@YAXPEAX@Z             00000001401c6060 f   tools.obj
 0001:001c51c0       ?run@?$_icmd_removezip@$0CEK@@@SAXPEBD@Z 00000001401c61c0 f   zip.obj
 0001:001c51d0       ?run@?$_icmd_addzip@$0CEJ@@@SAXPEBD00@Z 00000001401c61d0 f   zip.obj
 0001:001c5200       ?removezip@@YA_NPEBD@Z     00000001401c6200 f   zip.obj
 0001:001c5450       ?addzip@@YA_NPEBD00@Z      00000001401c6450 f   zip.obj
 0001:001c61e0       ?findzip@@YAPEAUziparchive@@PEBD@Z 00000001401c71e0 f   zip.obj
 0001:001c6850       ?listzipfiles@@YAHPEBD0AEAU?$vector@PEAD@@@Z 00000001401c7850 f   zip.obj
 0001:001c6c00       ?findzipfile@@YA_NPEBD@Z   00000001401c7c00 f   zip.obj
 0001:001c6cd0       ?openzipfile@@YAPEAUstream@@PEBD0@Z 00000001401c7cd0 f   zip.obj
 0001:001c6fc0       ?render@ai@@YAXXZ          00000001401c7fc0 f   ai.obj
 0001:001c7770       ?drawroute@ai@@YAXPEAUfpsent@@M@Z 00000001401c8770 f   ai.obj
 0001:001c7d20       ?think@ai@@YAXPEAUfpsent@@_N@Z 00000001401c8d20 f   ai.obj
 0001:001c8080       ?avoid@ai@@YAXXZ           00000001401c9080 f   ai.obj
 0001:001c8280       ?logic@ai@@YAXPEAUfpsent@@AEAUaistate@1@_N@Z 00000001401c9280 f   ai.obj
 0001:001c8670       ?timeouts@ai@@YAXPEAUfpsent@@AEAUaistate@1@@Z 00000001401c9670 f   ai.obj
 0001:001c8930       ?request@ai@@YA_NPEAUfpsent@@AEAUaistate@1@@Z 00000001401c9930 f   ai.obj
 0001:001c8ab0       ?hasrange@ai@@YA_NPEAUfpsent@@0H@Z 00000001401c9ab0 f   ai.obj
 0001:001c8b90       ?process@ai@@YAHPEAUfpsent@@AEAUaistate@1@@Z 00000001401c9b90 f   ai.obj
 0001:001c99c0       ?lockon@ai@@YA_NPEAUfpsent@@0M@Z 00000001401ca9c0 f   ai.obj
 0001:001c9a60       ?scaleyawpitch@ai@@YAXAEAM0MMMM@Z 00000001401caa60 f   ai.obj
 0001:001c9bc0       ?getyawpitch@ai@@YAXAEBUvec@@0AEAM1@Z 00000001401cabc0 f   ai.obj
 0001:001c9cb0       ?fixrange@ai@@YAXAEAM0@Z   00000001401cacb0 f   ai.obj
 0001:001c9d20       ?fixfullrange@ai@@YAXAEAM00_N@Z 00000001401cad20 f   ai.obj
 0001:001c9db0       ?jumpto@ai@@YAXPEAUfpsent@@AEAUaistate@1@AEBUvec@@@Z 00000001401cadb0 f   ai.obj
 0001:001c9fe0       ?hunt@ai@@YA_NPEAUfpsent@@AEAUaistate@1@@Z 00000001401cafe0 f   ai.obj
 0001:001ca100       ?checkroute@ai@@YA_NPEAUfpsent@@H@Z 00000001401cb100 f   ai.obj
 0001:001ca390       ?anynode@ai@@YA_NPEAUfpsent@@AEAUaistate@1@H@Z 00000001401cb390 f   ai.obj
 0001:001ca510       ?randomlink@ai@@YAHPEAUfpsent@@H@Z 00000001401cb510 f   ai.obj
 0001:001ca6e0       ?wpspot@ai@@YAHPEAUfpsent@@H_N@Z 00000001401cb6e0 f   ai.obj
 0001:001ca810       ?closenode@ai@@YAHPEAUfpsent@@@Z 00000001401cb810 f   ai.obj
 0001:001caa10       ?dopursue@ai@@YAHPEAUfpsent@@AEAUaistate@1@@Z 00000001401cba10 f   ai.obj
 0001:001cad50       ?dointerest@ai@@YAHPEAUfpsent@@AEAUaistate@1@@Z 00000001401cbd50 f   ai.obj
 0001:001caf20       ?dodefend@ai@@YAHPEAUfpsent@@AEAUaistate@1@@Z 00000001401cbf20 f   ai.obj
 0001:001cb160       ?dowait@ai@@YAHPEAUfpsent@@AEAUaistate@1@@Z 00000001401cc160 f   ai.obj
 0001:001cb260       ?check@ai@@YA_NPEAUfpsent@@AEAUaistate@1@@Z 00000001401cc260 f   ai.obj
 0001:001cb2a0       ?itemspawned@ai@@YAXH@Z    00000001401cc2a0 f   ai.obj
 0001:001cb550       ?killed@ai@@YAXPEAUfpsent@@0@Z 00000001401cc550 f   ai.obj
 0001:001cb570       ?spawned@ai@@YAXPEAUfpsent@@@Z 00000001401cc570 f   ai.obj
 0001:001cb590       ?setup@ai@@YAXPEAUfpsent@@@Z 00000001401cc590 f   ai.obj
 0001:001cb780       ?findorientation@ai@@YAXAEAUvec@@MM0@Z 00000001401cc780 f   ai.obj
 0001:001cb910       ?damaged@ai@@YAXPEAUfpsent@@0@Z 00000001401cc910 f   ai.obj
 0001:001cbbe0       ?find@ai@@YA_NPEAUfpsent@@AEAUaistate@1@_N@Z 00000001401ccbe0 f   ai.obj
 0001:001cc030       ?parseinterests@ai@@YA_NPEAUfpsent@@AEAUaistate@1@AEAU?$vector@Uinterest@ai@@@@_N3@Z 00000001401cd030 f   ai.obj
 0001:001cc3b0       ?items@ai@@YAXPEAUfpsent@@AEAUaistate@1@AEAU?$vector@Uinterest@ai@@@@_N@Z 00000001401cd3b0 f   ai.obj
 0001:001cc6a0       ?assist@ai@@YAXPEAUfpsent@@AEAUaistate@1@AEAU?$vector@Uinterest@ai@@@@_N3@Z 00000001401cd6a0 f   ai.obj
 0001:001cc850       ?hasgoodammo@ai@@YA_NPEAUfpsent@@@Z 00000001401cd850 f   ai.obj
 0001:001cc880       ?isgoodammo@ai@@YAHH@Z     00000001401cd880 f   ai.obj
 0001:001cc8a0       ?target@ai@@YA_NPEAUfpsent@@AEAUaistate@1@H_NM@Z 00000001401cd8a0 f   ai.obj
 0001:001ccc80       ?violence@ai@@YA_NPEAUfpsent@@AEAUaistate@1@0H@Z 00000001401cdc80 f   ai.obj
 0001:001ccdd0       ?defend@ai@@YA_NPEAUfpsent@@AEAUaistate@1@AEBUvec@@MMH@Z 00000001401cddd0 f   ai.obj
 0001:001cd0d0       ?patrol@ai@@YA_NPEAUfpsent@@AEAUaistate@1@AEBUvec@@MMH_N@Z 00000001401ce0d0 f   ai.obj
 0001:001cd2c0       ?enemy@ai@@YA_NPEAUfpsent@@AEAUaistate@1@AEBUvec@@MH@Z 00000001401ce2c0 f   ai.obj
 0001:001cd4e0       ?badhealth@ai@@YA_NPEAUfpsent@@@Z 00000001401ce4e0 f   ai.obj
 0001:001cd510       ?randomnode@ai@@YA_NPEAUfpsent@@AEAUaistate@1@MM@Z 00000001401ce510 f   ai.obj
 0001:001cd570       ?randomnode@ai@@YA_NPEAUfpsent@@AEAUaistate@1@AEBUvec@@MM@Z 00000001401ce570 f   ai.obj
 0001:001cd7c0       ?makeroute@ai@@YA_NPEAUfpsent@@AEAUaistate@1@AEBUvec@@_NH@Z 00000001401ce7c0 f   ai.obj
 0001:001cd810       ?makeroute@ai@@YA_NPEAUfpsent@@AEAUaistate@1@H_NH@Z 00000001401ce810 f   ai.obj
 0001:001cd8b0       ?checkothers@ai@@YA_NAEAU?$vector@H@@PEAUfpsent@@HHH_NPEAH@Z 00000001401ce8b0 f   ai.obj
 0001:001cda70       ?update@ai@@YAXXZ          00000001401cea70 f   ai.obj
 0001:001cdda0       ?init@ai@@YAXPEAUfpsent@@HHHHHPEBD1@Z 00000001401ceda0 f   ai.obj
 0001:001ce2d0       ?destroy@ai@@YAXPEAUfpsent@@@Z 00000001401cf2d0 f   ai.obj
 0001:001ce310       ?create@ai@@YAXPEAUfpsent@@@Z 00000001401cf310 f   ai.obj
 0001:001ce460       ?getaimpos@ai@@YA?AUvec@@PEAUfpsent@@0@Z 00000001401cf460 f   ai.obj
 0001:001ce680       ?hastarget@ai@@YA_NPEAUfpsent@@AEAUaistate@1@0MMM@Z 00000001401cf680 f   ai.obj
 0001:001ce820       ?canshoot@ai@@YA_NPEAUfpsent@@0@Z 00000001401cf820 f   ai.obj
 0001:001ce8f0       ?cansee@ai@@YA_NPEAUfpsent@@AEAUvec@@11@Z 00000001401cf8f0 f   ai.obj
 0001:001ceac0       ?getsight@ai@@YA_NAEAUvec@@MM00MMM@Z 00000001401cfac0 f   ai.obj
 0001:001cec50       ?targetable@ai@@YA_NPEAUfpsent@@0@Z 00000001401cfc50 f   ai.obj
 0001:001cecd0       ?weaprange@ai@@YA_NPEAUfpsent@@HM@Z 00000001401cfcd0 f   ai.obj
 0001:001ced30       ?weapmaxdist@ai@@YAMH@Z    00000001401cfd30 f   ai.obj
 0001:001ced60       ?weapmindist@ai@@YAMH@Z    00000001401cfd60 f   ai.obj
 0001:001ced90       ?canmove@ai@@YA_NPEAUfpsent@@@Z 00000001401cfd90 f   ai.obj
 0001:001cedb0       ?viewfieldy@ai@@YAMH@Z     00000001401cfdb0 f   ai.obj
 0001:001cee00       ?viewfieldx@ai@@YAMH@Z     00000001401cfe00 f   ai.obj
 0001:001cee40       ?viewdist@ai@@YAMH@Z       00000001401cfe40 f   ai.obj
 0001:001cee80       ?run@?$_icmd_botbalance@$0BD@@ai@@SAXPEAH@Z 00000001401cfe80 f   ai.obj
 0001:001ceea0       ?run@?$_icmd_botlimit@$0BC@@ai@@SAXPEAH@Z 00000001401cfea0 f   ai.obj
 0001:001ceec0       ?run@?$_icmd_delbot@$0BB@@ai@@SAXXZ 00000001401cfec0 f   ai.obj
 0001:001ceee0       ?run@?$_icmd_addbot@$0BA@@ai@@SAXPEAD@Z 00000001401cfee0 f   ai.obj
 0001:001cef40       ?checktriggers@entities@@YAXXZ 00000001401cff40 f   entities.obj
 0001:001cf500       ?doleveltrigger@entities@@YAXHH@Z 00000001401d0500 f   entities.obj
 0001:001cf560       ?run@?$_icmd_trigger@$0BPG@@entities@@SAXPEAH0@Z 00000001401d0560 f   entities.obj
 0001:001cf590       ?unlocktriggers@entities@@YAXHHH@Z 00000001401d0590 f   entities.obj
 0001:001cf6b0       ?resettriggers@entities@@YAXXZ 00000001401d06b0 f   entities.obj
 0001:001cf7d0       ?setspawn@entities@@YAXH_N@Z 00000001401d07d0 f   entities.obj
 0001:001cf800       ?spawnitems@entities@@YAX_N@Z 00000001401d0800 f   entities.obj
 0001:001cf910       ?resetspawns@entities@@YAXXZ 00000001401d0910 f   entities.obj
 0001:001cf950       ?putitems@entities@@YAXAEAUpacketbuf@@@Z 00000001401d0950 f   entities.obj
 0001:001cfa20       ?trypickup@entities@@YAXHPEAUfpsent@@@Z 00000001401d0a20 f   entities.obj
 0001:001cfc90       ?teleport@entities@@YAXHPEAUfpsent@@@Z 00000001401d0c90 f   entities.obj
 0001:001cffe0       ?jumppadeffects@entities@@YAXPEAUfpsent@@H_N@Z 00000001401d0fe0 f   entities.obj
 0001:001d0170       ?teleporteffects@entities@@YAXPEAUfpsent@@HH_N@Z 00000001401d1170 f   entities.obj
 0001:001d0390       ?pickupeffects@entities@@YAXHPEAUfpsent@@@Z 00000001401d1390 f   entities.obj
 0001:001d0550       ?repammo@entities@@YAXPEAUfpsent@@H_N@Z 00000001401d1550 f   entities.obj
 0001:001d05f0       ?addammo@entities@@YAXHAEAH_N@Z 00000001401d15f0 f   entities.obj
 0001:001d0680       ?renderentities@entities@@YAXXZ 00000001401d1680 f   entities.obj
 0001:001d08c0       ?preloadentities@entities@@YAXXZ 00000001401d18c0 f   entities.obj
 0001:001d0b00       ?entmdlname@entities@@YAPEBDH@Z 00000001401d1b00 f   entities.obj
 0001:001d0b20       ?itemicon@entities@@YAHH@Z 00000001401d1b20 f   entities.obj
 0001:001d0b60       ?checkquad@entities@@YAXHPEAUfpsent@@@Z 00000001401d1b60 f   entities.obj
 0001:001d0bf0       ?checkitems@entities@@YAXPEAUfpsent@@@Z 00000001401d1bf0 f   entities.obj
 0001:001d0d30       ?animatemapmodel@entities@@YAXAEBUextentity@@AEAH1@Z 00000001401d1d30 f   entities.obj
 0001:001d0d90       ?readent@entities@@YAXAEAUentity@@PEADH@Z 00000001401d1d90 f   entities.obj
 0001:001d0eb0       ?extraentinfosize@entities@@YAHXZ 00000001401d1eb0 f   entities.obj
 0001:001d0ec0       ?writeent@entities@@YAXAEAUentity@@PEAD@Z 00000001401d1ec0 f   entities.obj
 0001:001d0ed0       ?entname@entities@@YAPEBDH@Z 00000001401d1ed0 f   entities.obj
 0001:001d0f00       ?entnameinfo@entities@@YAPEBDAEAUentity@@@Z 00000001401d1f00 f   entities.obj
 0001:001d0f10       ?mayattach@entities@@YA_NAEAUextentity@@@Z 00000001401d1f10 f   entities.obj
 0001:001d0f20       ?attachent@entities@@YA_NAEAUextentity@@0@Z 00000001401d1f20 f   entities.obj
 0001:001d0f30       ?editent@entities@@YAXH_N@Z 00000001401d1f30 f   entities.obj
 0001:001d1030       ?entmodel@entities@@YAPEBDAEBUentity@@@Z 00000001401d2030 f   entities.obj
 0001:001d1080       ?entradius@entities@@YAXAEAUextentity@@_N@Z 00000001401d2080 f   entities.obj
 0001:001d1380       ?fixentity@entities@@YAXAEAUextentity@@@Z 00000001401d2380 f   entities.obj
 0001:001d1420       ?deleteentity@entities@@YAXPEAUextentity@@@Z 00000001401d2420 f   entities.obj
 0001:001d1430       ?printent@entities@@YA_NAEAUextentity@@PEADH@Z 00000001401d2430 f   entities.obj
 0001:001d1440       ?clearents@entities@@YAXXZ 00000001401d2440 f   entities.obj
 0001:001d1490       ?dropheight@entities@@YAMAEAUentity@@@Z 00000001401d2490 f   entities.obj
 0001:001d14b0       ?newentity@entities@@YAPEAUextentity@@XZ 00000001401d24b0 f   entities.obj
 0001:001d1510       ?getents@entities@@YAAEAU?$vector@PEAUextentity@@@@XZ 00000001401d2510 f   entities.obj
 0001:001d1710       ?mastermodeicon@game@@YAPEBDHPEBD@Z 00000001401d2710 f   fps.obj
 0001:001d1740       ?mastermodecolor@game@@YAPEBDHPEBD@Z 00000001401d2740 f   fps.obj
 0001:001d1770       ?drawhudicons@game@@YAXPEAUfpsent@@@Z 00000001401d2770 f   fps.obj
 0001:001d1960       ?drawammohud@game@@YAXPEAUfpsent@@@Z 00000001401d2960 f   fps.obj
 0001:001d1cf0       ?run@?$_icmd_ammohudcycle@$0DAK@@game@@SAXPEAUtagval@@H@Z 00000001401d2cf0 f   fps.obj
 0001:001d1db0       ?run@?$_icmd_ammohuddown@$0DAF@@game@@SAXPEAUtagval@@H@Z 00000001401d2db0 f   fps.obj
 0001:001d1e70       ?run@?$_icmd_ammohudup@$0DAA@@game@@SAXPEAUtagval@@H@Z 00000001401d2e70 f   fps.obj
 0001:001d1f30       ?drawicon@game@@YAXHMMM@Z  00000001401d2f30 f   fps.obj
 0001:001d21e0       ?run@?$_icmd_suicide@$0CNL@@game@@SAXXZ 00000001401d31e0 f   fps.obj
 0001:001d2200       ?teamcolor@game@@YAPEBDPEBD00@Z 00000001401d3200 f   fps.obj
 0001:001d2330       ?teamcolor@game@@YAPEBDPEBD_N0@Z 00000001401d3330 f   fps.obj
 0001:001d2410       ?teamcolorname@game@@YAPEBDPEAUfpsent@@PEBD@Z 00000001401d3410 f   fps.obj
 0001:001d24d0       ?duplicatename@game@@YA_NPEAUfpsent@@PEBD1@Z 00000001401d34d0 f   fps.obj
 0001:001d25a0       ?startgame@game@@YAXXZ     00000001401d35a0 f   fps.obj
 0001:001d29f0       ?clearclients@game@@YAX_N@Z 00000001401d39f0 f   fps.obj
 0001:001d2c40       ?clientdisconnected@game@@YAXH_N@Z 00000001401d3c40 f   fps.obj
 0001:001d2e40       ?run@?$_icmd_gettotalshots@$0BNL@@game@@SAXXZ 00000001401d3e40 f   fps.obj
 0001:001d2e70       ?run@?$_icmd_gettotaldamage@$0BNK@@game@@SAXXZ 00000001401d3e70 f   fps.obj
 0001:001d2ea0       ?run@?$_icmd_getaccuracy@$0BNJ@@game@@SAXXZ 00000001401d3ea0 f   fps.obj
 0001:001d2ee0       ?run@?$_icmd_getdeaths@$0BNI@@game@@SAXXZ 00000001401d3ee0 f   fps.obj
 0001:001d2f10       ?run@?$_icmd_getflags@$0BNH@@game@@SAXXZ 00000001401d3f10 f   fps.obj
 0001:001d2f40       ?run@?$_icmd_getfrags@$0BNG@@game@@SAXXZ 00000001401d3f40 f   fps.obj
 0001:001d2f70       ?timeupdate@game@@YAXH@Z   00000001401d3f70 f   fps.obj
 0001:001d31c0       ?killed@game@@YAXPEAUfpsent@@0@Z 00000001401d41c0 f   fps.obj
 0001:001d3470       ?deathstate@game@@YAXPEAUfpsent@@_N@Z 00000001401d4470 f   fps.obj
 0001:001d3650       ?damaged@game@@YAXHPEAUfpsent@@0_N@Z 00000001401d4650 f   fps.obj
 0001:001d3870       ?respawn@game@@YAXXZ       00000001401d4870 f   fps.obj
 0001:001d3cf0       ?spawnplayer@game@@YAXPEAUfpsent@@@Z 00000001401d4cf0 f   fps.obj
 0001:001d3d80       ?checkslowmo@game@@YAXXZ   00000001401d4d80 f   fps.obj
 0001:001d3e60       ?var_slowmosp@game@@YAXXZ  00000001401d4e60 f   fps.obj
 0001:001d3ee0       ?otherplayers@game@@YAXH@Z 00000001401d4ee0 f   fps.obj
 0001:001d42d0       ?predictplayer@game@@YAXPEAUfpsent@@_N@Z 00000001401d52d0 f   fps.obj
 0001:001d4440       ?hudplayer@game@@YAPEAUfpsent@@XZ 00000001401d5440 f   fps.obj
 0001:001d44b0       ?followingplayer@game@@YAPEAUfpsent@@XZ 00000001401d54b0 f   fps.obj
 0001:001d4500       ?stopfollowing@game@@YAXXZ 00000001401d5500 f   fps.obj
 0001:001d4530       ?respawnself@game@@YAXXZ   00000001401d5530 f   fps.obj
 0001:001d4610       ?spawnstate@game@@YAPEAUfpsent@@PEAU2@@Z 00000001401d5610 f   fps.obj
 0001:001d4640       ?run@?$_icmd_nextfollow@$0EC@@game@@SAXPEAH@Z 00000001401d5640 f   fps.obj
 0001:001d4660       ?nextfollow@game@@YAXH@Z   00000001401d5660 f   fps.obj
 0001:001d4760       ?follow@game@@YAXPEAD@Z    00000001401d5760 f   fps.obj
 0001:001d4800       ?run@?$_icmd_getfollow@$0BP@@game@@SAXXZ 00000001401d5800 f   fps.obj
 0001:001d4880       ?taunt@game@@YAXXZ         00000001401d5880 f   fps.obj
 0001:001d48d0       ?clientoption@game@@YA_NPEBD@Z 00000001401d58d0 f   fps.obj
 0001:001d48e0       ?msgsound@game@@YAXHPEAUphysent@@@Z 00000001401d58e0 f   fps.obj
 0001:001d4990       ?newclient@game@@YAPEAUfpsent@@H@Z 00000001401d5990 f   fps.obj
 0001:001d4b60       ?colorname@game@@YAPEBDPEAUfpsent@@PEBD111@Z 00000001401d5b60 f   fps.obj
 0001:001d4d40       ?getclient@game@@YAPEAUfpsent@@H@Z 00000001401d5d40 f   fps.obj
 0001:001d4d80       ?initclient@game@@YAXXZ    00000001401d5d80 f   fps.obj
 0001:001d4e50       ?restoreconfig@game@@YAPEBDXZ 00000001401d5e50 f   fps.obj
 0001:001d4e60       ?loadconfigs@game@@YAXXZ   00000001401d5e60 f   fps.obj
 0001:001d4ea0       ?updateworld@game@@YAXXZ   00000001401d5ea0 f   fps.obj
 0001:001d56e0       ?clipconsole@game@@YAHHH@Z 00000001401d66e0 f   fps.obj
 0001:001d5710       ?savedconfig@game@@YAPEBDXZ 00000001401d6710 f   fps.obj
 0001:001d5720       ?autoexec@game@@YAPEBDXZ   00000001401d6720 f   fps.obj
 0001:001d5730       ?defaultconfig@game@@YAPEBDXZ 00000001401d6730 f   fps.obj
 0001:001d5740       ?lighteffects@game@@YAXPEAUdynent@@AEAUvec@@1@Z 00000001401d6740 f   fps.obj
 0001:001d5750       ?setupcamera@game@@YAXXZ   00000001401d6750 f   fps.obj
 0001:001d5810       ?detachcamera@game@@YA_NXZ 00000001401d6810 f   fps.obj
 0001:001d5830       ?collidecamera@game@@YA_NXZ 00000001401d6830 f   fps.obj
 0001:001d58a0       ?needminimap@game@@YA_NXZ  00000001401d68a0 f   fps.obj
 0001:001d5960       ?defaultcrosshair@game@@YAPEBDH@Z 00000001401d6960 f   fps.obj
 0001:001d5990       ?selectcrosshair@game@@YAHAEAUvec@@@Z 00000001401d6990 f   fps.obj
 0001:001d5b50       ?gameplayhud@game@@YAXHH@Z 00000001401d6b50 f   fps.obj
 0001:001d6220       ?abovegameplayhud@game@@YAMHH@Z 00000001401d7220 f   fps.obj
 0001:001d6260       ?serverinfostartcolumn@game@@YA_NPEAUg3d_gui@@H@Z 00000001401d7260 f   fps.obj
 0001:001d6310       ?serverinfoentry@game@@YA_NPEAUg3d_gui@@HPEBDH11HAEBU?$vector@H@@H@Z 00000001401d7310 f   fps.obj
 0001:001d66f0       ?serverinfoendcolumn@game@@YAXPEAUg3d_gui@@H@Z 00000001401d76f0 f   fps.obj
 0001:001d6740       ?savedservers@game@@YAPEBDXZ 00000001401d7740 f   fps.obj
 0001:001d6750       ?writegamedata@game@@YAXAEAU?$vector@D@@@Z 00000001401d7750 f   fps.obj
 0001:001d6760       ?getmapinfo@game@@YAPEBDXZ 00000001401d7760 f   fps.obj
 0001:001d67a0       ?loadingmap@game@@YAXPEBD@Z 00000001401d77a0 f   fps.obj
 0001:001d67e0       ?readgamedata@game@@YAXAEAU?$vector@D@@@Z 00000001401d77e0 f   fps.obj
 0001:001d67f0       ?startmap@game@@YAXPEBD@Z  00000001401d77f0 f   fps.obj
 0001:001d6920       ?numdynents@game@@YAHXZ    00000001401d7920 f   fps.obj
 0001:001d6940       ?iterdynents@game@@YAPEAUdynent@@H@Z 00000001401d7940 f   fps.obj
 0001:001d69a0       ?dynentcollide@game@@YAXPEAUphysent@@0AEBUvec@@@Z 00000001401d79a0 f   fps.obj
 0001:001d6a10       ?allowmove@game@@YA_NPEAUphysent@@@Z 00000001401d7a10 f   fps.obj
 0001:001d6a40       ?physicstrigger@game@@YAXPEAUphysent@@_NHHH@Z 00000001401d7a40 f   fps.obj
 0001:001d6b40       ?suicide@game@@YAXPEAUphysent@@@Z 00000001401d7b40 f   fps.obj
 0001:001d6c80       ?canjump@game@@YA_NXZ      00000001401d7c80 f   fps.obj
 0001:001d6cc0       ?doattack@game@@YAX_N@Z    00000001401d7cc0 f   fps.obj
 0001:001d6cf0       ?resetgamestate@game@@YAXXZ 00000001401d7cf0 f   fps.obj
 0001:001d6e10       ?getclientmap@game@@YAPEBDXZ 00000001401d7e10 f   fps.obj
 0001:001d6eb0       ?hitmonster@game@@YAXHPEAUmonster@1@PEAUfpsent@@AEBUvec@@H@Z 00000001401d7eb0 f   monster.obj
 0001:001d6ed0       ?rendermonsters@game@@YAXXZ 00000001401d7ed0 f   monster.obj
 0001:001d70e0       ?monsterkilled@game@@YAXXZ 00000001401d80e0 f   monster.obj
 0001:001d7130       ?run@?$_icmd_endsp@$0BFM@@game@@SAXXZ 00000001401d8130 f   monster.obj
 0001:001d71a0       ?spawnmonster@game@@YAXXZ  00000001401d81a0 f   monster.obj
 0001:001d7280       ?preloadmonsters@game@@YAXXZ 00000001401d8280 f   monster.obj
 0001:001d74b0       ?run@?$_icmd_nummonsters@$0BBK@@game@@SAXPEAH0@Z 00000001401d84b0 f   monster.obj
 0001:001d7520       ?nummonsters@game@@YAHHH@Z 00000001401d8520 f   monster.obj
 0001:001d7580       ?clearmonsters@game@@YAXXZ 00000001401d8580 f   monster.obj
 0001:001d7980       ?updatemonsters@game@@YAXH@Z 00000001401d8980 f   monster.obj
 0001:001d7cd0       ?spsummary@game@@YAXH@Z    00000001401d8cd0 f   monster.obj
 0001:001d7f50       ?stackmonster@game@@YAXPEAUmonster@1@PEAUphysent@@@Z 00000001401d8f50 f   monster.obj
 0001:001d7f80       ?suicidemonster@game@@YAXPEAUmonster@1@@Z 00000001401d8f80 f   monster.obj
 0001:001d7fa0       ?endsp@game@@YAX_N@Z       00000001401d8fa0 f   monster.obj
 0001:001d8040       ?hitmovable@game@@YAXHPEAUmovable@1@PEAUfpsent@@AEBUvec@@H@Z 00000001401d9040 f   movable.obj
 0001:001d8120       ?rendermovables@game@@YAXXZ 00000001401d9120 f   movable.obj
 0001:001d8250       ?run@?$_icmd_platform@$0HK@@game@@SAXPEAH0@Z 00000001401d9250 f   movable.obj
 0001:001d83f0       ?triggerplatform@game@@YAXHH@Z 00000001401d93f0 f   movable.obj
 0001:001d8590       ?clearmovables@game@@YAXXZ 00000001401d9590 f   movable.obj
 0001:001d8820       ?updatemovables@game@@YAXH@Z 00000001401d9820 f   movable.obj
 0001:001d8c10       ?stackmovable@game@@YAXPEAUmovable@1@PEAUphysent@@@Z 00000001401d9c10 f   movable.obj
 0001:001d8c40       ?suicidemovable@game@@YAXPEAUmovable@1@@Z 00000001401d9c40 f   movable.obj
 0001:001d8d50       ?preloadsounds@game@@YAXXZ 00000001401d9d50 f   render.obj
 0001:001d8f50       ?preloadweapons@game@@YAXXZ 00000001401d9f50 f   render.obj
 0001:001d90f0       ?hudgunorigin@game@@YA?AUvec@@HAEBU2@0PEAUfpsent@@@Z 00000001401da0f0 f   render.obj
 0001:001d94b0       ?drawhudgun@game@@YAXXZ    00000001401da4b0 f   render.obj
 0001:001d95b0       ?drawhudmodel@game@@YAXPEAUfpsent@@HMH@Z 00000001401da5b0 f   render.obj
 0001:001d9a50       ?renderplayer@game@@YAXPEAUfpsent@@AEBUplayermodelinfo@1@HM_N@Z 00000001401daa50 f   render.obj
 0001:001d9f00       ?preloadplayermodel@game@@YAXXZ 00000001401daf00 f   render.obj
 0001:001da110       ?changedplayermodel@game@@YAXXZ 00000001401db110 f   render.obj
 0001:001da280       ?getplayermodelinfo@game@@YAAEBUplayermodelinfo@1@PEAUfpsent@@@Z 00000001401db280 f   render.obj
 0001:001da2e0       ?getplayermodelinfo@game@@YAPEBUplayermodelinfo@1@H@Z 00000001401db2e0 f   render.obj
 0001:001da310       ?saveragdoll@game@@YAXPEAUfpsent@@@Z 00000001401db310 f   render.obj
 0001:001da430       ?var_playermodel@game@@YAXXZ 00000001401db430 f   render.obj
 0001:001da5a0       ?moveragdolls@game@@YAXXZ  00000001401db5a0 f   render.obj
 0001:001da690       ?swayhudgun@game@@YAXH@Z   00000001401db690 f   render.obj
 0001:001da8f0       ?clearragdolls@game@@YAXXZ 00000001401db8f0 f   render.obj
 0001:001da950       ?chooserandomplayermodel@game@@YAHH@Z 00000001401db950 f   render.obj
 0001:001da980       ?renderavatar@game@@YAXXZ  00000001401db980 f   render.obj
 0001:001daa80       ?rendergame@game@@YAX_N@Z  00000001401dba80 f   render.obj
 0001:001db7d0       ?renderplayerpreview@game@@YAXHHH@Z 00000001401dc7d0 f   render.obj
 0001:001dba90       ?preload@game@@YAXXZ       00000001401dca90 f   render.obj
 0001:001dc8a0       ?run@?$_icmd_showscores@$0BJI@@game@@SAXPEAH@Z 00000001401dd8a0 f   scoreboard.obj
 0001:001dc910       ?var_scoreboard@game@@YAXXZ 00000001401dd910 f   scoreboard.obj
 0001:001dc970       ?renderscoreboard@game@@YAXAEAUg3d_gui@@_N@Z 00000001401dd970 f   scoreboard.obj
 0001:001de1e0       ?setteaminfo@game@@YAXPEBDH@Z 00000001401df1e0 f   scoreboard.obj
 0001:001de350       ?getbestteams@game@@YAXAEAU?$vector@PEBD@@@Z 00000001401df350 f   scoreboard.obj
 0001:001de900       ?getbestplayers@game@@YAXAEAU?$vector@PEAUfpsent@@@@@Z 00000001401df900 f   scoreboard.obj
 0001:001deab0       ?showscores@game@@YAX_N@Z  00000001401dfab0 f   scoreboard.obj
 0001:001deb10       ?clearteaminfo@game@@YAXXZ 00000001401dfb10 f   scoreboard.obj
 0001:001deba0       ?g3d_gamemenus@game@@YAXXZ 00000001401dfba0 f   scoreboard.obj
 0001:001decd0       ?run@?$_icmd_movewaypoints@$0DCG@@ai@@SAXPEAH00@Z 00000001401dfcd0 f   waypoint.obj
 0001:001dee50       ?movewaypoints@ai@@YAXAEBUvec@@@Z 00000001401dfe50 f   waypoint.obj
 0001:001defb0       ?delselwaypoints@ai@@YAXXZ 00000001401dffb0 f   waypoint.obj
 0001:001df1c0       ?run@?$_icmd_savewaypoints@$0CPF@@ai@@SAXPEAD@Z 00000001401e01c0 f   waypoint.obj
 0001:001df1d0       ?run@?$_icmd_loadwaypoints@$0CNI@@ai@@SAXPEAD@Z 00000001401e01d0 f   waypoint.obj
 0001:001df1e0       ?getwaypointfile@ai@@YA_NPEBDPEAD@Z 00000001401e01e0 f   waypoint.obj
 0001:001df270       ?cleanwaypoints@ai@@YA_NXZ 00000001401e0270 f   waypoint.obj
 0001:001df440       ?remapwaypoints@ai@@YAXXZ  00000001401e0440 f   waypoint.obj
 0001:001df680       ?seedwaypoints@ai@@YAXXZ   00000001401e0680 f   waypoint.obj
 0001:001df840       ?run@?$_icmd_clearwaypoints@$0CGB@@ai@@SAXXZ 00000001401e0840 f   waypoint.obj
 0001:001df850       ?navigate@ai@@YAXPEAUfpsent@@@Z 00000001401e0850 f   waypoint.obj
 0001:001dfb50       ?linkwaypoint@ai@@YAXAEAUwaypoint@1@H@Z 00000001401e0b50 f   waypoint.obj
 0001:001dfcd0       ?addwaypoint@ai@@YAHAEBUvec@@H@Z 00000001401e0cd0 f   waypoint.obj
 0001:001dfdd0       ?var_dropwaypoints@ai@@YAXXZ 00000001401e0dd0 f   waypoint.obj
 0001:001dfe10       ?buildwpcache@ai@@YAXXZ    00000001401e0e10 f   waypoint.obj
 0001:001dff30       ?run@?$_icmd_clearwpcache@$0LL@@ai@@SAXXZ 00000001401e0f30 f   waypoint.obj
 0001:001dfff0       ?clearwpcache@ai@@YAX_N@Z  00000001401e0ff0 f   waypoint.obj
 0001:001e0150       ?getweight@ai@@YAHAEBUvec@@@Z 00000001401e1150 f   waypoint.obj
 0001:001e02c0       ?clipped@ai@@YA_NAEBUvec@@@Z 00000001401e12c0 f   waypoint.obj
 0001:001e0300       ?navigate@ai@@YAXXZ        00000001401e1300 f   waypoint.obj
 0001:001e0470       ?savewaypoints@ai@@YAX_NPEBD@Z 00000001401e1470 f   waypoint.obj
 0001:001e0800       ?clearwaypoints@ai@@YAX_N@Z 00000001401e1800 f   waypoint.obj
 0001:001e08e0       ?inferwaypoints@ai@@YAXPEAUfpsent@@AEBUvec@@1M@Z 00000001401e18e0 f   waypoint.obj
 0001:001e0aa0       ?loadwaypoints@ai@@YAX_NPEBD@Z 00000001401e1aa0 f   waypoint.obj
 0001:001e1080       ?route@ai@@YA_NPEAUfpsent@@HHAEAU?$vector@H@@AEBUavoidset@1@H@Z 00000001401e2080 f   waypoint.obj
 0001:001e1b20       ?closestwaypoint@ai@@YAHAEBUvec@@M_NPEAUfpsent@@@Z 00000001401e2b20 f   waypoint.obj
 0001:001e2080       ?findwaypointswithin@ai@@YAXAEBUvec@@MMAEAU?$vector@H@@@Z 00000001401e3080 f   waypoint.obj
 0001:001e2490       ?remap@avoidset@ai@@QEAAHPEAUfpsent@@HAEAUvec@@_N@Z 00000001401e3490 f   waypoint.obj
 0001:001e26b0       ?avoidnear@avoidset@ai@@QEAAXPEAXMAEBUvec@@M@Z 00000001401e36b0 f   waypoint.obj
 0001:001e2c10       ?checkidlesound@game@@YAXPEAUfpsent@@_N@Z 00000001401e3c10 f   weapon.obj
 0001:001e2d70       ?checkattacksound@game@@YAXPEAUfpsent@@_N@Z 00000001401e3d70 f   weapon.obj
 0001:001e2f10       ?raydamage@game@@YAXAEAUvec@@0PEAUfpsent@@@Z 00000001401e3f10 f   weapon.obj
 0001:001e3460       ?shorten@game@@YAXAEAUvec@@0M@Z 00000001401e4460 f   weapon.obj
 0001:001e34c0       ?shoteffects@game@@YAXHAEBUvec@@0PEAUfpsent@@_NHH@Z 00000001401e44c0 f   weapon.obj
 0001:001e4270       ?updateprojectiles@game@@YAXH@Z 00000001401e5270 f   weapon.obj
 0001:001e4b60       ?projdamage@game@@YA_NPEAUdynent@@AEAUprojectile@1@AEAUvec@@H@Z 00000001401e5b60 f   weapon.obj
 0001:001e4ce0       ?explodeeffects@game@@YAXHPEAUfpsent@@_NH@Z 00000001401e5ce0 f   weapon.obj
 0001:001e5080       ?projsplash@game@@YAXAEAUprojectile@1@AEAUvec@@PEAUdynent@@H@Z 00000001401e6080 f   weapon.obj
 0001:001e5280       ?explode@game@@YAX_NPEAUfpsent@@AEBUvec@@PEAUdynent@@HHU3@@Z 00000001401e6280 f   weapon.obj
 0001:001e5940       ?radialeffect@game@@YAXPEAUdynent@@AEBUvec@@HPEAUfpsent@@H@Z 00000001401e6940 f   weapon.obj
 0001:001e5a70       ?projdist@game@@YAMPEAUdynent@@AEAUvec@@AEBU3@@Z 00000001401e6a70 f   weapon.obj
 0001:001e5b30       ?hitpush@game@@YAXHPEAUdynent@@PEAUfpsent@@AEAUvec@@2HH@Z 00000001401e6b30 f   weapon.obj
 0001:001e5c50       ?hit@game@@YAXHPEAUdynent@@PEAUfpsent@@AEBUvec@@HMH@Z 00000001401e6c50 f   weapon.obj
 0001:001e6120       ?spawnbouncer@game@@YAXAEBUvec@@0PEAUfpsent@@HPEAUentitylight@@@Z 00000001401e7120 f   weapon.obj
 0001:001e62e0       ?removeprojectiles@game@@YAXPEAUfpsent@@@Z 00000001401e72e0 f   weapon.obj
 0001:001e63f0       ?newprojectile@game@@YAXAEBUvec@@0M_NHPEAUfpsent@@H@Z 00000001401e73f0 f   weapon.obj
 0001:001e6770       ?removebouncers@game@@YAXPEAUfpsent@@@Z 00000001401e7770 f   weapon.obj
 0001:001e6830       ?updatebouncers@game@@YAXH@Z 00000001401e7830 f   weapon.obj
 0001:001e6fb0       ?newbouncer@game@@YAXAEBUvec@@0_NHPEAUfpsent@@HHHPEAUentitylight@@@Z 00000001401e7fb0 f   weapon.obj
 0001:001e75d0       ?createrays@game@@YAXHAEBUvec@@0@Z 00000001401e85d0 f   weapon.obj
 0001:001e7910       ?offsetray@game@@YAXAEBUvec@@0HMAEAU2@@Z 00000001401e8910 f   weapon.obj
 0001:001e7bc0       ?run@?$_icmd_weapon@$0JM@@game@@SAXPEAUtagval@@H@Z 00000001401e8bc0 f   weapon.obj
 0001:001e7d00       ?weaponswitch@game@@YAXPEAUfpsent@@@Z 00000001401e8d00 f   weapon.obj
 0001:001e7de0       ?run@?$_icmd_cycleweapon@$0HO@@game@@SAXPEAUtagval@@H@Z 00000001401e8de0 f   weapon.obj
 0001:001e7f40       ?cycleweapon@game@@YAXHPEAH_N@Z 00000001401e8f40 f   weapon.obj
 0001:001e8020       ?run@?$_icmd_setweapon@$0GG@@game@@SAXPEADPEAH@Z 00000001401e9020 f   weapon.obj
 0001:001e80a0       ?setweapon@game@@YAXPEBD_N@Z 00000001401e90a0 f   weapon.obj
 0001:001e8120       ?run@?$_icmd_nextweapon@$0FF@@game@@SAXPEAH0@Z 00000001401e9120 f   weapon.obj
 0001:001e8140       ?nextweapon@game@@YAXH_N@Z 00000001401e9140 f   weapon.obj
 0001:001e82f0       ?convertToRGB@game@@YAHUvec@@@Z 00000001401e92f0 f   weapon.obj
 0001:001e8330       ?rainbowGradient@game@@YA?AUvec@@M@Z 00000001401e9330 f   weapon.obj
 0001:001e8430       ?run@?$_icmd_getweapon@$0BG@@game@@SAXXZ 00000001401e9430 f   weapon.obj
 0001:001e8460       ?renderbouncers@game@@YAXXZ 00000001401e9460 f   weapon.obj
 0001:001e8800       ?renderprojectiles@game@@YAXXZ 00000001401e9800 f   weapon.obj
 0001:001e8b60       ?preloadbouncers@game@@YAXXZ 00000001401e9b60 f   weapon.obj
 0001:001e8d00       ?explode@game@@YAX_NPEAUfpsent@@AEBUvec@@PEAUdynent@@HH@Z 00000001401e9d00 f   weapon.obj
 0001:001e8d50       ?clearprojectiles@game@@YAXXZ 00000001401e9d50 f   weapon.obj
 0001:001e8d70       ?clearbouncers@game@@YAXXZ 00000001401e9d70 f   weapon.obj
 0001:001e8dc0       ?intersect@game@@YA_NPEAUdynent@@AEBUvec@@1AEAM@Z 00000001401e9dc0 f   weapon.obj
 0001:001e8e30       ?updateweapons@game@@YAXH@Z 00000001401e9e30 f   weapon.obj
 0001:001e91e0       ?damageeffect@game@@YAXHPEAUfpsent@@_N@Z 00000001401ea1e0 f   weapon.obj
 0001:001e9340       ?gibeffect@game@@YAXHAEBUvec@@PEAUfpsent@@@Z 00000001401ea340 f   weapon.obj
 0001:001e9400       ?getweapon@game@@YAHPEBD@Z 00000001401ea400 f   weapon.obj
 0001:001e94e0       ?removeweapons@game@@YAXPEAUfpsent@@@Z 00000001401ea4e0 f   weapon.obj
 0001:001e96a0       ?intersectclosest@game@@YAPEAUdynent@@AEBUvec@@0PEAUfpsent@@AEAM@Z 00000001401ea6a0 f   weapon.obj
 0001:001e9820       ?gunselect@game@@YAXHPEAUfpsent@@@Z 00000001401ea820 f   weapon.obj
 0001:001e98b0       ?shoot@game@@YAXPEAUfpsent@@AEBUvec@@@Z 00000001401ea8b0 f   weapon.obj
 0001:001e9e30       ?avoidweapons@game@@YAXAEAUavoidset@ai@@M@Z 00000001401eae30 f   weapon.obj
 0001:001e9f60       ?particletrack@game@@YAXPEAUphysent@@AEAUvec@@1@Z 00000001401eaf60 f   weapon.obj
 0001:001ea0a0       ?adddynlights@game@@YAXXZ  00000001401eb0a0 f   weapon.obj
 0001:001ea310       ?dynlighttrack@game@@YAXPEAUphysent@@AEAUvec@@1@Z 00000001401eb310 f   weapon.obj
 0001:001ea3a0       ?bounced@game@@YAXPEAUphysent@@AEBUvec@@@Z 00000001401eb3a0 f   weapon.obj
 0001:001ea860       ?gotosel@game@@YAXXZ       00000001401eb860 f   client1.obj
 0001:001eaa10       ?gotoplayer@game@@YAXPEBD@Z 00000001401eba10 f   client1.obj
 0001:001eab40       ?sendmap@game@@YAXXZ       00000001401ebb40 f   client1.obj
 0001:001ead00       ?listdemos@game@@YAXXZ     00000001401ebd00 f   client1.obj
 0001:001ead30       ?run@?$_icmd_getdemo@$0HPM@@game@@SAXPEAH@Z 00000001401ebd30 f   client1.obj
 0001:001ead80       ?getdemo@game@@YAXH@Z      00000001401ebd80 f   client1.obj
 0001:001eadd0       ?run@?$_icmd_cleardemos@$0HPE@@game@@SAXPEAH@Z 00000001401ebdd0 f   client1.obj
 0001:001eae10       ?cleardemos@game@@YAXH@Z   00000001401ebe10 f   client1.obj
 0001:001eae50       ?run@?$_icmd_recorddemo@$0HON@@game@@SAXPEAH@Z 00000001401ebe50 f   client1.obj
 0001:001eae90       ?recorddemo@game@@YAXH@Z   00000001401ebe90 f   client1.obj
 0001:001eaed0       ?stopdemo@game@@YAXXZ      00000001401ebed0 f   client1.obj
 0001:001eaf30       ?getmap@game@@YAXXZ        00000001401ebf30 f   client1.obj
 0001:001eafa0       ?receivefile@game@@YAXAEAUpacketbuf@@@Z 00000001401ebfa0 f   client1.obj
 0001:001eb320       ?parsemessages@game@@YAXHPEAUfpsent@@AEAU?$databuf@E@@@Z 00000001401ec320 f   client1.obj
 0001:001ef950       ?parsestate@game@@YAXPEAUfpsent@@AEAU?$databuf@E@@_N@Z 00000001401f0950 f   client1.obj
 0001:001efaf0       ?parsepositions@game@@YAXAEAU?$databuf@E@@@Z 00000001401f0af0 f   client1.obj
 0001:001f07d0       ?updatepos@game@@YAXPEAUfpsent@@@Z 00000001401f17d0 f   client1.obj
 0001:001f0910       ?sendintro@game@@YAXXZ     00000001401f1910 f   client1.obj
 0001:001f0c50       ?sendmessages@game@@YAXXZ  00000001401f1c50 f   client1.obj
 0001:001f1000       ?sendpositions@game@@YAXXZ 00000001401f2000 f   client1.obj
 0001:001f1c30       ?run@?$_icmd_servcmd@$0DJF@@game@@SAXPEAD@Z 00000001401f2c30 f   client1.obj
 0001:001f1c50       ?sayteam@game@@YAXPEAD@Z   00000001401f2c50 f   client1.obj
 0001:001f1db0       ?run@?$_icmd_gamespeed@$0DBM@@game@@SAXPEAH0PEAUident@@@Z 00000001401f2db0 f   client1.obj
 0001:001f1e90       ?changegamespeed@game@@YAXH@Z 00000001401f2e90 f   client1.obj
 0001:001f1ed0       ?run@?$_icmd_paused@$0DAL@@game@@SAXPEAH0PEAUident@@@Z 00000001401f2ed0 f   client1.obj
 0001:001f1f70       ?run@?$_icmd_pausegame@$0DAF@@game@@SAXPEAH@Z 00000001401f2f70 f   client1.obj
 0001:001f1f90       ?pausegame@game@@YAX_N@Z   00000001401f2f90 f   client1.obj
 0001:001f2010       ?printvar@game@@YAXPEAUfpsent@@PEAUident@@@Z 00000001401f3010 f   client1.obj
 0001:001f21b0       ?sendclipboard@game@@YAXXZ 00000001401f31b0 f   client1.obj
 0001:001f2460       ?run@?$_icmd_map@$0CDP@@game@@SAXPEAD@Z 00000001401f3460 f   client1.obj
 0001:001f2490       ?run@?$_icmds_@$0CDA@@game@@SAXPEAH@Z 00000001401f3490 f   client1.obj
 0001:001f24e0       ?run@?$_icmds_@$0CCP@@game@@SAXPEAH@Z 00000001401f34e0 f   client1.obj
 0001:001f2530       ?run@?$_icmds_@$0CCO@@game@@SAXPEAH@Z 00000001401f3530 f   client1.obj
 0001:001f2580       ?run@?$_icmds_@$0CCN@@game@@SAXPEAH@Z 00000001401f3580 f   client1.obj
 0001:001f25d0       ?run@?$_icmds_@$0CCM@@game@@SAXPEAH@Z 00000001401f35d0 f   client1.obj
 0001:001f2620       ?run@?$_icmds_@$0CCL@@game@@SAXPEAH@Z 00000001401f3620 f   client1.obj
 0001:001f2670       ?run@?$_icmds_@$0CCK@@game@@SAXPEAH@Z 00000001401f3670 f   client1.obj
 0001:001f26c0       ?run@?$_icmds_@$0CCJ@@game@@SAXPEAH@Z 00000001401f36c0 f   client1.obj
 0001:001f2710       ?run@?$_icmds_@$0CCI@@game@@SAXPEAH@Z 00000001401f3710 f   client1.obj
 0001:001f2760       ?run@?$_icmds_@$0CCH@@game@@SAXPEAH@Z 00000001401f3760 f   client1.obj
 0001:001f27b0       ?run@?$_icmds_@$0CCG@@game@@SAXPEAH@Z 00000001401f37b0 f   client1.obj
 0001:001f2800       ?run@?$_icmds_@$0CCF@@game@@SAXPEAH@Z 00000001401f3800 f   client1.obj
 0001:001f2850       ?run@?$_icmds_@$0CCE@@game@@SAXPEAH@Z 00000001401f3850 f   client1.obj
 0001:001f28a0       ?run@?$_icmds_@$0CCD@@game@@SAXPEAH@Z 00000001401f38a0 f   client1.obj
 0001:001f28f0       ?run@?$_icmds_@$0CCC@@game@@SAXPEAH@Z 00000001401f38f0 f   client1.obj
 0001:001f2940       ?run@?$_icmds_@$0CCB@@game@@SAXPEAH@Z 00000001401f3940 f   client1.obj
 0001:001f2990       ?run@?$_icmds_@$0CCA@@game@@SAXPEAH@Z 00000001401f3990 f   client1.obj
 0001:001f29e0       ?run@?$_icmds_@$0CBP@@game@@SAXPEAH@Z 00000001401f39e0 f   client1.obj
 0001:001f2a30       ?run@?$_icmd_timeremaining@$0CBO@@game@@SAXPEAH@Z 00000001401f3a30 f   client1.obj
 0001:001f2b30       ?run@?$_icmd_getmode@$0CBE@@game@@SAXXZ 00000001401f3b30 f   client1.obj
 0001:001f2b50       ?run@?$_icmd_mode@$0CBD@@game@@SAXPEAH@Z 00000001401f3b50 f   client1.obj
 0001:001f2c00       ?setmode@game@@YAXH@Z      00000001401f3c00 f   client1.obj
 0001:001f2cb0       ?changemapserv@game@@YAXPEBDH@Z 00000001401f3cb0 f   client1.obj
 0001:001f2e60       ?run@?$_icmd_checkmaps@$0BOP@@game@@SAXXZ 00000001401f3e60 f   client1.obj
 0001:001f2e80       ?run@?$_icmd_spectator@$0BON@@game@@SAXPEAHPEAD@Z 00000001401f3e80 f   client1.obj
 0001:001f2ed0       ?togglespectator@game@@YAXHPEBD@Z 00000001401f3ed0 f   client1.obj
 0001:001f2f20       ?run@?$_icmd_dauth@$0BOG@@game@@SAXPEAD@Z 00000001401f3f20 f   client1.obj
 0001:001f2f70       ?run@?$_icmd_sauth@$0BOF@@game@@SAXXZ 00000001401f3f70 f   client1.obj
 0001:001f2fc0       ?run@?$_icmd_auth@$0BOE@@game@@SAXPEAD@Z 00000001401f3fc0 f   client1.obj
 0001:001f3000       ?tryauth@game@@YA_NPEBD@Z  00000001401f4000 f   client1.obj
 0001:001f3050       ?run@?$_icmd_mastermode@$0BNK@@game@@SAXPEAH@Z 00000001401f4050 f   client1.obj
 0001:001f3070       ?setmaster@game@@YAXPEBD0@Z 00000001401f4070 f   client1.obj
 0001:001f3160       ?hashpwd@game@@YAXPEBD@Z   00000001401f4160 f   client1.obj
 0001:001f3210       ?setteam@game@@YAXPEBD0@Z  00000001401f4210 f   client1.obj
 0001:001f3250       ?run@?$_icmd_isignored@$0BLF@@game@@SAXPEAD@Z 00000001401f4250 f   client1.obj
 0001:001f32b0       ?run@?$_icmd_unignore@$0BLE@@game@@SAXPEAD@Z 00000001401f42b0 f   client1.obj
 0001:001f32d0       ?run@?$_icmd_ignore@$0BLD@@game@@SAXPEAD@Z 00000001401f42d0 f   client1.obj
 0001:001f33a0       ?isignored@game@@YA_NH@Z   00000001401f43a0 f   client1.obj
 0001:001f33e0       ?ignore@game@@YAXH@Z       00000001401f43e0 f   client1.obj
 0001:001f34a0       ?run@?$_icmd_dauthkick@$0BJN@@game@@SAXPEBD00@Z 00000001401f44a0 f   client1.obj
 0001:001f34b0       ?run@?$_icmd_sauthkick@$0BJM@@game@@SAXPEBD0@Z 00000001401f44b0 f   client1.obj
 0001:001f3540       ?run@?$_icmd_authkick@$0BJL@@game@@SAXPEBD0@Z 00000001401f4540 f   client1.obj
 0001:001f35d0       ?authkick@game@@YAXPEBD00@Z 00000001401f45d0 f   client1.obj
 0001:001f3650       ?kick@game@@YAXPEBD0@Z     00000001401f4650 f   client1.obj
 0001:001f36a0       ?clearbans@game@@YAXXZ     00000001401f46a0 f   client1.obj
 0001:001f36c0       ?run@?$_icmd_listclients@$0BIC@@game@@SAXPEAH0@Z 00000001401f46c0 f   client1.obj
 0001:001f36e0       ?listclients@game@@YAX_N0@Z 00000001401f46e0 f   client1.obj
 0001:001f39d0       ?run@?$_icmd_getclientnum@$0BGM@@game@@SAXPEAD@Z 00000001401f49d0 f   client1.obj
 0001:001f3a10       ?run@?$_icmd_isai@$0BFD@@game@@SAXPEAH0@Z 00000001401f4a10 f   client1.obj
 0001:001f3a80       ?isai@game@@YA_NHH@Z       00000001401f4a80 f   client1.obj
 0001:001f3ae0       ?run@?$_icmd_isspectator@$0BEL@@game@@SAXPEAH@Z 00000001401f4ae0 f   client1.obj
 0001:001f3b50       ?isspectator@game@@YA_NH@Z 00000001401f4b50 f   client1.obj
 0001:001f3b90       ?run@?$_icmd_mastermodename@$0BEE@@game@@SAXPEAH@Z 00000001401f4b90 f   client1.obj
 0001:001f3be0       ?run@?$_icmd_getmastermode@$0BED@@game@@SAXXZ 00000001401f4be0 f   client1.obj
 0001:001f3c00       ?run@?$_icmd_isadmin@$0BEB@@game@@SAXPEAH@Z 00000001401f4c00 f   client1.obj
 0001:001f3c70       ?isadmin@game@@YA_NH@Z     00000001401f4c70 f   client1.obj
 0001:001f3cc0       ?run@?$_icmd_isauth@$0BDK@@game@@SAXPEAH@Z 00000001401f4cc0 f   client1.obj
 0001:001f3d30       ?isauth@game@@YA_NH@Z      00000001401f4d30 f   client1.obj
 0001:001f3d80       ?run@?$_icmd_ismaster@$0BDD@@game@@SAXPEAH@Z 00000001401f4d80 f   client1.obj
 0001:001f3df0       ?ismaster@game@@YA_NH@Z    00000001401f4df0 f   client1.obj
 0001:001f3e40       ?run@?$_icmd_getclienticon@$0BCM@@game@@SAXPEAH@Z 00000001401f4e40 f   client1.obj
 0001:001f3f30       ?getclienticon@game@@YAPEBDH@Z 00000001401f4f30 f   client1.obj
 0001:001f4010       ?run@?$_icmd_getclientmodel@$0BCD@@game@@SAXPEAH@Z 00000001401f5010 f   client1.obj
 0001:001f4080       ?getclientmodel@game@@YAHH@Z 00000001401f5080 f   client1.obj
 0001:001f40d0       ?run@?$_icmd_getclientteam@$0BBM@@game@@SAXPEAH@Z 00000001401f50d0 f   client1.obj
 0001:001f4140       ?getclientteam@game@@YAPEBDH@Z 00000001401f5140 f   client1.obj
 0001:001f4190       ?run@?$_icmd_getclientname@$0BBF@@game@@SAXPEAH@Z 00000001401f5190 f   client1.obj
 0001:001f4200       ?getclientname@game@@YAPEBDH@Z 00000001401f5200 f   client1.obj
 0001:001f4250       ?saveauthkeys@game@@YAXXZ  00000001401f5250 f   client1.obj
 0001:001f43c0       ?genauthkey@game@@YAXPEBD@Z 00000001401f53c0 f   client1.obj
 0001:001f4470       ?run@?$_icmd_hasauthkey@$0NE@@game@@SAXPEAD0@Z 00000001401f5470 f   client1.obj
 0001:001f4540       ?hasauthkey@game@@YA_NPEBD0@Z 00000001401f5540 f   client1.obj
 0001:001f45f0       ?run@?$_icmd_authkey@$0ML@@game@@SAXPEAD00@Z 00000001401f55f0 f   client1.obj
 0001:001f4600       ?addauthkey@game@@YAXPEBD00@Z 00000001401f5600 f   client1.obj
 0001:001f4880       ?findauthkey@game@@YAPEAUauthkey@1@PEBD@Z 00000001401f5880 f   client1.obj
 0001:001f49a0       ?run@?$_icmd_getteam@$0KB@@game@@SAXXZ 00000001401f59a0 f   client1.obj
 0001:001f49e0       ?run@?$_icmd_team@$0KA@@game@@SAXPEADPEAH@Z 00000001401f59e0 f   client1.obj
 0001:001f4ac0       ?printteam@game@@YAXXZ     00000001401f5ac0 f   client1.obj
 0001:001f4ae0       ?switchteam@game@@YAXPEBD@Z 00000001401f5ae0 f   client1.obj
 0001:001f4b60       ?run@?$_icmd_getname@$0JA@@game@@SAXXZ 00000001401f5b60 f   client1.obj
 0001:001f4ba0       ?run@?$_icmd_name@$0IP@@game@@SAXPEADPEAH@Z 00000001401f5ba0 f   client1.obj
 0001:001f4ea0       ?printname@game@@YAXXZ     00000001401f5ea0 f   client1.obj
 0001:001f4fc0       ?switchname@game@@YAXPEBD@Z 00000001401f5fc0 f   client1.obj
 0001:001f5080       ?run@?$_icmd_dropflag@$0ELA@@game@@SAXXZ 00000001401f6080 f   client1.obj
 0001:001f50f0       ?run@?$_icmd_insidebases@$0DAM@@game@@SAXXZ 00000001401f60f0 f   client1.obj
 0001:001f5440       ?run@?$_icmd_repammo@$0CPM@@game@@SAXXZ 00000001401f6440 f   client1.obj
 0001:001f55c0       ?drawteammates@game@@YAXPEAUfpsent@@MMM@Z 00000001401f65c0 f   client1.obj
 0001:001f5980       ?drawteammate@game@@YAXPEAUfpsent@@MMM0M@Z 00000001401f6980 f   client1.obj
 0001:001f5d40       ?drawradar@game@@YAXMMM@Z  00000001401f6d40 f   client1.obj
 0001:001f5f70       ?drawminimap@game@@YAXPEAUfpsent@@MMM@Z 00000001401f6f70 f   client1.obj
 0001:001f6220       ?calcradarscale@game@@YAMXZ 00000001401f7220 f   client1.obj
 0001:001f6260       ?forceintermission@game@@YAXXZ 00000001401f7260 f   client1.obj
 0001:001f62b0       ?parseplayer@game@@YAHPEBD@Z 00000001401f72b0 f   client1.obj
 0001:001f63d0       ?c2sinfo@game@@YAX_N@Z     00000001401f73d0 f   client1.obj
 0001:001f6420       ?changemap@game@@YAXPEBDH@Z 00000001401f7420 f   client1.obj
 0001:001f6580       ?unignore@game@@YAXH@Z     00000001401f7580 f   client1.obj
 0001:001f66b0       ?setclientmode@game@@YAXXZ 00000001401f76b0 f   client1.obj
 0001:001f6750       ?switchplayermodel@game@@YAXH@Z 00000001401f7750 f   client1.obj
 0001:001f6790       ?sendmapinfo@game@@YAXXZ   00000001401f7790 f   client1.obj
 0001:001f67d0       ?sendposition@game@@YAXPEAUfpsent@@_N@Z 00000001401f77d0 f   client1.obj
 0001:001f68f0       ?addmsg@game@@YA_NHPEBDZZ  00000001401f78f0 f   client1.obj
 0001:001f6d60       ?changemap@game@@YAXPEBD@Z 00000001401f7d60 f   client1.obj
 0001:001f6d90       ?toserver@game@@YAXPEAD@Z  00000001401f7d90 f   client1.obj
 0001:001f6ef0       ?vartrigger@game@@YAXPEAUident@@@Z 00000001401f7ef0 f   client1.obj
 0001:001f6fd0       ?writeclientinfo@game@@YAXPEAUstream@@@Z 00000001401f7fd0 f   client1.obj
 0001:001f7020       ?allowmouselook@game@@YA_NXZ 00000001401f8020 f   client1.obj
 0001:001f7070       ?ispaused@game@@YA_NXZ     00000001401f8070 f   client1.obj
 0001:001f7080       ?connectfail@game@@YAXXZ   00000001401f8080 f   client1.obj
 0001:001f70a0       ?connectattempt@game@@YAXPEBD0AEBU_ENetAddress@@@Z 00000001401f80a0 f   client1.obj
 0001:001f70f0       ?gamedisconnect@game@@YAX_N@Z 00000001401f80f0 f   client1.obj
 0001:001f7210       ?parsepacketclient@game@@YAXHAEAUpacketbuf@@@Z 00000001401f8210 f   client1.obj
 0001:001f7250       ?gameconnect@game@@YAX_N@Z 00000001401f8250 f   client1.obj
 0001:001f7270       ?newmap@game@@YAXH@Z       00000001401f8270 f   client1.obj
 0001:001f7290       ?scaletime@game@@YAHH@Z    00000001401f8290 f   client1.obj
 0001:001f72a0       ?allowedittoggle@game@@YA_NXZ 00000001401f82a0 f   client1.obj
 0001:001f7350       ?edittoggled@game@@YAX_N@Z 00000001401f8350 f   client1.obj
 0001:001f73f0       ?edittrigger@game@@YAXAEBUselinfo@@HHHHPEBUVSlot@@@Z 00000001401f83f0 f   client1.obj
 0001:001f7a70       ?forceedit@game@@YAXPEBD@Z 00000001401f8a70 f   client1.obj
 0001:001f7f40       ?changeteam@aiman@server@@YAXPEAUclientinfo@2@@Z 00000001401f8f40 f   server1.obj
 0001:001f7f70       ?addclient@aiman@server@@YAXPEAUclientinfo@2@@Z 00000001401f8f70 f   server1.obj
 0001:001f7fa0       ?changemap@aiman@server@@YAXXZ 00000001401f8fa0 f   server1.obj
 0001:001f8070       ?setbotbalance@aiman@server@@YAXPEAUclientinfo@2@_N@Z 00000001401f9070 f   server1.obj
 0001:001f8100       ?setbotlimit@aiman@server@@YAXPEAUclientinfo@2@H@Z 00000001401f9100 f   server1.obj
 0001:001f8190       ?reqdel@aiman@server@@YAXPEAUclientinfo@2@@Z 00000001401f9190 f   server1.obj
 0001:001f81f0       ?reqadd@aiman@server@@YAXPEAUclientinfo@2@H@Z 00000001401f91f0 f   server1.obj
 0001:001f8260       ?checkai@aiman@server@@YAXXZ 00000001401f9260 f   server1.obj
 0001:001f83d0       ?clearai@aiman@server@@YAXXZ 00000001401f93d0 f   server1.obj
 0001:001f85a0       ?checksetup@aiman@server@@YAXXZ 00000001401f95a0 f   server1.obj
 0001:001f87e0       ?reassignai@aiman@server@@YA_NXZ 00000001401f97e0 f   server1.obj
 0001:001f88c0       ?removeai@aiman@server@@YAXPEAUclientinfo@2@@Z 00000001401f98c0 f   server1.obj
 0001:001f8920       ?shiftai@aiman@server@@YAXPEAUclientinfo@2@0@Z 00000001401f9920 f   server1.obj
 0001:001f8a00       ?reinitai@aiman@server@@YAXPEAUclientinfo@2@@Z 00000001401f9a00 f   server1.obj
 0001:001f8bc0       ?deleteai@aiman@server@@YA_NXZ 00000001401f9bc0 f   server1.obj
 0001:001f8d80       ?deleteai@aiman@server@@YAXPEAUclientinfo@2@@Z 00000001401f9d80 f   server1.obj
 0001:001f8f10       ?addai@aiman@server@@YA_NHH@Z 00000001401f9f10 f   server1.obj
 0001:001f9290       ?findaiclient@aiman@server@@YAPEAUclientinfo@2@PEAU32@@Z 00000001401fa290 f   server1.obj
 0001:001f9360       ?chooseteam@aiman@server@@YAPEBDXZ 00000001401fa360 f   server1.obj
 0001:001f93d0       ?balanceteams@aiman@server@@YAXXZ 00000001401fa3d0 f   server1.obj
 0001:001f9700       ?calcteams@aiman@server@@YAXAEAU?$vector@Uteamscore@@@@@Z 00000001401fa700 f   server1.obj
 0001:001f99e0       ?extserverinforeply@server@@YAXAEAU?$databuf@E@@0@Z 00000001401fa9e0 f   server1.obj
 0001:001f9c60       ?extinfoteams@server@@YAXAEAU?$databuf@E@@@Z 00000001401fac60 f   server1.obj
 0001:001fa1a0       ?extinfoplayer@server@@YAXAEAU?$databuf@E@@PEAUclientinfo@1@@Z 00000001401fb1a0 f   server1.obj
 0001:001fa3d0       ?connected@server@@YAXPEAUclientinfo@1@@Z 00000001401fb3d0 f   server1.obj
 0001:001fa910       ?sendclipboard@server@@YAXPEAUclientinfo@1@@Z 00000001401fb910 f   server1.obj
 0001:001faa30       ?receivefile@server@@YAXHPEAEH@Z 00000001401fba30 f   server1.obj
 0001:001fab50       ?answerchallenge@server@@YA_NPEAUclientinfo@1@IPEADPEBD@Z 00000001401fbb50 f   server1.obj
 0001:001fae40       ?tryauth@server@@YA_NPEAUclientinfo@1@PEBD1@Z 00000001401fbe40 f   server1.obj
 0001:001fb170       ?authchallenged@server@@YAXIPEBD0@Z 00000001401fc170 f   server1.obj
 0001:001fb200       ?authsucceeded@server@@YAXI@Z 00000001401fc200 f   server1.obj
 0001:001fb360       ?authfailed@server@@YAXI@Z 00000001401fc360 f   server1.obj
 0001:001fb430       ?authfailed@server@@YAXPEAUclientinfo@1@@Z 00000001401fc430 f   server1.obj
 0001:001fb4b0       ?findauth@server@@YAPEAUclientinfo@1@I@Z 00000001401fc4b0 f   server1.obj
 0001:001fb500       ?allowconnect@server@@YAHPEAUclientinfo@1@PEBD@Z 00000001401fc500 f   server1.obj
 0001:001fb680       ?run@?$_icmd_ipban@$0KCM@@server@@SAXPEBD@Z 00000001401fc680 f   server1.obj
 0001:001fb6a0       ?run@?$_icmd_clearipbans@$0KCL@@server@@SAXXZ 00000001401fc6a0 f   server1.obj
 0001:001fb6d0       ?verifybans@server@@YAXXZ  00000001401fc6d0 f   server1.obj
 0001:001fb770       ?checkbans@server@@YA_NI@Z 00000001401fc770 f   server1.obj
 0001:001fb820       ?noclients@server@@YAXXZ   00000001401fc820 f   server1.obj
 0001:001fb840       ?sendservinfo@server@@YAXPEAUclientinfo@1@@Z 00000001401fc840 f   server1.obj
 0001:001fb8b0       ?unspectate@server@@YAXPEAUclientinfo@1@@Z 00000001401fc8b0 f   server1.obj
 0001:001fba10       ?shouldspectate@server@@YA_NPEAUclientinfo@1@@Z 00000001401fca10 f   server1.obj
 0001:001fba50       ?checkmaps@server@@YAXH@Z  00000001401fca50 f   server1.obj
 0001:001fbf30       ?forcespectator@server@@YAXPEAUclientinfo@1@@Z 00000001401fcf30 f   server1.obj
 0001:001fc010       ?cleartimedevents@server@@YAXPEAUclientinfo@1@@Z 00000001401fd010 f   server1.obj
 0001:001fc1a0       ?processevents@server@@YAXXZ 00000001401fd1a0 f   server1.obj
 0001:001fc2d0       ?flushevents@server@@YAXPEAUclientinfo@1@H@Z 00000001401fd2d0 f   server1.obj
 0001:001fc390       ?clearevent@server@@YAXPEAUclientinfo@1@@Z 00000001401fd390 f   server1.obj
 0001:001fc410       ?flush@timedevent@server@@UEAA_NPEAUclientinfo@2@H@Z 00000001401fd410 f   server1.obj
 0001:001fc450       ?flush@gameevent@server@@UEAA_NPEAUclientinfo@2@H@Z 00000001401fd450 f   server1.obj
 0001:001fc470       ?process@pickupevent@server@@UEAAXPEAUclientinfo@2@@Z 00000001401fd470 f   server1.obj
 0001:001fc5f0       ?process@shotevent@server@@UEAAXPEAUclientinfo@2@@Z 00000001401fd5f0 f   server1.obj
 0001:001fc9a0       ?process@explodeevent@server@@UEAAXPEAUclientinfo@2@@Z 00000001401fd9a0 f   server1.obj
 0001:001fcc70       ?process@suicideevent@server@@UEAAXPEAUclientinfo@2@@Z 00000001401fdc70 f   server1.obj
 0001:001fcc80       ?suicide@server@@YAXPEAUclientinfo@1@@Z 00000001401fdc80 f   server1.obj
 0001:001fce20       ?dodamage@server@@YAXPEAUclientinfo@1@0HHAEBUvec@@@Z 00000001401fde20 f   server1.obj
 0001:001fd2d0       ?checkintermission@server@@YAXXZ 00000001401fe2d0 f   server1.obj
 0001:001fd380       ?vote@server@@YAXPEBDHH@Z  00000001401fe380 f   server1.obj
 0001:001fd670       ?checkvotes@server@@YAX_N@Z 00000001401fe670 f   server1.obj
 0001:001fd980       ?rotatemap@server@@YAX_N@Z 00000001401fe980 f   server1.obj
 0001:001fdb10       ?changemap@server@@YAXPEBDH@Z 00000001401feb10 f   server1.obj
 0001:001fe210       ?loaditems@server@@YAXXZ   00000001401ff210 f   server1.obj
 0001:001fe4e0       ?sendinitclient@server@@YAXPEAUclientinfo@1@@Z 00000001401ff4e0 f   server1.obj
 0001:001fe5b0       ?sendresume@server@@YAXPEAUclientinfo@1@@Z 00000001401ff5b0 f   server1.obj
 0001:001fe670       ?restorescore@server@@YA_NPEAUclientinfo@1@@Z 00000001401ff670 f   server1.obj
 0001:001fe730       ?welcomepacket@server@@YAHAEAUpacketbuf@@PEAUclientinfo@1@@Z 00000001401ff730 f   server1.obj
 0001:001fee10       ?hasmap@server@@YA_NPEAUclientinfo@1@@Z 00000001401ffe10 f   server1.obj
 0001:001fef10       ?welcomeinitclient@server@@YAXAEAUpacketbuf@@H@Z 00000001401fff10 f   server1.obj
 0001:001ff0d0       ?putinitclient@server@@YAXPEAUclientinfo@1@AEAUpacketbuf@@@Z 00000001402000d0 f   server1.obj
 0001:001ff240       ?sendwelcome@server@@YAXPEAUclientinfo@1@@Z 0000000140200240 f   server1.obj
 0001:001ff320       ?sendspawn@server@@YAXPEAUclientinfo@1@@Z 0000000140200320 f   server1.obj
 0001:001ff3c0       ?spawnstate@server@@YAXPEAUclientinfo@1@@Z 00000001402003c0 f   server1.obj
 0001:001ff400       ?buildworldstate@server@@YA_NXZ 0000000140200400 f   server1.obj
 0001:001fff80       ?flushclientposition@server@@YAXAEAUclientinfo@1@@Z 0000000140200f80 f   server1.obj
 0001:00200080       ?cleanworldstate@server@@YAXPEAU_ENetPacket@@@Z 0000000140201080 f   server1.obj
 0001:00200140       ?checktype@server@@YAHHPEAUclientinfo@1@@Z 0000000140201140 f   server1.obj
 0001:00200280       ?savescore@server@@YAXPEAUclientinfo@1@@Z 0000000140201280 f   server1.obj
 0001:00200320       ?findscore@server@@YAPEAUsavedscore@1@PEAUclientinfo@1@_N@Z 0000000140201320 f   server1.obj
 0001:00200650       ?trykick@server@@YA_NPEAUclientinfo@1@HPEBD11H_N@Z 0000000140201650 f   server1.obj
 0001:00200930       ?setmaster@server@@YA_NPEAUclientinfo@1@_NPEBD22H11@Z 0000000140201930 f   server1.obj
 0001:00200db0       ?revokemaster@server@@YAXPEAUclientinfo@1@@Z 0000000140201db0 f   server1.obj
 0001:00200de0       ?checkpassword@server@@YA_NPEAUclientinfo@1@PEBD1@Z 0000000140201de0 f   server1.obj
 0001:00200e40       ?clearusers@server@@YAXXZ  0000000140201e40 f   server1.obj
 0001:00200ef0       ?adduser@server@@YAXPEAD000@Z 0000000140201ef0 f   server1.obj
 0001:00201180       ?changegamespeed@server@@YAXHPEAUclientinfo@1@@Z 0000000140202180 f   server1.obj
 0001:002011e0       ?checkpausegame@server@@YAXXZ 00000001402021e0 f   server1.obj
 0001:00201290       ?pausegame@server@@YAX_NPEAUclientinfo@1@@Z 0000000140202290 f   server1.obj
 0001:002012f0       ?readdemo@server@@YAXXZ    00000001402022f0 f   server1.obj
 0001:00201440       ?setupdemoplayback@server@@YAXXZ 0000000140202440 f   server1.obj
 0001:00201730       ?enddemoplayback@server@@YAXXZ 0000000140202730 f   server1.obj
 0001:00201830       ?senddemo@server@@YAXPEAUclientinfo@1@H@Z 0000000140202830 f   server1.obj
 0001:00201960       ?cleardemos@server@@YAXH@Z 0000000140202960 f   server1.obj
 0001:00201b10       ?listdemos@server@@YAXH@Z  0000000140202b10 f   server1.obj
 0001:00201c70       ?setupdemorecord@server@@YAXXZ 0000000140202c70 f   server1.obj
 0001:00201ee0       ?writedemo@server@@YAXHPEAXH@Z 0000000140202ee0 f   server1.obj
 0001:00201f70       ?enddemorecord@server@@YAXXZ 0000000140202f70 f   server1.obj
 0001:00202130       ?adddemo@server@@YAXXZ     0000000140203130 f   server1.obj
 0001:002023d0       ?prunedemos@server@@YAXH@Z 00000001402033d0 f   server1.obj
 0001:00202520       ?chooseworstteam@server@@YAPEBDPEBDPEAUclientinfo@1@@Z 0000000140203520 f   server1.obj
 0001:00202710       ?autoteam@server@@YAXXZ    0000000140203710 f   server1.obj
 0001:00202af0       ?choosebestclient@server@@YAPEAUclientinfo@1@AEAM@Z 0000000140203af0 f   server1.obj
 0001:00202ba0       ?addteaminfo@server@@YAPEAUteaminfo@@PEBD@Z 0000000140203ba0 f   server1.obj
 0001:00202ee0       ?pruneteaminfo@server@@YA_NXZ 0000000140203ee0 f   server1.obj
 0001:002030d0       ?teamhasplayers@server@@YA_NPEBD@Z 00000001402040d0 f   server1.obj
 0001:00203140       ?clearteaminfo@server@@YAXXZ 0000000140204140 f   server1.obj
 0001:002031d0       ?pickup@server@@YA_NHH@Z   00000001402041d0 f   server1.obj
 0001:00203300       ?spawntime@server@@YAHH@Z  0000000140204300 f   server1.obj
 0001:00203430       ?canspawnitem@server@@YA_NH@Z 0000000140204430 f   server1.obj
 0001:00203480       ?colorname@server@@YAPEBDPEAUclientinfo@1@PEBD@Z 0000000140204480 f   server1.obj
 0001:00203580       ?duplicatename@server@@YA_NPEAUclientinfo@1@PEBD@Z 0000000140204580 f   server1.obj
 0001:00203610       ?numclients@server@@YAHH_N00@Z 0000000140204610 f   server1.obj
 0001:00203690       ?serveroption@server@@YA_NPEBD@Z 0000000140204690 f   server1.obj
 0001:00203730       ?resetitems@server@@YAXXZ  0000000140204730 f   server1.obj
 0001:00203750       ?sendservmsgf@server@@YAXPEBDZZ 0000000140204750 f   server1.obj
 0001:002037e0       ?privname@server@@YAPEBDH@Z 00000001402047e0 f   server1.obj
 0001:00203820       ?getinfo@server@@YAPEAUclientinfo@1@H@Z 0000000140204820 f   server1.obj
 0001:00203880       ?checkteamkills@server@@YAXXZ 0000000140204880 f   server1.obj
 0001:00203a50       ?addteamkill@server@@YAXPEAUclientinfo@1@0H@Z 0000000140204a50 f   server1.obj
 0001:00203c00       ?addteamkillkick@server@@YAXPEADPEAH1@Z 0000000140204c00 f   server1.obj
 0001:00203f00       ?teamkillkickreset@server@@YAXXZ 0000000140204f00 f   server1.obj
 0001:00203f20       ?var_publicserver@server@@YAXXZ 0000000140204f20 f   server1.obj
 0001:00203f60       ?addmaprotations@server@@YAXPEAUtagval@@H@Z 0000000140204f60 f   server1.obj
 0001:00204160       ?addmaprotation@server@@YA_NHPEBD@Z 0000000140205160 f   server1.obj
 0001:00204420       ?genmodemask@server@@YAHAEAU?$vector@PEAD@@@Z 0000000140205420 f   server1.obj
 0001:00204940       ?searchmodename@server@@YA_NPEBD0@Z 0000000140205940 f   server1.obj
 0001:002049e0       ?findmaprotation@server@@YAHHPEBD@Z 00000001402059e0 f   server1.obj
 0001:00204c90       ?nextmaprotation@server@@YAXXZ 0000000140205c90 f   server1.obj
 0001:00204cf0       ?maprotationreset@server@@YAXXZ 0000000140205cf0 f   server1.obj
 0001:00204d10       ?kickclients@server@@YAXIPEAUclientinfo@1@H@Z 0000000140205d10 f   server1.obj
 0001:00204df0       ?addban@server@@YAXIH@Z    0000000140205df0 f   server1.obj
 0001:00204f80       ?hashpassword@server@@YAXHHPEBDPEADH@Z 0000000140205f80 f   server1.obj
 0001:00205050       ?forcemap@server@@YAXPEBDH@Z 0000000140206050 f   server1.obj
 0001:00205160       ?startintermission@server@@YAXXZ 0000000140206160 f   server1.obj
 0001:00205190       ?forcepaused@server@@YAX_N@Z 0000000140206190 f   server1.obj
 0001:002051e0       ?msgsizelookup@server@@YAHH@Z 00000001402061e0 f   server1.obj
 0001:00205260       ?stopdemo@server@@YAXXZ    0000000140206260 f   server1.obj
 0001:002052a0       ?forcegamespeed@server@@YAXH@Z 00000001402062a0 f   server1.obj
 0001:00205300       ?modename@server@@YAPEBDHPEBD@Z 0000000140206300 f   server1.obj
 0001:00205330       ?mastermodename@server@@YAPEBDHPEBD@Z 0000000140206330 f   server1.obj
 0001:00205360       ?delayspawn@server@@YA_NH@Z 0000000140206360 f   server1.obj
 0001:002053b0       ?parseoptions@game@@YAXAEAU?$vector@PEBD@@@Z 00000001402063b0 f   server1.obj
 0001:00205480       ?servercompatible@server@@YA_NPEAD00HAEBU?$vector@H@@H@Z 0000000140206480 f   server1.obj
 0001:002054b0       ?newclientinfo@server@@YAPEAXXZ 00000001402064b0 f   server1.obj
 0001:002054f0       ?deleteclientinfo@server@@YAXPEAX@Z 00000001402064f0 f   server1.obj
 0001:00205520       ?recordpacket@server@@YAXHPEAXH@Z 0000000140206520 f   server1.obj
 0001:00205530       ?allowbroadcast@server@@YA_NH@Z 0000000140206530 f   server1.obj
 0001:002055a0       ?clientdisconnect@server@@YAXH@Z 00000001402065a0 f   server1.obj
 0001:00205970       ?sendservmsg@server@@YAXPEBD@Z 0000000140206970 f   server1.obj
 0001:002059a0       ?parsepacket@server@@YAXHHAEAUpacketbuf@@@Z 00000001402069a0 f   server1.obj
 0001:0020a1d0       ?masterdisconnected@server@@YAXXZ 000000014020b1d0 f   server1.obj
 0001:0020a280       ?defaultmaster@server@@YAPEBDXZ 000000014020b280 f   server1.obj
 0001:0020a290       ?masterport@server@@YAHXZ  000000014020b290 f   server1.obj
 0001:0020a2a0       ?processmasterinput@server@@YAXPEBDH0@Z 000000014020b2a0 f   server1.obj
 0001:0020a670       ?serverinforeply@server@@YAXAEAU?$databuf@E@@0@Z 000000014020b670 f   server1.obj
 0001:0020a8c0       ?masterconnected@server@@YAXXZ 000000014020b8c0 f   server1.obj
 0001:0020a8d0       ?serverupdate@server@@YAXXZ 000000014020b8d0 f   server1.obj
 0001:0020af80       ?sendpackets@server@@YA_N_N@Z 000000014020bf80 f   server1.obj
 0001:0020b000       ?scaletime@server@@YAHH@Z  000000014020c000 f   server1.obj
 0001:0020b020       ?ispaused@server@@YA_NXZ   000000014020c020 f   server1.obj
 0001:0020b030       ?clientconnect@server@@YAHHI@Z 000000014020c030 f   server1.obj
 0001:0020b140       ?localdisconnect@server@@YAXH@Z 000000014020c140 f   server1.obj
 0001:0020b190       ?localconnect@server@@YAXH@Z 000000014020c190 f   server1.obj
 0001:0020b270       ?reserveclients@server@@YAHXZ 000000014020c270 f   server1.obj
 0001:0020b280       ?serverinfoport@server@@YAHH@Z 000000014020c280 f   server1.obj
 0001:0020b2a0       ?laninfoport@server@@YAHXZ 000000014020c2a0 f   server1.obj
 0001:0020b2b0       ?serverinit@server@@YAXXZ  000000014020c2b0 f   server1.obj
 0001:0020b2e0       ?serverport@server@@YAHH@Z 000000014020c2e0 f   server1.obj
 0001:0020b300       ?numchannels@server@@YAHXZ 000000014020c300 f   server1.obj
 0001:0020b310       ?gameident@game@@YAPEBDXZ  000000014020c310 f   server1.obj
 0001:0020b320       __vdecl_sin2               000000014020c320 f   LIBCMT:svml_dsin2_dispatch.obj
 0001:0020b340       __libm_sse2_sincos_        000000014020c340 f   LIBCMT:svml_dsin2_dispatch.obj
 0001:0020b390       __vdecl_sinf4              000000014020c390 f   LIBCMT:svml_ssinf4_dispatch.obj
 0001:0020b3b0       __libm_sse2_sincosf_       000000014020c3b0 f   LIBCMT:svml_ssinf4_dispatch.obj
 0001:0020b3f3       __libm_sse2_sincosf4_      000000014020c3f3 f   LIBCMT:svml_ssinf4_dispatch.obj
 0001:0020b400       __vdecl_exp2               000000014020c400 f   LIBCMT:svml_dexp2_dispatch.obj
 0001:0020b420       __sse2_sin2@@16            000000014020c420 f   LIBCMT:svml_dsin2_sse2.obj
 0001:0020baa0       __sse4_sin2@@16            000000014020caa0 f   LIBCMT:svml_dsin2_sse4.obj
 0001:0020c120       __sse2_sinf4@@16           000000014020d120 f   LIBCMT:svml_ssinf4_sse2.obj
 0001:0020ca60       __sse4_sinf4@@16           000000014020da60 f   LIBCMT:svml_ssinf4_sse4.obj
 0001:0020d1e0       __sse2_exp2@@16            000000014020e1e0 f   LIBCMT:svml_dexp2_sse2.obj
 0001:0020d4d0       __sse4_exp2@@16            000000014020e4d0 f   LIBCMT:svml_dexp2_sse4.obj
 0001:0020d7a0       __common_dsin_cout_rare    000000014020e7a0 f   LIBCMT:svml_d_sin_cout.obj
 0001:0020d810       __common_ssin_cout_rare    000000014020e810 f   LIBCMT:svml_s_sin_cout.obj
 0001:0020d890       memchr                     000000014020e890 f   libvcruntime:memchr.obj
 0001:0020d920       acos                       000000014020e920 f   libucrt:acos.obj
 0001:0020dbc0       acosf                      000000014020ebc0 f   libucrt:acosf.obj
 0001:0020ddec       asin                       000000014020edec f   libucrt:asin.obj
 0001:0020e070       atan                       000000014020f070 f   libucrt:atan.obj
 0001:0020e288       atan2                      000000014020f288 f   libucrt:atan2.obj
 0001:0020e974       atan2f                     000000014020f974 f   libucrt:atan2f.obj
 0001:0020ed70       cos                        000000014020fd70 f   libucrt:cos.obj
 0001:0020f2f0       cosf                       00000001402102f0 f   libucrt:cosf.obj
 0001:0020f7f0       exp                        00000001402107f0 f   libucrt:exp.obj
 0001:0020fbf0       expf                       0000000140210bf0 f   libucrt:expf.obj
 0001:0020fea0       fmod                       0000000140210ea0 f   libucrt:fmod.obj
 0001:00210174       fmodf                      0000000140211174 f   libucrt:fmodf.obj
 0001:002103c0       log                        00000001402113c0 f   libucrt:log.obj
 0001:002108f0       log10f                     00000001402118f0 f   libucrt:log10f.obj
 0001:00210dd0       logf                       0000000140211dd0 f   libucrt:logf.obj
 0001:002111d0       pow                        00000001402121d0 f   libucrt:pow.obj
 0001:00212870       powf                       0000000140213870 f   libucrt:powf.obj
 0001:00213740       sin                        0000000140214740 f   libucrt:sin.obj
 0001:00213cb0       sinf                       0000000140214cb0 f   libucrt:sinf.obj
 0001:002143c0       strcmp                     00000001402153c0 f   libucrt:strcmp.obj
 0001:00214430       tan                        0000000140215430 f   libucrt:tan.obj
 0001:00214bd0       tanf                       0000000140215bd0 f   libucrt:tanf.obj
 0001:00215250       __remainder_piby2_forAsm   0000000140216250 f   libucrt:remainder_piby2_forasm.obj
 0001:00215460       __remainder_piby2_cw_forAsm 0000000140216460 f   libucrt:remainder_piby2_forasm.obj
 0001:002155a0       __remainder_piby2_fma3     00000001402165a0 f   libucrt:remainder_piby2_forfma3.obj
 0001:00215790       __remainder_piby2_fma3_bdl 0000000140216790 f   libucrt:remainder_piby2_forfma3.obj
 0001:00215808       _cos_special               0000000140216808 f   libucrt:sincos_special.obj
 0001:0021581c       _cosf_special              000000014021681c f   libucrt:sincos_special.obj
 0001:00215830       _sin_special               0000000140216830 f   libucrt:sincos_special.obj
 0001:00215974       _sinf_special              0000000140216974 f   libucrt:sincos_special.obj
 0001:00215988       _tan_special               0000000140216988 f   libucrt:sincos_special.obj
 0001:0021599c       _tanf_special              000000014021699c f   libucrt:sincos_special.obj
 0001:002159b0       __remainder_piby2d2f_forAsm 00000001402169b0 f   libucrt:remainder_piby2f_forasm.obj
 0001:00215b00       _exp_special               0000000140216b00 f   libucrt:exp_special.obj
 0001:00215b98       _expf_special              0000000140216b98 f   libucrt:exp_special.obj
 0001:00215c40       _pow_special               0000000140216c40 f   libucrt:pow_special.obj
 0001:00215d64       _powf_special              0000000140216d64 f   libucrt:pow_special.obj
 0001:00215ec0       __remainder_piby2d2f_forC  0000000140216ec0 f   libucrt:remainder_piby2f_forc.obj
 0001:00216060       _guard_dispatch_icall_nop  0000000140217060 f   LIBCMT:guard_dispatch.obj
 0001:00216080       _guard_xfg_dispatch_icall_nop 0000000140217080 f   LIBCMT:guard_xfg_dispatch.obj
 0001:0021cb60       ??__Fmeshgroups@?1??sharemeshes@animmodel@@QEAAPEAUmeshgroup@1@PEBDZZ@YAXXZ 000000014021db60 f i rendermodel.obj
 0001:0021cc20       ??__Fskeletons@?1??shareskeleton@skelmeshgroup@skelmodel@@QEAAXPEAD@Z@YAXXZ 000000014021dc20 f i rendermodel.obj
 0001:0021df90       ??__Ftargets@?O@??aidefend@captureclientmode@game@@UEAA_NPEAUfpsent@@AEAUaistate@ai@@@Z@YAXXZ 000000014021ef90 f i client1.obj
 0001:0021dfb0       ??__Ftargets@?3??aifind@captureclientmode@game@@UEAAXPEAUfpsent@@AEAUaistate@ai@@AEAU?$vector@Uinterest@ai@@@@@Z@YAXXZ 000000014021efb0 f i client1.obj
 0001:0021dfd0       ??__Ftargets@?BA@??aidefend@ctfclientmode@game@@UEAA_NPEAUfpsent@@AEAUaistate@ai@@@Z@YAXXZ 000000014021efd0 f i client1.obj
 0001:0021dff0       ??__Ftargets@?6??aifind@ctfclientmode@game@@UEAAXPEAUfpsent@@AEAUaistate@ai@@AEAU?$vector@Uinterest@ai@@@@@Z@YAXXZ 000000014021eff0 f i client1.obj
 0001:0021e010       ??__Ftakenflags@?1??aicheck@ctfclientmode@game@@UEAA_NPEAUfpsent@@AEAUaistate@ai@@@Z@YAXXZ 000000014021f010 f i client1.obj
 0001:0021e030       ??__Finterests@?4??aihomerun@ctfclientmode@game@@QEAA_NPEAUfpsent@@AEAUaistate@ai@@@Z@YAXXZ 000000014021f030 f i client1.obj
 0002:00000000       __imp_WriteConsoleW        0000000140220000     kernel32:KERNEL32.dll
 0002:00000008       __imp_SetEndOfFile         0000000140220008     kernel32:KERNEL32.dll
 0002:00000010       __imp_HeapReAlloc          0000000140220010     kernel32:KERNEL32.dll
 0002:00000018       __imp_HeapSize             0000000140220018     kernel32:KERNEL32.dll
 0002:00000020       __imp_CreateFileW          0000000140220020     kernel32:KERNEL32.dll
 0002:00000028       __imp_GetStringTypeW       0000000140220028     kernel32:KERNEL32.dll
 0002:00000030       __imp_SetStdHandle         0000000140220030     kernel32:KERNEL32.dll
 0002:00000038       __imp_GetProcessHeap       0000000140220038     kernel32:KERNEL32.dll
 0002:00000040       __imp_SetEnvironmentVariableW 0000000140220040     kernel32:KERNEL32.dll
 0002:00000048       __imp_FreeEnvironmentStringsW 0000000140220048     kernel32:KERNEL32.dll
 0002:00000050       __imp_GetEnvironmentStringsW 0000000140220050     kernel32:KERNEL32.dll
 0002:00000058       __imp_GetCommandLineW      0000000140220058     kernel32:KERNEL32.dll
 0002:00000060       __imp_GetCPInfo            0000000140220060     kernel32:KERNEL32.dll
 0002:00000068       __imp_SetUnhandledExceptionFilter 0000000140220068     kernel32:KERNEL32.dll
 0002:00000070       __imp_UnhandledExceptionFilter 0000000140220070     kernel32:KERNEL32.dll
 0002:00000078       __imp_IsDebuggerPresent    0000000140220078     kernel32:KERNEL32.dll
 0002:00000080       __imp_RtlVirtualUnwind     0000000140220080     kernel32:KERNEL32.dll
 0002:00000088       __imp_RtlLookupFunctionEntry 0000000140220088     kernel32:KERNEL32.dll
 0002:00000090       __imp_RtlCaptureContext    0000000140220090     kernel32:KERNEL32.dll
 0002:00000098       __imp_GetProcAddress       0000000140220098     kernel32:KERNEL32.dll
 0002:000000a0       __imp_GetModuleHandleW     00000001402200a0     kernel32:KERNEL32.dll
 0002:000000a8       __imp_CreateEventW         00000001402200a8     kernel32:KERNEL32.dll
 0002:000000b0       __imp_WaitForSingleObjectEx 00000001402200b0     kernel32:KERNEL32.dll
 0002:000000b8       __imp_ResetEvent           00000001402200b8     kernel32:KERNEL32.dll
 0002:000000c0       __imp_SetEvent             00000001402200c0     kernel32:KERNEL32.dll
 0002:000000c8       __imp_DeleteCriticalSection 00000001402200c8     kernel32:KERNEL32.dll
 0002:000000d0       __imp_InitializeCriticalSectionAndSpinCount 00000001402200d0     kernel32:KERNEL32.dll
 0002:000000d8       __imp_LeaveCriticalSection 00000001402200d8     kernel32:KERNEL32.dll
 0002:000000e0       __imp_EnterCriticalSection 00000001402200e0     kernel32:KERNEL32.dll
 0002:000000e8       __imp_IsProcessorFeaturePresent 00000001402200e8     kernel32:KERNEL32.dll
 0002:000000f0       __imp_QueryPerformanceCounter 00000001402200f0     kernel32:KERNEL32.dll
 0002:000000f8       __imp_GetCurrentProcessId  00000001402200f8     kernel32:KERNEL32.dll
 0002:00000100       __imp_GetCurrentThreadId   0000000140220100     kernel32:KERNEL32.dll
 0002:00000108       __imp_GetSystemTimeAsFileTime 0000000140220108     kernel32:KERNEL32.dll
 0002:00000110       __imp_InitializeSListHead  0000000140220110     kernel32:KERNEL32.dll
 0002:00000118       __imp_RtlUnwindEx          0000000140220118     kernel32:KERNEL32.dll
 0002:00000120       __imp_GetLastError         0000000140220120     kernel32:KERNEL32.dll
 0002:00000128       __imp_SetLastError         0000000140220128     kernel32:KERNEL32.dll
 0002:00000130       __imp_EncodePointer        0000000140220130     kernel32:KERNEL32.dll
 0002:00000138       __imp_RaiseException       0000000140220138     kernel32:KERNEL32.dll
 0002:00000140       __imp_TlsAlloc             0000000140220140     kernel32:KERNEL32.dll
 0002:00000148       __imp_TlsGetValue          0000000140220148     kernel32:KERNEL32.dll
 0002:00000150       __imp_TlsSetValue          0000000140220150     kernel32:KERNEL32.dll
 0002:00000158       __imp_TlsFree              0000000140220158     kernel32:KERNEL32.dll
 0002:00000160       __imp_FreeLibrary          0000000140220160     kernel32:KERNEL32.dll
 0002:00000168       __imp_LoadLibraryExW       0000000140220168     kernel32:KERNEL32.dll
 0002:00000170       __imp_RtlPcToFileHeader    0000000140220170     kernel32:KERNEL32.dll
 0002:00000178       __imp_RtlUnwind            0000000140220178     kernel32:KERNEL32.dll
 0002:00000180       __imp_CreateThread         0000000140220180     kernel32:KERNEL32.dll
 0002:00000188       __imp_ExitThread           0000000140220188     kernel32:KERNEL32.dll
 0002:00000190       __imp_FindClose            0000000140220190     kernel32:KERNEL32.dll
 0002:00000198       __imp_FindNextFileA        0000000140220198     kernel32:KERNEL32.dll
 0002:000001a0       __imp_FindFirstFileA       00000001402201a0     kernel32:KERNEL32.dll
 0002:000001a8       __imp_CreateDirectoryA     00000001402201a8     kernel32:KERNEL32.dll
 0002:000001b0       __imp_GetFileAttributesA   00000001402201b0     kernel32:KERNEL32.dll
 0002:000001b8       __imp_CloseHandle          00000001402201b8     kernel32:KERNEL32.dll
 0002:000001c0       __imp_UnmapViewOfFile      00000001402201c0     kernel32:KERNEL32.dll
 0002:000001c8       __imp_MapViewOfFile        00000001402201c8     kernel32:KERNEL32.dll
 0002:000001d0       __imp_OpenFileMappingA     00000001402201d0     kernel32:KERNEL32.dll
 0002:000001d8       __imp_GetCurrentThread     00000001402201d8     kernel32:KERNEL32.dll
 0002:000001e0       __imp_GetCurrentProcess    00000001402201e0     kernel32:KERNEL32.dll
 0002:000001e8       __imp_SetPriorityClass     00000001402201e8     kernel32:KERNEL32.dll
 0002:000001f0       __imp_GetCommandLineA      00000001402201f0     kernel32:KERNEL32.dll
 0002:000001f8       __imp_SetConsoleOutputCP   00000001402201f8     kernel32:KERNEL32.dll
 0002:00000200       __imp_SetConsoleCP         0000000140220200     kernel32:KERNEL32.dll
 0002:00000208       __imp_SetConsoleScreenBufferSize 0000000140220208     kernel32:KERNEL32.dll
 0002:00000210       __imp_GetConsoleScreenBufferInfo 0000000140220210     kernel32:KERNEL32.dll
 0002:00000218       __imp_GetStdHandle         0000000140220218     kernel32:KERNEL32.dll
 0002:00000220       __imp_SetConsoleTitleA     0000000140220220     kernel32:KERNEL32.dll
 0002:00000228       __imp_GetConsoleWindow     0000000140220228     kernel32:KERNEL32.dll
 0002:00000230       __imp_SetConsoleCtrlHandler 0000000140220230     kernel32:KERNEL32.dll
 0002:00000238       __imp_AllocConsole         0000000140220238     kernel32:KERNEL32.dll
 0002:00000240       __imp_WriteConsoleA        0000000140220240     kernel32:KERNEL32.dll
 0002:00000248       __imp_FreeLibraryAndExitThread 0000000140220248     kernel32:KERNEL32.dll
 0002:00000250       __imp_GetModuleHandleExW   0000000140220250     kernel32:KERNEL32.dll
 0002:00000258       __imp_ExitProcess          0000000140220258     kernel32:KERNEL32.dll
 0002:00000260       __imp_TerminateProcess     0000000140220260     kernel32:KERNEL32.dll
 0002:00000268       __imp_ReadFile             0000000140220268     kernel32:KERNEL32.dll
 0002:00000270       __imp_GetModuleFileNameW   0000000140220270     kernel32:KERNEL32.dll
 0002:00000278       __imp_WriteFile            0000000140220278     kernel32:KERNEL32.dll
 0002:00000280       __imp_HeapFree             0000000140220280     kernel32:KERNEL32.dll
 0002:00000288       __imp_HeapAlloc            0000000140220288     kernel32:KERNEL32.dll
 0002:00000290       __imp_GetFileType          0000000140220290     kernel32:KERNEL32.dll
 0002:00000298       __imp_FlsAlloc             0000000140220298     kernel32:KERNEL32.dll
 0002:000002a0       __imp_FlsGetValue          00000001402202a0     kernel32:KERNEL32.dll
 0002:000002a8       __imp_FlsSetValue          00000001402202a8     kernel32:KERNEL32.dll
 0002:000002b0       __imp_FlsFree              00000001402202b0     kernel32:KERNEL32.dll
 0002:000002b8       __imp_GetDateFormatW       00000001402202b8     kernel32:KERNEL32.dll
 0002:000002c0       __imp_GetTimeFormatW       00000001402202c0     kernel32:KERNEL32.dll
 0002:000002c8       __imp_CompareStringW       00000001402202c8     kernel32:KERNEL32.dll
 0002:000002d0       __imp_LCMapStringW         00000001402202d0     kernel32:KERNEL32.dll
 0002:000002d8       __imp_MultiByteToWideChar  00000001402202d8     kernel32:KERNEL32.dll
 0002:000002e0       __imp_DeleteFileW          00000001402202e0     kernel32:KERNEL32.dll
 0002:000002e8       __imp_MoveFileExW          00000001402202e8     kernel32:KERNEL32.dll
 0002:000002f0       __imp_GetConsoleOutputCP   00000001402202f0     kernel32:KERNEL32.dll
 0002:000002f8       __imp_GetConsoleMode       00000001402202f8     kernel32:KERNEL32.dll
 0002:00000300       __imp_GetFileSizeEx        0000000140220300     kernel32:KERNEL32.dll
 0002:00000308       __imp_SetFilePointerEx     0000000140220308     kernel32:KERNEL32.dll
 0002:00000310       __imp_GetTimeZoneInformation 0000000140220310     kernel32:KERNEL32.dll
 0002:00000318       __imp_WideCharToMultiByte  0000000140220318     kernel32:KERNEL32.dll
 0002:00000320       __imp_ReadConsoleW         0000000140220320     kernel32:KERNEL32.dll
 0002:00000328       __imp_FlushFileBuffers     0000000140220328     kernel32:KERNEL32.dll
 0002:00000330       __imp_FindFirstFileExW     0000000140220330     kernel32:KERNEL32.dll
 0002:00000338       __imp_FindNextFileW        0000000140220338     kernel32:KERNEL32.dll
 0002:00000340       __imp_IsValidCodePage      0000000140220340     kernel32:KERNEL32.dll
 0002:00000348       __imp_GetACP               0000000140220348     kernel32:KERNEL32.dll
 0002:00000350       __imp_GetOEMCP             0000000140220350     kernel32:KERNEL32.dll
 0002:00000358       __imp_GetStartupInfoW      0000000140220358     kernel32:KERNEL32.dll
 0002:00000360       \177KERNEL32_NULL_THUNK_DATA 0000000140220360     kernel32:KERNEL32.dll
 0002:00000368       __imp_glCopyTexSubImage2D  0000000140220368     opengl32:OPENGL32.dll
 0002:00000370       __imp_glDepthRange         0000000140220370     opengl32:OPENGL32.dll
 0002:00000378       __imp_glHint               0000000140220378     opengl32:OPENGL32.dll
 0002:00000380       __imp_glTexImage1D         0000000140220380     opengl32:OPENGL32.dll
 0002:00000388       __imp_glTexImage2D         0000000140220388     opengl32:OPENGL32.dll
 0002:00000390       __imp_glCopyTexImage2D     0000000140220390     opengl32:OPENGL32.dll
 0002:00000398       __imp_glGenTextures        0000000140220398     opengl32:OPENGL32.dll
 0002:000003a0       __imp_glTexParameteri      00000001402203a0     opengl32:OPENGL32.dll
 0002:000003a8       __imp_glTexParameterfv     00000001402203a8     opengl32:OPENGL32.dll
 0002:000003b0       __imp_glTexParameteriv     00000001402203b0     opengl32:OPENGL32.dll
 0002:000003b8       __imp_glReadPixels         00000001402203b8     opengl32:OPENGL32.dll
 0002:000003c0       __imp_glGetTexLevelParameteriv 00000001402203c0     opengl32:OPENGL32.dll
 0002:000003c8       __imp_glDeleteTextures     00000001402203c8     opengl32:OPENGL32.dll
 0002:000003d0       __imp_glClear              00000001402203d0     opengl32:OPENGL32.dll
 0002:000003d8       __imp_glIsEnabled          00000001402203d8     opengl32:OPENGL32.dll
 0002:000003e0       __imp_glPolygonOffset      00000001402203e0     opengl32:OPENGL32.dll
 0002:000003e8       __imp_glCullFace           00000001402203e8     opengl32:OPENGL32.dll
 0002:000003f0       __imp_glFrontFace          00000001402203f0     opengl32:OPENGL32.dll
 0002:000003f8       __imp_glClearDepth         00000001402203f8     opengl32:OPENGL32.dll
 0002:00000400       __imp_glClearColor         0000000140220400     opengl32:OPENGL32.dll
 0002:00000408       __imp_glGetString          0000000140220408     opengl32:OPENGL32.dll
 0002:00000410       __imp_glGetIntegerv        0000000140220410     opengl32:OPENGL32.dll
 0002:00000418       __imp_glViewport           0000000140220418     opengl32:OPENGL32.dll
 0002:00000420       __imp_glScissor            0000000140220420     opengl32:OPENGL32.dll
 0002:00000428       __imp_glReadBuffer         0000000140220428     opengl32:OPENGL32.dll
 0002:00000430       __imp_glDrawBuffer         0000000140220430     opengl32:OPENGL32.dll
 0002:00000438       __imp_glFlush              0000000140220438     opengl32:OPENGL32.dll
 0002:00000440       __imp_glDrawArrays         0000000140220440     opengl32:OPENGL32.dll
 0002:00000448       __imp_glDepthMask          0000000140220448     opengl32:OPENGL32.dll
 0002:00000450       __imp_glDepthFunc          0000000140220450     opengl32:OPENGL32.dll
 0002:00000458       __imp_glPolygonMode        0000000140220458     opengl32:OPENGL32.dll
 0002:00000460       __imp_glDisable            0000000140220460     opengl32:OPENGL32.dll
 0002:00000468       __imp_glBlendFunc          0000000140220468     opengl32:OPENGL32.dll
 0002:00000470       __imp_glEnable             0000000140220470     opengl32:OPENGL32.dll
 0002:00000478       __imp_glTexSubImage2D      0000000140220478     opengl32:OPENGL32.dll
 0002:00000480       __imp_glPixelStorei        0000000140220480     opengl32:OPENGL32.dll
 0002:00000488       __imp_glBindTexture        0000000140220488     opengl32:OPENGL32.dll
 0002:00000490       __imp_glColorMask          0000000140220490     opengl32:OPENGL32.dll
 0002:00000498       \177OPENGL32_NULL_THUNK_DATA 0000000140220498     opengl32:OPENGL32.dll
 0002:000004a0       __imp_SDL_WasInit          00000001402204a0     SDL2:SDL2.dll
 0002:000004a8       __imp_SDL_ShowSimpleMessageBox 00000001402204a8     SDL2:SDL2.dll
 0002:000004b0       __imp_SDL_StartTextInput   00000001402204b0     SDL2:SDL2.dll
 0002:000004b8       __imp_SDL_StopTextInput    00000001402204b8     SDL2:SDL2.dll
 0002:000004c0       __imp_SDL_SetWindowFullscreen 00000001402204c0     SDL2:SDL2.dll
 0002:000004c8       __imp_SDL_SetWindowSize    00000001402204c8     SDL2:SDL2.dll
 0002:000004d0       __imp_SDL_SetWindowPosition 00000001402204d0     SDL2:SDL2.dll
 0002:000004d8       __imp_SDL_GetWindowFlags   00000001402204d8     SDL2:SDL2.dll
 0002:000004e0       __imp_SDL_SetWindowBrightness 00000001402204e0     SDL2:SDL2.dll
 0002:000004e8       __imp_SDL_GetError         00000001402204e8     SDL2:SDL2.dll
 0002:000004f0       __imp_SDL_GL_SetSwapInterval 00000001402204f0     SDL2:SDL2.dll
 0002:000004f8       __imp_SDL_GL_DeleteContext 00000001402204f8     SDL2:SDL2.dll
 0002:00000500       __imp_SDL_DestroyWindow    0000000140220500     SDL2:SDL2.dll
 0002:00000508       __imp_SDL_GetDisplayBounds 0000000140220508     SDL2:SDL2.dll
 0002:00000510       __imp_SDL_GL_ResetAttributes 0000000140220510     SDL2:SDL2.dll
 0002:00000518       __imp_SDL_GL_SetAttribute  0000000140220518     SDL2:SDL2.dll
 0002:00000520       __imp_SDL_CreateWindow     0000000140220520     SDL2:SDL2.dll
 0002:00000528       __imp_SDL_GL_CreateContext 0000000140220528     SDL2:SDL2.dll
 0002:00000530       __imp_SDL_SetWindowMinimumSize 0000000140220530     SDL2:SDL2.dll
 0002:00000538       __imp_SDL_SetWindowMaximumSize 0000000140220538     SDL2:SDL2.dll
 0002:00000540       __imp_SDL_GetWindowSize    0000000140220540     SDL2:SDL2.dll
 0002:00000548       __imp_SDL_SetRelativeMouseMode 0000000140220548     SDL2:SDL2.dll
 0002:00000550       __imp_SDL_ShowCursor       0000000140220550     SDL2:SDL2.dll
 0002:00000558       __imp_SDL_GetModState      0000000140220558     SDL2:SDL2.dll
 0002:00000560       __imp_SDL_free             0000000140220560     SDL2:SDL2.dll
 0002:00000568       __imp_SDL_GetClipboardText 0000000140220568     SDL2:SDL2.dll
 0002:00000570       __imp_SDL_HasClipboardText 0000000140220570     SDL2:SDL2.dll
 0002:00000578       __imp_SDL_SaveBMP_RW       0000000140220578     SDL2:SDL2.dll
 0002:00000580       __imp_SDL_Quit             0000000140220580     SDL2:SDL2.dll
 0002:00000588       __imp_SDL_GetColorKey      0000000140220588     SDL2:SDL2.dll
 0002:00000590       __imp_SDL_SetSurfaceBlendMode 0000000140220590     SDL2:SDL2.dll
 0002:00000598       __imp_SDL_FreeSurface      0000000140220598     SDL2:SDL2.dll
 0002:000005a0       __imp_SDL_UpperBlit        00000001402205a0     SDL2:SDL2.dll
 0002:000005a8       __imp_SDL_CreateRGBSurface 00000001402205a8     SDL2:SDL2.dll
 0002:000005b0       __imp_SDL_CreateRGBSurfaceFrom 00000001402205b0     SDL2:SDL2.dll
 0002:000005b8       __imp_SDL_GL_GetProcAddress 00000001402205b8     SDL2:SDL2.dll
 0002:000005c0       __imp_SDL_DetachThread     00000001402205c0     SDL2:SDL2.dll
 0002:000005c8       __imp_SDL_ThreadID         00000001402205c8     SDL2:SDL2.dll
 0002:000005d0       __imp_SDL_GetThreadID      00000001402205d0     SDL2:SDL2.dll
 0002:000005d8       __imp_SDL_SetMainReady     00000001402205d8     SDL2:SDL2.dll
 0002:000005e0       __imp_SDL_Delay            00000001402205e0     SDL2:SDL2.dll
 0002:000005e8       __imp_SDL_RemoveTimer      00000001402205e8     SDL2:SDL2.dll
 0002:000005f0       __imp_SDL_AddTimer         00000001402205f0     SDL2:SDL2.dll
 0002:000005f8       __imp_SDL_WaitThread       00000001402205f8     SDL2:SDL2.dll
 0002:00000600       __imp_SDL_CreateMutex      0000000140220600     SDL2:SDL2.dll
 0002:00000608       __imp_SDL_DestroyMutex     0000000140220608     SDL2:SDL2.dll
 0002:00000610       __imp_SDL_CreateThread     0000000140220610     SDL2:SDL2.dll
 0002:00000618       __imp_SDL_CreateCond       0000000140220618     SDL2:SDL2.dll
 0002:00000620       __imp_SDL_DestroyCond      0000000140220620     SDL2:SDL2.dll
 0002:00000628       __imp_SDL_CondWaitTimeout  0000000140220628     SDL2:SDL2.dll
 0002:00000630       __imp_SDL_CondBroadcast    0000000140220630     SDL2:SDL2.dll
 0002:00000638       __imp_SDL_CondWait         0000000140220638     SDL2:SDL2.dll
 0002:00000640       __imp_SDL_CondSignal       0000000140220640     SDL2:SDL2.dll
 0002:00000648       __imp_SDL_UnlockMutex      0000000140220648     SDL2:SDL2.dll
 0002:00000650       __imp_SDL_LockMutex        0000000140220650     SDL2:SDL2.dll
 0002:00000658       __imp_SDL_GetTicks         0000000140220658     SDL2:SDL2.dll
 0002:00000660       __imp_SDL_PollEvent        0000000140220660     SDL2:SDL2.dll
 0002:00000668       __imp_SDL_FreeRW           0000000140220668     SDL2:SDL2.dll
 0002:00000670       __imp_SDL_PumpEvents       0000000140220670     SDL2:SDL2.dll
 0002:00000678       __imp_SDL_PeepEvents       0000000140220678     SDL2:SDL2.dll
 0002:00000680       __imp_SDL_WarpMouseInWindow 0000000140220680     SDL2:SDL2.dll
 0002:00000688       __imp_SDL_AllocRW          0000000140220688     SDL2:SDL2.dll
 0002:00000690       __imp_SDL_RWFromFile       0000000140220690     SDL2:SDL2.dll
 0002:00000698       __imp_SDL_GetVersion       0000000140220698     SDL2:SDL2.dll
 0002:000006a0       __imp_SDL_SetHint          00000001402206a0     SDL2:SDL2.dll
 0002:000006a8       __imp_SDL_Init             00000001402206a8     SDL2:SDL2.dll
 0002:000006b0       __imp_SDL_GetCPUCount      00000001402206b0     SDL2:SDL2.dll
 0002:000006b8       __imp_SDL_SetWindowGrab    00000001402206b8     SDL2:SDL2.dll
 0002:000006c0       __imp_SDL_GL_SwapWindow    00000001402206c0     SDL2:SDL2.dll
 0002:000006c8       \177SDL2_NULL_THUNK_DATA   00000001402206c8     SDL2:SDL2.dll
 0002:000006d0       __imp_IMG_LoadTyped_RW     00000001402206d0     SDL2_image:SDL2_image.dll
 0002:000006d8       __imp_IMG_Load             00000001402206d8     SDL2_image:SDL2_image.dll
 0002:000006e0       \177SDL2_image_NULL_THUNK_DATA 00000001402206e0     SDL2_image:SDL2_image.dll
 0002:000006e8       __imp_Mix_PlayingMusic     00000001402206e8     SDL2_mixer:SDL2_mixer.dll
 0002:000006f0       __imp_Mix_Playing          00000001402206f0     SDL2_mixer:SDL2_mixer.dll
 0002:000006f8       __imp_Mix_CloseAudio       00000001402206f8     SDL2_mixer:SDL2_mixer.dll
 0002:00000700       __imp_Mix_LoadWAV_RW       0000000140220700     SDL2_mixer:SDL2_mixer.dll
 0002:00000708       __imp_Mix_PlayMusic        0000000140220708     SDL2_mixer:SDL2_mixer.dll
 0002:00000710       __imp_Mix_LoadMUS          0000000140220710     SDL2_mixer:SDL2_mixer.dll
 0002:00000718       __imp_Mix_LoadMUSType_RW   0000000140220718     SDL2_mixer:SDL2_mixer.dll
 0002:00000720       __imp_Mix_AllocateChannels 0000000140220720     SDL2_mixer:SDL2_mixer.dll
 0002:00000728       __imp_Mix_OpenAudio        0000000140220728     SDL2_mixer:SDL2_mixer.dll
 0002:00000730       __imp_Mix_ResumeMusic      0000000140220730     SDL2_mixer:SDL2_mixer.dll
 0002:00000738       __imp_Mix_HaltMusic        0000000140220738     SDL2_mixer:SDL2_mixer.dll
 0002:00000740       __imp_Mix_VolumeMusic      0000000140220740     SDL2_mixer:SDL2_mixer.dll
 0002:00000748       __imp_Mix_HaltChannel      0000000140220748     SDL2_mixer:SDL2_mixer.dll
 0002:00000750       __imp_Mix_SetPanning       0000000140220750     SDL2_mixer:SDL2_mixer.dll
 0002:00000758       __imp_Mix_Volume           0000000140220758     SDL2_mixer:SDL2_mixer.dll
 0002:00000760       __imp_Mix_FadingChannel    0000000140220760     SDL2_mixer:SDL2_mixer.dll
 0002:00000768       __imp_Mix_FreeChunk        0000000140220768     SDL2_mixer:SDL2_mixer.dll
 0002:00000770       __imp_Mix_SetPostMix       0000000140220770     SDL2_mixer:SDL2_mixer.dll
 0002:00000778       __imp_Mix_QuerySpec        0000000140220778     SDL2_mixer:SDL2_mixer.dll
 0002:00000780       __imp_Mix_PausedMusic      0000000140220780     SDL2_mixer:SDL2_mixer.dll
 0002:00000788       __imp_Mix_PlayChannelTimed 0000000140220788     SDL2_mixer:SDL2_mixer.dll
 0002:00000790       __imp_Mix_FadeInChannelTimed 0000000140220790     SDL2_mixer:SDL2_mixer.dll
 0002:00000798       __imp_Mix_FreeMusic        0000000140220798     SDL2_mixer:SDL2_mixer.dll
 0002:000007a0       __imp_Mix_FadeOutChannel   00000001402207a0     SDL2_mixer:SDL2_mixer.dll
 0002:000007a8       \177SDL2_mixer_NULL_THUNK_DATA 00000001402207a8     SDL2_mixer:SDL2_mixer.dll
 0002:000007b0       __imp_Shell_NotifyIconA    00000001402207b0     shell32:SHELL32.dll
 0002:000007b8       __imp_SHGetFolderPathA     00000001402207b8     shell32:SHELL32.dll
 0002:000007c0       \177SHELL32_NULL_THUNK_DATA 00000001402207c0     shell32:SHELL32.dll
 0002:000007c8       __imp_DispatchMessageA     00000001402207c8     user32:USER32.dll
 0002:000007d0       __imp_TranslateMessage     00000001402207d0     user32:USER32.dll
 0002:000007d8       __imp_PeekMessageA         00000001402207d8     user32:USER32.dll
 0002:000007e0       __imp_CreateWindowExA      00000001402207e0     user32:USER32.dll
 0002:000007e8       __imp_RegisterClassA       00000001402207e8     user32:USER32.dll
 0002:000007f0       __imp_AppendMenuA          00000001402207f0     user32:USER32.dll
 0002:000007f8       __imp_CreatePopupMenu      00000001402207f8     user32:USER32.dll
 0002:00000800       __imp_LoadIconA            0000000140220800     user32:USER32.dll
 0002:00000808       __imp_DefWindowProcA       0000000140220808     user32:USER32.dll
 0002:00000810       __imp_PostQuitMessage      0000000140220810     user32:USER32.dll
 0002:00000818       __imp_ShowWindow           0000000140220818     user32:USER32.dll
 0002:00000820       __imp_ModifyMenuA          0000000140220820     user32:USER32.dll
 0002:00000828       __imp_PostMessageA         0000000140220828     user32:USER32.dll
 0002:00000830       __imp_DestroyMenu          0000000140220830     user32:USER32.dll
 0002:00000838       __imp_GetCursorPos         0000000140220838     user32:USER32.dll
 0002:00000840       __imp_SetForegroundWindow  0000000140220840     user32:USER32.dll
 0002:00000848       __imp_SendMessageA         0000000140220848     user32:USER32.dll
 0002:00000850       __imp_UnregisterClassA     0000000140220850     user32:USER32.dll
 0002:00000858       __imp_TrackPopupMenu       0000000140220858     user32:USER32.dll
 0002:00000860       \177USER32_NULL_THUNK_DATA 0000000140220860     user32:USER32.dll
 0002:00000868       __imp_timeBeginPeriod      0000000140220868     winmm:WINMM.dll
 0002:00000870       __imp_timeGetTime          0000000140220870     winmm:WINMM.dll
 0002:00000878       __imp_timeEndPeriod        0000000140220878     winmm:WINMM.dll
 0002:00000880       \177WINMM_NULL_THUNK_DATA  0000000140220880     winmm:WINMM.dll
 0002:00000888       __imp_WSACleanup           0000000140220888     ws2_32:WS2_32.dll
 0002:00000890       __imp_htons                0000000140220890     ws2_32:WS2_32.dll
 0002:00000898       __imp_ntohl                0000000140220898     ws2_32:WS2_32.dll
 0002:000008a0       __imp___WSAFDIsSet         00000001402208a0     ws2_32:WS2_32.dll
 0002:000008a8       __imp_ntohs                00000001402208a8     ws2_32:WS2_32.dll
 0002:000008b0       __imp_htonl                00000001402208b0     ws2_32:WS2_32.dll
 0002:000008b8       __imp_WSAStartup           00000001402208b8     ws2_32:WS2_32.dll
 0002:000008c0       __imp_gethostbyname        00000001402208c0     ws2_32:WS2_32.dll
 0002:000008c8       __imp_select               00000001402208c8     ws2_32:WS2_32.dll
 0002:000008d0       __imp_WSARecvFrom          00000001402208d0     ws2_32:WS2_32.dll
 0002:000008d8       __imp_WSASendTo            00000001402208d8     ws2_32:WS2_32.dll
 0002:000008e0       __imp_closesocket          00000001402208e0     ws2_32:WS2_32.dll
 0002:000008e8       __imp_shutdown             00000001402208e8     ws2_32:WS2_32.dll
 0002:000008f0       __imp_accept               00000001402208f0     ws2_32:WS2_32.dll
 0002:000008f8       __imp_WSAGetLastError      00000001402208f8     ws2_32:WS2_32.dll
 0002:00000900       __imp_connect              0000000140220900     ws2_32:WS2_32.dll
 0002:00000908       __imp_getsockopt           0000000140220908     ws2_32:WS2_32.dll
 0002:00000910       __imp_ioctlsocket          0000000140220910     ws2_32:WS2_32.dll
 0002:00000918       __imp_setsockopt           0000000140220918     ws2_32:WS2_32.dll
 0002:00000920       __imp_socket               0000000140220920     ws2_32:WS2_32.dll
 0002:00000928       __imp_listen               0000000140220928     ws2_32:WS2_32.dll
 0002:00000930       __imp_getsockname          0000000140220930     ws2_32:WS2_32.dll
 0002:00000938       __imp_bind                 0000000140220938     ws2_32:WS2_32.dll
 0002:00000940       __imp_gethostbyaddr        0000000140220940     ws2_32:WS2_32.dll
 0002:00000948       __imp_inet_ntoa            0000000140220948     ws2_32:WS2_32.dll
 0002:00000950       __imp_inet_addr            0000000140220950     ws2_32:WS2_32.dll
 0002:00000958       \177WS2_32_NULL_THUNK_DATA 0000000140220958     ws2_32:WS2_32.dll
 0002:00000960       __imp_StackWalk64          0000000140220960     dbghelp:dbghelp.dll
 0002:00000968       __imp_SymGetModuleBase64   0000000140220968     dbghelp:dbghelp.dll
 0002:00000970       __imp_SymFunctionTableAccess64 0000000140220970     dbghelp:dbghelp.dll
 0002:00000978       __imp_SymGetSymFromAddr64  0000000140220978     dbghelp:dbghelp.dll
 0002:00000980       __imp_SymGetLineFromAddr64 0000000140220980     dbghelp:dbghelp.dll
 0002:00000988       __imp_SymInitialize        0000000140220988     dbghelp:dbghelp.dll
 0002:00000990       \177dbghelp_NULL_THUNK_DATA 0000000140220990     dbghelp:dbghelp.dll
 0002:00000998       __imp_compress2            0000000140220998     zdll:zlib1.dll
 0002:000009a0       __imp_zError               00000001402209a0     zdll:zlib1.dll
 0002:000009a8       __imp_inflate              00000001402209a8     zdll:zlib1.dll
 0002:000009b0       __imp_inflateReset         00000001402209b0     zdll:zlib1.dll
 0002:000009b8       __imp_inflateEnd           00000001402209b8     zdll:zlib1.dll
 0002:000009c0       __imp_deflateInit2_        00000001402209c0     zdll:zlib1.dll
 0002:000009c8       __imp_inflateInit2_        00000001402209c8     zdll:zlib1.dll
 0002:000009d0       __imp_deflateEnd           00000001402209d0     zdll:zlib1.dll
 0002:000009d8       __imp_deflate              00000001402209d8     zdll:zlib1.dll
 0002:000009e0       __imp_deflateInit_         00000001402209e0     zdll:zlib1.dll
 0002:000009e8       __imp_crc32                00000001402209e8     zdll:zlib1.dll
 0002:000009f0       __imp_uncompress           00000001402209f0     zdll:zlib1.dll
 0002:000009f8       __imp_compressBound        00000001402209f8     zdll:zlib1.dll
 0002:00000a00       \177zlib1_NULL_THUNK_DATA  0000000140220a00     zdll:zlib1.dll
 0002:00000a08       __guard_check_icall_fptr   0000000140220a08     LIBCMT:guard_support.obj
 0002:00000a10       __guard_xfg_check_icall_fptr 0000000140220a10     LIBCMT:guard_support.obj
 0002:00000a18       __guard_dispatch_icall_fptr 0000000140220a18     LIBCMT:guard_support.obj
 0002:00000a20       __guard_xfg_dispatch_icall_fptr 0000000140220a20     LIBCMT:guard_support.obj
 0002:00000a28       __guard_xfg_table_dispatch_icall_fptr 0000000140220a28     LIBCMT:guard_support.obj
 0002:00000a30       __castguard_check_failure_os_handled_fptr 0000000140220a30     LIBCMT:guard_support.obj
 0002:00000a38       __guard_memcpy_fptr        0000000140220a38     libvcruntime:softmemtag.obj
 0002:00000a40       __xc_a                     0000000140220a40     LIBCMT:initializers.obj
 0002:00003420       __xc_z                     0000000140223420     LIBCMT:initializers.obj
 0002:00003428       __xi_a                     0000000140223428     LIBCMT:initializers.obj
 0002:00003448       __acrt_stdio_initializer   0000000140223448     libucrt:stdio_initializer.obj
 0002:00003450       __acrt_timeset_initializer 0000000140223450     libucrt:timeset_initializer.obj
 0002:00003458       __acrt_multibyte_initializer 0000000140223458     libucrt:multibyte_initializer.obj
 0002:00003460       __acrt_fmode_initializer   0000000140223460     libucrt:fmode_initializer.obj
 0002:00003468       __acrt_tran_fma3_initializer 0000000140223468     libucrt:fma3_initializer.obj
 0002:00003470       __xi_z                     0000000140223470     LIBCMT:initializers.obj
 0002:00003478       __xl_a                     0000000140223478     LIBCMT:tlssup.obj
 0002:00003480       __xl_z                     0000000140223480     LIBCMT:tlssup.obj
 0002:00003488       __xp_a                     0000000140223488     LIBCMT:initializers.obj
 0002:00003490       __acrt_locale_terminator   0000000140223490     libucrt:locale_initializer.obj
 0002:00003498       __dcrt_console_output_terminator 0000000140223498     libucrt:console_output_initializer.obj
 0002:000034a0       __acrt_stdio_terminator    00000001402234a0     libucrt:stdio_initializer.obj
 0002:000034a8       __xp_z                     00000001402234a8     LIBCMT:initializers.obj
 0002:000034b0       __xt_a                     00000001402234b0     LIBCMT:initializers.obj
 0002:000034b8       __xt_z                     00000001402234b8     LIBCMT:initializers.obj
 0002:00003600       ??_C@_1EC@JIJBPKFM@?$AAa?$AAp?$AAi?$AA?9?$AAm?$AAs?$AA?9?$AAw?$AAi?$AAn?$AA?9?$AAc?$AAo?$AAr?$AAe@ 0000000140223600     LIBCMT:thread_safe_statics.obj
 0002:00003648       ??_C@_1BK@MGMFAEKH@?$AAk?$AAe?$AAr?$AAn?$AAe?$AAl?$AA3?$AA2?$AA?4?$AAd?$AAl?$AAl@ 0000000140223648     LIBCMT:thread_safe_statics.obj
 0002:00003668       ??_C@_0BJ@JEBJOJFJ@SleepConditionVariableCS@ 0000000140223668     LIBCMT:thread_safe_statics.obj
 0002:00003688       ??_C@_0BJ@PGPPEPCC@WakeAllConditionVariable@ 0000000140223688     LIBCMT:thread_safe_statics.obj
 0002:000036b0       ??_7type_info@@6B@         00000001402236b0     LIBCMT:std_type_info_static.obj
 0002:000036b8       ?s_negLengthTab@FH4@@3QBCB 00000001402236b8     libvcruntime:risctrnsctrl.obj
 0002:000036c8       ?s_shiftTab@FH4@@3QBEB     00000001402236c8     libvcruntime:risctrnsctrl.obj
 0002:00003818       _pDestructExceptionObject  0000000140223818     libvcruntime:ehhelpers.obj
 0002:00003828       ??_7exception@std@@6B@     0000000140223828     libvcruntime:frame.obj
 0002:00003838       ??_C@_0BC@EOODALEL@Unknown?5exception@ 0000000140223838     libvcruntime:frame.obj
 0002:00003858       ??_7bad_exception@std@@6B@ 0000000140223858     libvcruntime:frame.obj
 0002:00003868       ??_C@_0O@DPKOEFFH@bad?5exception@ 0000000140223868     libvcruntime:frame.obj
 0002:00003f90       ??_C@_08EHJDFFNH@__based?$CI@ 0000000140223f90     libvcruntime:undname.obj
 0002:00003fa0       ??_C@_07KOLFKCDI@__cdecl@  0000000140223fa0     libvcruntime:undname.obj
 0002:00003fa8       ??_C@_08GHMPAG@__pascal@   0000000140223fa8     libvcruntime:undname.obj
 0002:00003fb8       ??_C@_09IFJBGAPI@__stdcall@ 0000000140223fb8     libvcruntime:undname.obj
 0002:00003fc8       ??_C@_0L@NPHFGOKO@__thiscall@ 0000000140223fc8     libvcruntime:undname.obj
 0002:00003fd8       ??_C@_0L@JMKHOMEK@__fastcall@ 0000000140223fd8     libvcruntime:undname.obj
 0002:00003fe8       ??_C@_0N@BCKKPABJ@__vectorcall@ 0000000140223fe8     libvcruntime:undname.obj
 0002:00003ff8       ??_C@_09HIJEGCPM@__clrcall@ 0000000140223ff8     libvcruntime:undname.obj
 0002:00004004       ??_C@_06GHPCKEAG@__eabi@   0000000140224004     libvcruntime:undname.obj
 0002:00004010       ??_C@_09IOPIDJLG@__swift_1@ 0000000140224010     libvcruntime:undname.obj
 0002:00004020       ??_C@_09KFNFGKHF@__swift_2@ 0000000140224020     libvcruntime:undname.obj
 0002:00004030       ??_C@_09LMMOFLDE@__swift_3@ 0000000140224030     libvcruntime:undname.obj
 0002:00004040       ??_C@_07JOMMBBKO@__ptr64@  0000000140224040     libvcruntime:undname.obj
 0002:00004048       ??_C@_0L@PILCLIHE@__restrict@ 0000000140224048     libvcruntime:undname.obj
 0002:00004058       ??_C@_0M@GFIIJFMG@__unaligned@ 0000000140224058     libvcruntime:undname.obj
 0002:00004068       ??_C@_09DHDLOLLB@restrict?$CI@ 0000000140224068     libvcruntime:undname.obj
 0002:00004074       ??_C@_04NIHEBCM@?5new@     0000000140224074     libvcruntime:undname.obj
 0002:00004080       ??_C@_07FPCDHGMM@?5delete@ 0000000140224080     libvcruntime:undname.obj
 0002:00004088       ??_C@_02EGOFBIJA@?$DN?$DN@ 0000000140224088     libvcruntime:undname.obj
 0002:0000408c       ??_C@_02GPECMEKF@?$FL?$FN@ 000000014022408c     libvcruntime:undname.obj
 0002:00004090       ??_C@_08LHJFAFGD@operator@ 0000000140224090     libvcruntime:undname.obj
 0002:0000409c       ??_C@_02HBOOOICD@?9?$DO@   000000014022409c     libvcruntime:undname.obj
 0002:000040a0       ??_C@_02ECNGHCIF@?$CL?$CL@ 00000001402240a0     libvcruntime:undname.obj
 0002:000040a4       ??_C@_02BAABKJLB@?9?9@     00000001402240a4     libvcruntime:undname.obj
 0002:000040a8       ??_C@_03MNHNFDLC@?9?$DO?$CK@ 00000001402240a8     libvcruntime:undname.obj
 0002:000040ac       ??_C@_01FGNFDNOH@?$CF@     00000001402240ac     libvcruntime:undname.obj
 0002:000040b0       ??_C@_02HCKGKOFO@?$CI?$CJ@ 00000001402240b0     libvcruntime:undname.obj
 0002:000040b4       ??_C@_02FPIMKNGF@?$CK?$DN@ 00000001402240b4     libvcruntime:undname.obj
 0002:000040b8       ??_C@_02FOEOMHFC@?$CL?$DN@ 00000001402240b8     libvcruntime:undname.obj
 0002:000040bc       ??_C@_02FKMDLLOA@?9?$DN@   00000001402240bc     libvcruntime:undname.obj
 0002:000040c0       ??_C@_02FJEHGPIO@?1?$DN@   00000001402240c0     libvcruntime:undname.obj
 0002:000040c4       ??_C@_02FENAOKFI@?$CF?$DN@ 00000001402240c4     libvcruntime:undname.obj
 0002:000040c8       ??_C@_03IKFCCPFF@?$DO?$DO?$DN@ 00000001402240c8     libvcruntime:undname.obj
 0002:000040cc       ??_C@_03CDNPDDLA@?$DM?$DM?$DN@ 00000001402240cc     libvcruntime:undname.obj
 0002:000040d0       ??_C@_02FGJGFEAB@?$CG?$DN@ 00000001402240d0     libvcruntime:undname.obj
 0002:000040d4       ??_C@_02DHLNPPGH@?$HM?$DN@ 00000001402240d4     libvcruntime:undname.obj
 0002:000040d8       ??_C@_02MHEGNOJ@?$FO?$DN@  00000001402240d8     libvcruntime:undname.obj
 0002:000040e0       ??_C@_09IFPLHPGF@?$GAvftable?8@ 00000001402240e0     libvcruntime:undname.obj
 0002:000040f0       ??_C@_09BLBHBJP@?$GAvbtable?8@ 00000001402240f0     libvcruntime:undname.obj
 0002:00004100       ??_C@_07FEEIOKP@?$GAvcall?8@ 0000000140224100     libvcruntime:undname.obj
 0002:00004108       ??_C@_08LLFFHHDJ@?$GAtypeof?8@ 0000000140224108     libvcruntime:undname.obj
 0002:00004118       ??_C@_0BF@KDPPACIK@?$GAlocal?5static?5guard?8@ 0000000140224118     libvcruntime:undname.obj
 0002:00004130       ??_C@_08OBABFOLI@?$GAstring?8@ 0000000140224130     libvcruntime:undname.obj
 0002:00004140       ??_C@_0BD@JDLKDPAB@?$GAvbase?5destructor?8@ 0000000140224140     libvcruntime:undname.obj
 0002:00004158       ??_C@_0BN@DEGPLNFK@?$GAvector?5deleting?5destructor?8@ 0000000140224158     libvcruntime:undname.obj
 0002:00004178       ??_C@_0BO@OBMKPJIG@?$GAdefault?5constructor?5closure?8@ 0000000140224178     libvcruntime:undname.obj
 0002:00004198       ??_C@_0BN@IMDCHIKM@?$GAscalar?5deleting?5destructor?8@ 0000000140224198     libvcruntime:undname.obj
 0002:000041b8       ??_C@_0BO@PFGOCPJJ@?$GAvector?5constructor?5iterator?8@ 00000001402241b8     libvcruntime:undname.obj
 0002:000041d8       ??_C@_0BN@LFPFMEDL@?$GAvector?5destructor?5iterator?8@ 00000001402241d8     libvcruntime:undname.obj
 0002:000041f8       ??_C@_0CE@IKBNEHA@?$GAvector?5vbase?5constructor?5itera@ 00000001402241f8     libvcruntime:undname.obj
 0002:00004220       ??_C@_0BL@NILFHHPC@?$GAvirtual?5displacement?5map?8@ 0000000140224220     libvcruntime:undname.obj
 0002:00004240       ??_C@_0CB@JONCMFFK@?$GAeh?5vector?5constructor?5iterator@ 0000000140224240     libvcruntime:undname.obj
 0002:00004268       ??_C@_0CA@GCEOPDGL@?$GAeh?5vector?5destructor?5iterator?8@ 0000000140224268     libvcruntime:undname.obj
 0002:00004288       ??_C@_0CH@OOJPLCPH@?$GAeh?5vector?5vbase?5constructor?5it@ 0000000140224288     libvcruntime:undname.obj
 0002:000042b0       ??_C@_0BL@LLKPOHJI@?$GAcopy?5constructor?5closure?8@ 00000001402242b0     libvcruntime:undname.obj
 0002:000042d0       ??_C@_0BA@KBCDOMBN@?$GAudt?5returning?8@ 00000001402242d0     libvcruntime:undname.obj
 0002:000042e0       ??_C@_03KLGMFNMG@?$GAEH@   00000001402242e0     libvcruntime:undname.obj
 0002:000042e4       ??_C@_05KHLCHHI@?$GARTTI@  00000001402242e4     libvcruntime:undname.obj
 0002:000042f0       ??_C@_0BA@KKLDJDLB@?$GAlocal?5vftable?8@ 00000001402242f0     libvcruntime:undname.obj
 0002:00004300       ??_C@_0CE@IIHCMGGL@?$GAlocal?5vftable?5constructor?5clos@ 0000000140224300     libvcruntime:undname.obj
 0002:00004324       ??_C@_06FHBGPFGH@?5new?$FL?$FN@ 0000000140224324     libvcruntime:undname.obj
 0002:00004330       ??_C@_09LBNFPBCA@?5delete?$FL?$FN@ 0000000140224330     libvcruntime:undname.obj
 0002:00004340       ??_C@_0P@HJKNJFNN@?$GAomni?5callsig?8@ 0000000140224340     libvcruntime:undname.obj
 0002:00004350       ??_C@_0BL@CNOONJFP@?$GAplacement?5delete?5closure?8@ 0000000140224350     libvcruntime:undname.obj
 0002:00004370       ??_C@_0BN@CKNJLHMB@?$GAplacement?5delete?$FL?$FN?5closure?8@ 0000000140224370     libvcruntime:undname.obj
 0002:00004390       ??_C@_0CG@CFDHKGGD@?$GAmanaged?5vector?5constructor?5ite@ 0000000140224390     libvcruntime:undname.obj
 0002:000043b8       ??_C@_0CF@IMGKMJNO@?$GAmanaged?5vector?5destructor?5iter@ 00000001402243b8     libvcruntime:undname.obj
 0002:000043e0       ??_C@_0CG@HLDDJMAG@?$GAeh?5vector?5copy?5constructor?5ite@ 00000001402243e0     libvcruntime:undname.obj
 0002:00004408       ??_C@_0CM@FCBBDIGB@?$GAeh?5vector?5vbase?5copy?5construct@ 0000000140224408     libvcruntime:undname.obj
 0002:00004438       ??_C@_0BL@CLIPGLGB@?$GAdynamic?5initializer?5for?5?8@ 0000000140224438     libvcruntime:undname.obj
 0002:00004458       ??_C@_0CB@PDBIFEP@?$GAdynamic?5atexit?5destructor?5for?5@ 0000000140224458     libvcruntime:undname.obj
 0002:00004480       ??_C@_0CD@CGAJBKEJ@?$GAvector?5copy?5constructor?5iterat@ 0000000140224480     libvcruntime:undname.obj
 0002:000044a8       ??_C@_0CJ@GJELGAMM@?$GAvector?5vbase?5copy?5constructor?5@ 00000001402244a8     libvcruntime:undname.obj
 0002:000044d8       ??_C@_0CL@FGIJHLCE@?$GAmanaged?5vector?5copy?5constructo@ 00000001402244d8     libvcruntime:undname.obj
 0002:00004508       ??_C@_0BM@PMGGMLDN@?$GAlocal?5static?5thread?5guard?8@ 0000000140224508     libvcruntime:undname.obj
 0002:00004528       ??_C@_0N@BDNMDMOL@operator?5?$CC?$CC?5@ 0000000140224528     libvcruntime:undname.obj
 0002:00004538       ??_C@_0BC@GGEBGALA@operator?5co_await@ 0000000140224538     libvcruntime:undname.obj
 0002:00004550       ??_C@_0M@GAAIMMOH@operator?$DM?$DN?$DO@ 0000000140224550     libvcruntime:undname.obj
 0002:00004560       ??_C@_0BC@DAFEJGAK@?5Type?5Descriptor?8@ 0000000140224560     libvcruntime:undname.obj
 0002:00004578       ??_C@_0BM@LDKODKLH@?5Base?5Class?5Descriptor?5at?5?$CI@ 0000000140224578     libvcruntime:undname.obj
